
Cont.elf:     file format elf32-littlenios2
Cont.elf
architecture: nios2, flags 0x00000112:
EXEC_P, HAS_SYMS, D_PAGED
start address 0x020001b4

Program Header:
    LOAD off    0x00001020 vaddr 0x02000020 paddr 0x02000020 align 2**12
         filesz 0x000103dc memsz 0x00011104 flags rwx
    LOAD off    0x00011800 vaddr 0x04001800 paddr 0x04001800 align 2**12
         filesz 0x00000000 memsz 0x00000000 flags r-x

Sections:
Idx Name          Size      VMA       LMA       File off  Algn
  0 .entry        00000000  04001800  04001800  00011800  2**5
                  CONTENTS, ALLOC, LOAD, READONLY, CODE
  1 .exceptions   00000194  02000020  02000020  00001020  2**2
                  CONTENTS, ALLOC, LOAD, READONLY, CODE
  2 .text         0000e4e8  020001b4  020001b4  000011b4  2**2
                  CONTENTS, ALLOC, LOAD, READONLY, CODE
  3 .rodata       000003b8  0200e69c  0200e69c  0000f69c  2**2
                  CONTENTS, ALLOC, LOAD, READONLY, DATA
  4 .rwdata       000019a8  0200ea54  0200ea54  0000fa54  2**2
                  CONTENTS, ALLOC, LOAD, DATA, SMALL_DATA
  5 .bss          00000d28  020103fc  020103fc  000113fc  2**2
                  ALLOC, SMALL_DATA
  6 .comment      00000026  00000000  00000000  00011800  2**0
                  CONTENTS, READONLY
  7 .debug_aranges 00000c90  00000000  00000000  00011828  2**3
                  CONTENTS, READONLY, DEBUGGING
  8 .debug_pubnames 0000209f  00000000  00000000  000124b8  2**0
                  CONTENTS, READONLY, DEBUGGING
  9 .debug_info   00017e5c  00000000  00000000  00014557  2**0
                  CONTENTS, READONLY, DEBUGGING
 10 .debug_abbrev 00006e6f  00000000  00000000  0002c3b3  2**0
                  CONTENTS, READONLY, DEBUGGING
 11 .debug_line   000110f7  00000000  00000000  00033222  2**0
                  CONTENTS, READONLY, DEBUGGING
 12 .debug_frame  000018fc  00000000  00000000  0004431c  2**2
                  CONTENTS, READONLY, DEBUGGING
 13 .debug_str    00001a21  00000000  00000000  00045c18  2**0
                  CONTENTS, READONLY, DEBUGGING
 14 .debug_loc    00005830  00000000  00000000  00047639  2**0
                  CONTENTS, READONLY, DEBUGGING
 15 .debug_alt_sim_info 00000020  00000000  00000000  0004ce6c  2**2
                  CONTENTS, READONLY, DEBUGGING
 16 .debug_ranges 00000428  00000000  00000000  0004ce90  2**3
                  CONTENTS, READONLY, DEBUGGING
 17 .thread_model 00000003  00000000  00000000  000510cf  2**0
                  CONTENTS, READONLY
 18 .cpu          00000003  00000000  00000000  000510d2  2**0
                  CONTENTS, READONLY
 19 .simulation_enabled 00000001  00000000  00000000  000510d5  2**0
                  CONTENTS, READONLY
 20 .sysid_hash   00000004  00000000  00000000  000510d6  2**0
                  CONTENTS, READONLY
 21 .sysid_base   00000004  00000000  00000000  000510da  2**0
                  CONTENTS, READONLY
 22 .sysid_time   00000004  00000000  00000000  000510de  2**0
                  CONTENTS, READONLY
 23 .stderr_dev   00000009  00000000  00000000  000510e2  2**0
                  CONTENTS, READONLY
 24 .stdin_dev    00000009  00000000  00000000  000510eb  2**0
                  CONTENTS, READONLY
 25 .stdout_dev   00000009  00000000  00000000  000510f4  2**0
                  CONTENTS, READONLY
 26 .sopc_system_name 00000006  00000000  00000000  000510fd  2**0
                  CONTENTS, READONLY
 27 .jdi          00003f7f  00000000  00000000  00051103  2**0
                  CONTENTS, READONLY
SYMBOL TABLE:
04001800 l    d  .entry	00000000 .entry
02000020 l    d  .exceptions	00000000 .exceptions
020001b4 l    d  .text	00000000 .text
0200e69c l    d  .rodata	00000000 .rodata
0200ea54 l    d  .rwdata	00000000 .rwdata
020103fc l    d  .bss	00000000 .bss
00000000 l    d  .comment	00000000 .comment
00000000 l    d  .debug_aranges	00000000 .debug_aranges
00000000 l    d  .debug_pubnames	00000000 .debug_pubnames
00000000 l    d  .debug_info	00000000 .debug_info
00000000 l    d  .debug_abbrev	00000000 .debug_abbrev
00000000 l    d  .debug_line	00000000 .debug_line
00000000 l    d  .debug_frame	00000000 .debug_frame
00000000 l    d  .debug_str	00000000 .debug_str
00000000 l    d  .debug_loc	00000000 .debug_loc
00000000 l    d  .debug_alt_sim_info	00000000 .debug_alt_sim_info
00000000 l    d  .debug_ranges	00000000 .debug_ranges
020001f8 l       .text	00000000 alt_after_alt_main
00000000 l    df *ABS*	00000000 alt_irq_handler.c
00000000 l    df *ABS*	00000000 Kalman.c
00000000 l    df *ABS*	00000000 header.c
00000000 l    df *ABS*	00000000 main.c
00000000 l    df *ABS*	00000000 s_cos.c
00000000 l    df *ABS*	00000000 s_sin.c
00000000 l    df *ABS*	00000000 sf_round.c
00000000 l    df *ABS*	00000000 w_asin.c
00000000 l    df *ABS*	00000000 w_atan2.c
00000000 l    df *ABS*	00000000 w_sqrt.c
00000000 l    df *ABS*	00000000 e_asin.c
00000000 l    df *ABS*	00000000 e_atan2.c
00000000 l    df *ABS*	00000000 e_rem_pio2.c
0200e72c l     O .rodata	00000108 two_over_pi
0200e6ac l     O .rodata	00000080 npio2_hw
00000000 l    df *ABS*	00000000 e_sqrt.c
00000000 l    df *ABS*	00000000 k_cos.c
00000000 l    df *ABS*	00000000 k_rem_pio2.c
0200e834 l     O .rodata	00000010 init_jk
0200e844 l     O .rodata	00000040 PIo2
00000000 l    df *ABS*	00000000 k_sin.c
00000000 l    df *ABS*	00000000 s_atan.c
0200e884 l     O .rodata	00000020 atanhi
0200e8a4 l     O .rodata	00000020 atanlo
00000000 l    df *ABS*	00000000 s_fabs.c
00000000 l    df *ABS*	00000000 s_floor.c
00000000 l    df *ABS*	00000000 s_isnand.c
00000000 l    df *ABS*	00000000 s_lib_ver.c
00000000 l    df *ABS*	00000000 s_matherr.c
00000000 l    df *ABS*	00000000 s_nan.c
00000000 l    df *ABS*	00000000 s_scalbn.c
00000000 l    df *ABS*	00000000 s_copysign.c
00000000 l    df *ABS*	00000000 fp-bit.c
020086dc l     F .text	000001e4 _fpadd_parts
00000000 l    df *ABS*	00000000 fp-bit.c
00000000 l    df *ABS*	00000000 fp-bit.c
00000000 l    df *ABS*	00000000 fp-bit.c
00000000 l    df *ABS*	00000000 fp-bit.c
00000000 l    df *ABS*	00000000 fp-bit.c
00000000 l    df *ABS*	00000000 fp-bit.c
00000000 l    df *ABS*	00000000 fp-bit.c
00000000 l    df *ABS*	00000000 fp-bit.c
00000000 l    df *ABS*	00000000 dp-bit.c
02008df0 l     F .text	00000410 _fpadd_parts
00000000 l    df *ABS*	00000000 dp-bit.c
00000000 l    df *ABS*	00000000 dp-bit.c
00000000 l    df *ABS*	00000000 dp-bit.c
00000000 l    df *ABS*	00000000 dp-bit.c
00000000 l    df *ABS*	00000000 dp-bit.c
00000000 l    df *ABS*	00000000 dp-bit.c
00000000 l    df *ABS*	00000000 dp-bit.c
00000000 l    df *ABS*	00000000 dp-bit.c
00000000 l    df *ABS*	00000000 dp-bit.c
00000000 l    df *ABS*	00000000 dp-bit.c
00000000 l    df *ABS*	00000000 dp-bit.c
00000000 l    df *ABS*	00000000 lib2-divmod.c
02009dac l     F .text	0000007c udivmodsi4
00000000 l    df *ABS*	00000000 libgcc2.c
00000000 l    df *ABS*	00000000 libgcc2.c
00000000 l    df *ABS*	00000000 fp-bit.c
00000000 l    df *ABS*	00000000 fp-bit.c
00000000 l    df *ABS*	00000000 fp-bit.c
00000000 l    df *ABS*	00000000 fp-bit.c
00000000 l    df *ABS*	00000000 dp-bit.c
00000000 l    df *ABS*	00000000 dp-bit.c
00000000 l    df *ABS*	00000000 dp-bit.c
00000000 l    df *ABS*	00000000 libgcc2.c
00000000 l    df *ABS*	00000000 errno.c
00000000 l    df *ABS*	00000000 impure.c
0200eb3c l     O .rwdata	00000400 impure_data
00000000 l    df *ABS*	00000000 alt_irq_register.c
00000000 l    df *ABS*	00000000 alt_irq_vars.c
00000000 l    df *ABS*	00000000 alt_main.c
00000000 l    df *ABS*	00000000 alt_sys_init.c
0200ef3c l     O .rwdata	000000c4 epcs_flash_controller
0200f000 l     O .rwdata	00001060 jtag_uart
02010060 l     O .rwdata	000000c4 uart_gps
02010124 l     O .rwdata	000000c4 uart_xbee
0200ab38 l     F .text	00000038 alt_dev_reg
00000000 l    df *ABS*	00000000 altera_avalon_epcs_flash_controller.c
0200abfc l     F .text	000001ec alt_epcs_flash_query
0200abc4 l     F .text	00000038 alt_flash_device_register
0200ade8 l     F .text	00000108 alt_epcs_flash_memcmp
0200b274 l     F .text	00000094 alt_epcs_test_address
00000000 l    df *ABS*	00000000 altera_avalon_jtag_uart_fd.c
00000000 l    df *ABS*	00000000 altera_avalon_jtag_uart_init.c
0200b6ac l     F .text	00000228 altera_avalon_jtag_uart_irq
0200b8d4 l     F .text	000000b0 altera_avalon_jtag_uart_timeout
00000000 l    df *ABS*	00000000 altera_avalon_jtag_uart_ioctl.c
00000000 l    df *ABS*	00000000 altera_avalon_jtag_uart_read.c
00000000 l    df *ABS*	00000000 altera_avalon_jtag_uart_write.c
00000000 l    df *ABS*	00000000 altera_avalon_timer_sc.c
0200bf50 l     F .text	00000070 alt_avalon_timer_sc_irq
00000000 l    df *ABS*	00000000 altera_avalon_uart_fd.c
00000000 l    df *ABS*	00000000 altera_avalon_uart_init.c
0200c210 l     F .text	0000009c altera_avalon_uart_irq
0200c2ac l     F .text	000000e0 altera_avalon_uart_rxirq
0200c38c l     F .text	0000015c altera_avalon_uart_txirq
00000000 l    df *ABS*	00000000 altera_avalon_uart_read.c
0200c778 l     F .text	00000060 alt_get_errno
00000000 l    df *ABS*	00000000 altera_avalon_uart_write.c
0200c9a0 l     F .text	00000060 alt_get_errno
00000000 l    df *ABS*	00000000 epcs_commands.c
0200cadc l     F .text	00000038 epcs_await_wip_released
0200cb14 l     F .text	00000038 epcs_test_wip
00000000 l    df *ABS*	00000000 alt_alarm_start.c
00000000 l    df *ABS*	00000000 alt_close.c
0200d0b0 l     F .text	00000060 alt_get_errno
00000000 l    df *ABS*	00000000 alt_dev.c
0200d110 l     F .text	0000002c alt_dev_null_write
00000000 l    df *ABS*	00000000 alt_dev_llist_insert.c
0200d1f0 l     F .text	00000060 alt_get_errno
00000000 l    df *ABS*	00000000 alt_do_ctors.c
00000000 l    df *ABS*	00000000 alt_do_dtors.c
00000000 l    df *ABS*	00000000 alt_errno.c
00000000 l    df *ABS*	00000000 alt_flash_dev.c
00000000 l    df *ABS*	00000000 alt_iic.c
00000000 l    df *ABS*	00000000 alt_iic_isr_register.c
00000000 l    df *ABS*	00000000 alt_io_redirect.c
0200d6b4 l     F .text	000000c4 alt_open_fd
00000000 l    df *ABS*	00000000 alt_open.c
0200d7f0 l     F .text	000000dc alt_file_locked
0200da54 l     F .text	00000060 alt_get_errno
00000000 l    df *ABS*	00000000 alt_release_fd.c
00000000 l    df *ABS*	00000000 alt_tick.c
00000000 l    df *ABS*	00000000 altera_nios2_irq.c
00000000 l    df *ABS*	00000000 altera_avalon_spi.c
00000000 l    df *ABS*	00000000 alt_find_dev.c
00000000 l    df *ABS*	00000000 alt_find_file.c
00000000 l    df *ABS*	00000000 alt_get_fd.c
00000000 l    df *ABS*	00000000 atexit.c
00000000 l    df *ABS*	00000000 exit.c
00000000 l    df *ABS*	00000000 int_errno.c
00000000 l    df *ABS*	00000000 memcmp.c
00000000 l    df *ABS*	00000000 memcpy.c
00000000 l    df *ABS*	00000000 strlen.c
00000000 l    df *ABS*	00000000 __atexit.c
00000000 l    df *ABS*	00000000 __call_atexit.c
0200e484 l     F .text	00000004 register_fini
00000000 l    df *ABS*	00000000 alt_exit.c
0200e638 l     F .text	00000040 alt_sim_halt
0200b170 g     F .text	00000090 alt_epcs_flash_get_info
02010418 g     O .bss	00000004 cos_pitch
0200a9f0 g     F .text	0000006c alt_main
020105e0 g     O .bss	00000004 sp_altura
02010e94 g     O .bss	00000100 alt_irq
020105f4 g     O .bss	00000004 recepciona_trama_imu
02008254 g     F .text	00000018 fabs
02010b80 g     O .bss	0000001c Hftrans
02010d58 g     O .bss	00000028 tx_trama
0201041c g     O .bss	00000004 x6
02004cd0 g     F .text	00000130 sqrt
02010420 g     O .bss	00000004 GY11
02009910 g     F .text	00000088 __eqdf2
02010424 g     O .bss	00000004 wz
02010428 g     O .bss	00000002 ejez_ac
02004034 g     F .text	00000354 SetPoints
0200337c g     F .text	00000038 isr_handler_timer
02010d80 g     O .bss	0000000c sp_interno
0201042c g     O .bss	00000004 GY12
02008994 g     F .text	00000174 __divsf3
02010400 g     O .bss	00000004 j
020105e8 g     O .bss	00000004 sp_wy
02010708 g     O .bss	0000001c x
02010430 g     O .bss	00000004 AC31
020031fc g     F .text	00000084 a_2decimales
02008d08 g     F .text	00000094 __fixsfsi
02010434 g     O .bss	00000002 ejez_gi
02010394 g     O .rwdata	00000004 opcion
02009998 g     F .text	00000088 __gtdf2
0200a820 g     F .text	00000010 __errno
0200ca60 g     F .text	0000007c epcs_sector_erase
02010bf0 g     O .bss	0000001c ftrans
04001800 g     F .entry	00000000 __reset
02004508 g     F .text	00000224 SetPIDs
02010b9c g     O .bss	0000001c f
02010438 g     O .bss	00000004 MA21
02010640 g     O .bss	00000004 errno
02009d00 g     F .text	00000038 __make_dp
0200826c g     F .text	00000224 floor
0201043c g     O .bss	00000004 MA33
02010620 g     O .bss	00000004 cont_recv
02010440 g     O .bss	00000004 GY23
0200a2e0 g     F .text	0000002c __make_fp
02002664 g     F .text	000000d8 D_7x1_scale
02010ce8 g     O .bss	00000020 recvtrama
02010630 g     O .bss	00000004 alt_argv
02018390 g       *ABS*	00000000 _gp
020088c0 g     F .text	00000070 __subsf3
02010444 g     O .bss	00000004 AC33
0201061c g     O .bss	00000004 Estados_Quad
02010614 g     O .bss	00000004 initpwms
02010210 g     O .rwdata	00000180 alt_fd_list
02005a0c g     F .text	00000828 __ieee754_rem_pio2
02010448 g     O .bss	00000004 MA22
0200cc50 g     F .text	00000064 epcs_write_status_register
020103b0 g     O .rwdata	00000004 at
0200df10 g     F .text	00000094 alt_find_dev
0200e23c g     F .text	000000a0 memcpy
02010bb8 g     O .bss	0000001c K
020105fe g     O .bss	00000002 RF2
0201044c g     O .bss	00000004 AC21
02010618 g     O .bss	00000004 contsleep
02009b30 g     F .text	000000f8 __floatsidf
0200d778 g     F .text	00000078 alt_io_redirect
02009aa8 g     F .text	00000088 __ltdf2
0200e69c g       *ABS*	00000000 __DTOR_END__
020033b4 g     F .text	0000018c isr_handler_TimerONOF
0200dcb8 g     F .text	00000020 altera_nios2_irq_init
0200b308 g     F .text	00000110 alt_epcs_flash_write_block
02010cdc g     O .bss	0000000c errSum
02010450 g     O .bss	00000004 err_center_z
0200273c g     F .text	000000b8 M_7x1_scale
0200baec g     F .text	00000224 altera_avalon_jtag_uart_read
00000000  w      *UND*	00000000 malloc
02009ee8 g     F .text	00000008 __udivsi3
02004b00 g     F .text	0000009c roundf
02010c0c g     O .bss	000000c4 K_ftrans
02010454 g     O .bss	00000004 Pitch_sex
02010458 g     O .bss	00000004 W_x
0200ea54 g     O .rwdata	000000c4 Q
020103c0 g     O .rwdata	00000004 sleep
0201045c g     O .bss	00000004 M_x
0201060c g     O .bss	00000004 KI_yaw
020064fc g     F .text	0000052c __kernel_cos
02010d8c g     O .bss	00000048 PID_Wz
02010460 g     O .bss	00000004 wx
02010610 g     O .bss	00000004 flag
02010464 g     O .bss	00000004 mag_x
020103ac g     O .rwdata	00000004 I_roll
02010468 g     O .bss	00000004 AC13
0201040c g     O .bss	00000004 w
020037e0 g     F .text	00000048 init_uart
0201046c g     O .bss	00000004 AC10
02010470 g     O .bss	00000004 Pitch_rad
02010410 g     O .bss	00000004 k
020103e4 g     O .rwdata	00000004 alt_max_fd
0200a620 g     F .text	00000138 __unpack_d
02010474 g     O .bss	00000004 x5
0200a830 g     F .text	000001c0 alt_irq_register
020078a4 g     F .text	00000318 __kernel_sin
02008d9c g     F .text	00000054 __extendsfdf2
02010624 g     O .bss	00000004 temp
020105f8 g     O .bss	00000004 trama_valida
02009280 g     F .text	00000074 __adddf3
0200b200 g     F .text	00000074 alt_epcs_flash_erase_block
02010478 g     O .bss	00000004 GY32
020103c4 g     O .rwdata	00000004 __fdlib_version
020103cc g     O .rwdata	00000004 _global_impure_ptr
02011124 g       *ABS*	00000000 __bss_end
0200d5bc g     F .text	000000f8 alt_iic_isr_register
0200dbac g     F .text	0000010c alt_tick
0201047c g     O .bss	00000004 MA11
0200c148 g     F .text	000000c8 altera_avalon_uart_init
0200d574 g     F .text	00000048 alt_ic_irq_enabled
020103bc g     O .rwdata	00000004 Km
02010480 g     O .bss	00000004 AC20
0200db14 g     F .text	00000098 alt_alarm_stop
02010484 g     O .bss	00000002 ejex_gi
02010628 g     O .bss	00000004 alt_irq_active
02010488 g     O .bss	00000004 giro_y
020105d4 g     O .bss	00000004 sp_roll
020000ec g     F .exceptions	000000c8 alt_irq_handler
020101e8 g     O .rwdata	00000028 alt_dev_null
02006a28 g     F .text	00000e7c __kernel_rem_pio2
0201048c g     O .bss	00000004 x2
0200299c g     F .text	000000c8 M_7x1_1x7
02010490 g     O .bss	00000004 Roll_rad
0200a170 g     F .text	000000c8 __unpack_f
02010494 g     O .bss	00000004 Yaw_rad
02010498 g     O .bss	00000004 MA32
02009c28 g     F .text	000000d8 __fixdfsi
02010970 g     O .bss	000000c4 F_P_Ftrans
0201049c g     O .bss	00000004 x7
020104a0 g     O .bss	00000004 sin_pitch
020103dc g     O .rwdata	00000008 alt_dev_list
020105c8 g     O .bss	00000004 fin
020104a4 g     O .bss	00000004 GY10
020056bc g     F .text	00000350 __ieee754_atan2
02008b08 g     F .text	00000078 __gtsf2
020104a8 g     O .bss	00000004 acel_y
02010af8 g     O .bss	0000000c z
020104ac g     O .bss	00000004 AC30
02009ef0 g     F .text	00000008 __umodsi3
02010602 g     O .bss	00000002 RF4
02010a34 g     O .bss	000000c4 P_predict
0200cd8c g     F .text	0000006c epcs_read_electronic_signature
020104b0 g     O .bss	00000004 C_gy_z
020104b4 g     O .bss	00000002 ejex_ac
02011124 g       *ABS*	00000000 end
0200a010 g     F .text	00000160 __pack_f
020104b6 g     O .bss	00000002 ejez_ma
02010414 g     O .bss	00000004 Hf_f
020103b8 g     O .rwdata	00000004 Ktp
02010b64 g     O .bss	0000001c Hf
0200c7d8 g     F .text	000001c8 altera_avalon_uart_write
02003094 g     F .text	00000074 UART_SendString
0200b5ec g     F .text	000000c0 altera_avalon_jtag_uart_init
020103fc g     O .bss	00000004 i
02004e00 g     F .text	000008bc __ieee754_asin
0200e698 g       *ABS*	00000000 __CTOR_LIST__
02010390 g     O .rwdata	00000004 numbytes
04000000 g       *ABS*	00000000 __alt_stack_pointer
0200bfc0 g     F .text	00000090 alt_avalon_timer_sc_init
0200c0a8 g     F .text	00000058 altera_avalon_uart_write_fd
02009f90 g     F .text	00000080 __clzsi2
0200c100 g     F .text	00000048 altera_avalon_uart_close_fd
020104b8 g     O .bss	00000004 mag_y
0200bd10 g     F .text	00000240 altera_avalon_jtag_uart_write
0200482c g     F .text	00000168 cos
0200237c g     F .text	000000b8 transp_1x7
0200e488 g     F .text	000001b0 __call_exitprocs
020001b4 g     F .text	00000048 _start
02010638 g     O .bss	00000004 _alt_tick_rate
020104bc g     O .bss	00000004 magn_x
02004994 g     F .text	0000016c sin
020104c0 g     O .bss	00000004 GY31
020103a8 g     O .rwdata	00000004 I_pitch
0200dcd8 g     F .text	00000238 alt_avalon_spi_command
02004ccc g     F .text	00000004 atan2
0201063c g     O .bss	00000004 _alt_nticks
0200aa90 g     F .text	000000a8 alt_sys_init
02008c70 g     F .text	00000098 __floatsisf
0200e350 g     F .text	00000134 __register_exitproc
020104c4 g     O .bss	00000004 AC23
020104c8 g     O .bss	00000004 M_z
020104cc g     O .bss	00000004 GY22
020104d0 g     O .bss	00000004 M_y
020104d4 g     O .bss	00000004 err_center_y
0200b984 g     F .text	00000074 altera_avalon_jtag_uart_close
02010bd4 g     O .bss	0000001c K_y_h
020103b4 g     O .rwdata	00000004 Kt
02010d08 g     O .bss	00000050 sendtrama
0200ca00 g     F .text	00000060 epcs_read_status_register
020105d0 g     O .bss	00000004 alt_anterior
02010408 g     O .bss	00000004 v
0200b4a4 g     F .text	00000058 altera_avalon_jtag_uart_read_fd
0200e0c4 g     F .text	000000b8 alt_get_fd
020104d8 g     O .bss	00000004 mag_abs
020104dc g     O .bss	00000004 roll_rad
0201039c g     O .rwdata	00000004 P_roll
0200a758 g     F .text	000000c8 __fpcmp_parts_d
020104e0 g     O .bss	00000002 ejex_ma
0200cdf8 g     F .text	00000068 epcs_read_device_id
0200e1c8 g     F .text	00000074 memcmp
0200b554 g     F .text	00000048 altera_avalon_jtag_uart_close_fd
02011124 g       *ABS*	00000000 __alt_stack_base
020107e8 g     O .bss	000000c4 F_P
0200b59c g     F .text	00000050 altera_avalon_jtag_uart_ioctl_fd
020104e4 g     O .bss	00000004 MA13
020105f0 g     O .bss	00000004 flag_trama_imu
0200214c g     F .text	00000230 M_7x7_7x1
020096b8 g     F .text	00000258 __divdf3
02010600 g     O .bss	00000002 RF3
02010dd4 g     O .bss	00000010 W
020104e8 g     O .bss	00000004 AC12
020105e4 g     O .bss	00000004 sp_wx
020092f4 g     F .text	000003c4 __muldf3
020104ec g     O .bss	00000004 offset_x
02001fb4 g     F .text	000000b4 transp_7x7
04001800 g       *ABS*	00000000 __alt_mem_epcs_flash_controller
0200e8c4 g     O .rodata	00000010 __thenan_sf
02003b38 g     F .text	000004fc AlgoritmoControl
020103a4 g     O .rwdata	00000004 P_yaw
02003108 g     F .text	000000f4 UART_SendInt
0200dfa4 g     F .text	00000120 alt_find_file
0200d13c g     F .text	000000b4 alt_dev_llist_insert
020104f0 g     O .bss	00000004 Roll_sex
02003054 g     F .text	00000040 UART_SendChar
02003280 g     F .text	000000fc SendTrama
020103ec g     O .rwdata	00000008 alt_flash_dev_list
020104f4 g     O .bss	00000004 x4
020103fc g       *ABS*	00000000 __bss_start
020104f8 g     O .bss	00000004 giro_x
02003540 g     F .text	000002a0 main
02010404 g     O .bss	00000004 valor_ini
020104fc g     O .bss	00000004 C_acel_y
02010634 g     O .bss	00000004 alt_envp
0200b4fc g     F .text	00000058 altera_avalon_jtag_uart_write_fd
02008bf8 g     F .text	00000078 __ltsf2
02010de4 g     O .bss	00000048 PID_Wy
02002b48 g     F .text	00000040 qPID_Init
020084c0 g     F .text	00000008 matherr
02010b10 g     O .bss	00000054 H
02009d38 g     F .text	00000074 __truncdfsf2
02004388 g     F .text	00000180 Data_to_GCS
02010f94 g     O .bss	00000190 _atexit0
020105cc g     O .bss	00000004 time
02010500 g     O .bss	00000004 Yaw_sex
020103a0 g     O .rwdata	00000004 P_pitch
02010398 g     O .rwdata	00000004 numsendtrama
020103e8 g     O .rwdata	00000004 alt_errno
02010504 g     O .bss	00000004 W_y
02009e28 g     F .text	00000060 __divsi3
0200e8d4 g     O .rodata	00000014 __thenan_df
0200e69c g       *ABS*	00000000 __CTOR_END__
02010604 g     O .bss	00000004 KI_pitch
0200aef0 g     F .text	00000280 alt_epcs_flash_write
02010e2c g     O .bss	00000010 PWM
02010508 g     O .bss	00000004 GY13
0200e69c g       *ABS*	00000000 __DTOR_LIST__
0201050c g     O .bss	00000004 sin_roll
020105fc g     O .bss	00000002 RF1
020086b8 g     F .text	00000024 copysign
0200aa5c g     F .text	00000034 alt_irq_init
0200dab4 g     F .text	00000060 alt_release_fd
02002068 g     F .text	000000e4 S_7x7
02010510 g     O .bss	00000002 ejey_gi
02007bbc g     F .text	00000698 atan
0200e8e8 g     O .rodata	00000100 __clz_tab
02010514 g     O .bss	00000004 C_mag_x
0200eb18 g     O .rwdata	00000024 R
0200e17c g     F .text	00000014 atexit
02008b80 g     F .text	00000078 __gesf2
02004b9c g     F .text	00000130 asin
02010518 g     O .bss	00000004 giro_z
02001d88 g     F .text	0000022c M_7x7_7x7
020103c8 g     O .rwdata	00000004 _impure_ptr
02010cd0 g     O .bss	0000000c error
0201062c g     O .bss	00000004 alt_argc
020084d8 g     F .text	000001e0 scalbn
0201051c g     O .bss	00000004 x3
0200d2b4 g     F .text	00000064 _do_dtors
02010b04 g     O .bss	0000000c h
02010520 g     O .bss	00000004 x1
02010524 g     O .bss	00000004 AC32
02000020 g       .exceptions	00000000 alt_irq_entry
02010528 g     O .bss	00000004 MA31
020103d4 g     O .rwdata	00000008 alt_fs_list
0201052c g     O .bss	00000004 acel_abs
0200472c g     F .text	00000100 handle_uart_interrupts
020084c8 g     F .text	00000010 nan
02010530 g     O .bss	00000004 acel_z
02002b88 g     F .text	000004cc qPID_Process_
0200cb4c g     F .text	000000b4 epcs_read_buffer
02010534 g     O .bss	00000004 q_abs
02006234 g     F .text	000002c8 __ieee754_sqrt
02010538 g     O .bss	00000004 yaw
0201053c g     O .bss	00000004 MA23
0200ab70 g     F .text	00000054 alt_epcs_flash_init
0200d3e8 g     F .text	00000050 alt_ic_isr_register
02002a64 g     F .text	000000e4 R_7x7
02010540 g     O .bss	00000004 C_gy_y
020103fc g       *ABS*	00000000 _edata
02010544 g     O .bss	00000004 C_acel_x
02002434 g     F .text	00000230 M_1x7_7x1
0200c050 g     F .text	00000058 altera_avalon_uart_read_fd
02011124 g       *ABS*	00000000 _end
0200d318 g     F .text	0000007c alt_flash_open_dev
020105d8 g     O .bss	00000004 sp_pitch
0200b9f8 g     F .text	000000f4 altera_avalon_jtag_uart_ioctl
02010e3c g     O .bss	00000010 U
02010548 g     O .bss	00000004 pitch
0201054c g     O .bss	00000004 roll
0200d4d4 g     F .text	000000a0 alt_ic_irq_disable
02010550 g     O .bss	00000004 C_gy_x
02010554 g     O .bss	00000004 AC22
02010558 g     O .bss	00000004 yaw_rad
0200e190 g     F .text	00000038 exit
02010608 g     O .bss	00000004 KI_roll
0200d394 g     F .text	00000054 alt_flash_close_dev
02009e88 g     F .text	00000060 __modsi3
020108ac g     O .bss	000000c4 Ftrans
0201055c g     O .bss	00000002 ejey_ac
04000000 g       *ABS*	00000000 __alt_data_end
02000020 g     F .exceptions	00000000 alt_exception
02010560 g     O .bss	00000004 C_mag_y
02000000 g       *ABS*	00000000 __alt_mem_sdram
02010564 g     O .bss	00000004 YAW_rad
02010568 g     O .bss	00000004 magn_y
020105c4 g     O .bss	00000004 restart
0201056c g     O .bss	00000004 GY30
02010570 g     O .bss	00000004 err_center_x
0200c4e8 g     F .text	00000060 altera_avalon_uart_close
0200a238 g     F .text	000000a8 __fpcmp_parts_f
0200e678 g     F .text	00000020 _exit
02008490 g     F .text	00000030 __isnand
02010574 g     O .bss	00000004 W_z
0200ce60 g     F .text	00000154 alt_alarm_start
02010578 g     O .bss	00000004 GY21
0201057c g     O .bss	00000002 ejey_ma
02009ef8 g     F .text	00000098 __muldi3
02010580 g     O .bss	00000004 acel_x
02010584 g     O .bss	00000004 wy
02010588 g     O .bss	00000004 C_mag_z
0200e2dc g     F .text	00000074 strlen
0200cc00 g     F .text	00000050 epcs_write_enable
0200d8cc g     F .text	00000188 open
02009a20 g     F .text	00000088 __gedf2
020027f4 g     F .text	000000f0 S_7x1
0201058c g     O .bss	00000004 GY20
02003828 g     F .text	00000310 Config_PIDs
02010590 g     O .bss	00000004 GY33
02010594 g     O .bss	00000004 AC11
02010598 g     O .bss	00000004 offset_z
020028e4 g     F .text	000000b8 transp_7x1
020103d0 g     O .rwdata	00000004 alt_priority_mask
0200d438 g     F .text	0000009c alt_ic_irq_enable
0201059c g     O .bss	00000004 YAW
020105a0 g     O .bss	00000004 magn_z
020001fc g     F .text	00001b8c FiltroKalmanExtendido
0200c548 g     F .text	00000230 altera_avalon_uart_read
02009200 g     F .text	00000080 __subdf3
020105a4 g     O .bss	00000004 pitch_rad
020105a8 g     O .bss	00000004 alpha
020105ac g     O .bss	00000004 MA12
0200b418 g     F .text	0000008c alt_epcs_flash_read
020103f4 g     O .rwdata	00000008 alt_alarm_list
0200d250 g     F .text	00000064 _do_ctors
020105ec g     O .bss	00000004 sp_wz
02010724 g     O .bss	000000c4 F
02010644 g     O .bss	000000c4 P
020105b0 g     O .bss	00000004 C_acel_z
020105dc g     O .bss	00000004 sp_yaw
0200cfb4 g     F .text	000000fc close
02008930 g     F .text	00000064 __addsf3
020105b4 g     O .bss	00000004 offset_y
020105b8 g     O .bss	00000004 cos_roll
020105bc g     O .bss	00000004 y_h
02010e4c g     O .bss	00000048 PID_Wx
0200a30c g     F .text	00000314 __pack_d
00000000  w      *UND*	00000000 free
020105c0 g     O .bss	00000002 distancia
0200ccb4 g     F .text	000000d8 epcs_write_buffer



Disassembly of section .exceptions:

02000020 <alt_exception>:
 2000020:	deffed04 	addi	sp,sp,-76
 2000024:	dfc00015 	stw	ra,0(sp)
 2000028:	d8400215 	stw	at,8(sp)
 200002c:	d8800315 	stw	r2,12(sp)
 2000030:	d8c00415 	stw	r3,16(sp)
 2000034:	d9000515 	stw	r4,20(sp)
 2000038:	d9400615 	stw	r5,24(sp)
 200003c:	d9800715 	stw	r6,28(sp)
 2000040:	d9c00815 	stw	r7,32(sp)
 2000044:	000b307a 	rdctl	r5,estatus
 2000048:	da000915 	stw	r8,36(sp)
 200004c:	da400a15 	stw	r9,40(sp)
 2000050:	da800b15 	stw	r10,44(sp)
 2000054:	dac00c15 	stw	r11,48(sp)
 2000058:	db000d15 	stw	r12,52(sp)
 200005c:	db400e15 	stw	r13,56(sp)
 2000060:	db800f15 	stw	r14,60(sp)
 2000064:	dbc01015 	stw	r15,64(sp)
 2000068:	d9401115 	stw	r5,68(sp)
 200006c:	ebffff04 	addi	r15,ea,-4
 2000070:	dbc01215 	stw	r15,72(sp)
 2000074:	0009313a 	rdctl	r4,ipending
 2000078:	2880004c 	andi	r2,r5,1
 200007c:	10000326 	beq	r2,zero,200008c <alt_exception+0x6c>
 2000080:	20000226 	beq	r4,zero,200008c <alt_exception+0x6c>
 2000084:	20000ec0 	call	20000ec <alt_irq_handler>
 2000088:	00000306 	br	2000098 <alt_exception+0x78>
 200008c:	df401215 	stw	ea,72(sp)
 2000090:	e8bfff17 	ldw	r2,-4(ea)
 2000094:	003da03a 	break	0
 2000098:	d9401117 	ldw	r5,68(sp)
 200009c:	df401217 	ldw	ea,72(sp)
 20000a0:	dfc00017 	ldw	ra,0(sp)
 20000a4:	2801707a 	wrctl	estatus,r5
 20000a8:	d8400217 	ldw	at,8(sp)
 20000ac:	d8800317 	ldw	r2,12(sp)
 20000b0:	d8c00417 	ldw	r3,16(sp)
 20000b4:	d9000517 	ldw	r4,20(sp)
 20000b8:	d9400617 	ldw	r5,24(sp)
 20000bc:	d9800717 	ldw	r6,28(sp)
 20000c0:	d9c00817 	ldw	r7,32(sp)
 20000c4:	da000917 	ldw	r8,36(sp)
 20000c8:	da400a17 	ldw	r9,40(sp)
 20000cc:	da800b17 	ldw	r10,44(sp)
 20000d0:	dac00c17 	ldw	r11,48(sp)
 20000d4:	db000d17 	ldw	r12,52(sp)
 20000d8:	db400e17 	ldw	r13,56(sp)
 20000dc:	db800f17 	ldw	r14,60(sp)
 20000e0:	dbc01017 	ldw	r15,64(sp)
 20000e4:	dec01304 	addi	sp,sp,76
 20000e8:	ef80083a 	eret

020000ec <alt_irq_handler>:
 20000ec:	defff904 	addi	sp,sp,-28
 20000f0:	dfc00615 	stw	ra,24(sp)
 20000f4:	df000515 	stw	fp,20(sp)
 20000f8:	df000504 	addi	fp,sp,20
 20000fc:	0005313a 	rdctl	r2,ipending
 2000100:	e0bffc15 	stw	r2,-16(fp)
 2000104:	e0bffc17 	ldw	r2,-16(fp)
 2000108:	e0bfff15 	stw	r2,-4(fp)
 200010c:	e03ffd15 	stw	zero,-12(fp)
 2000110:	00800044 	movi	r2,1
 2000114:	e0bffe15 	stw	r2,-8(fp)
 2000118:	e0ffff17 	ldw	r3,-4(fp)
 200011c:	e0bffe17 	ldw	r2,-8(fp)
 2000120:	1884703a 	and	r2,r3,r2
 2000124:	1005003a 	cmpeq	r2,r2,zero
 2000128:	1000161e 	bne	r2,zero,2000184 <alt_irq_handler+0x98>
 200012c:	e0bffd17 	ldw	r2,-12(fp)
 2000130:	00c08074 	movhi	r3,513
 2000134:	18c3a504 	addi	r3,r3,3732
 2000138:	100490fa 	slli	r2,r2,3
 200013c:	10c5883a 	add	r2,r2,r3
 2000140:	11400017 	ldw	r5,0(r2)
 2000144:	e0bffd17 	ldw	r2,-12(fp)
 2000148:	00c08074 	movhi	r3,513
 200014c:	18c3a504 	addi	r3,r3,3732
 2000150:	100490fa 	slli	r2,r2,3
 2000154:	10c5883a 	add	r2,r2,r3
 2000158:	10800104 	addi	r2,r2,4
 200015c:	11000017 	ldw	r4,0(r2)
 2000160:	283ee83a 	callr	r5
 2000164:	0005313a 	rdctl	r2,ipending
 2000168:	e0bffb15 	stw	r2,-20(fp)
 200016c:	e0bffb17 	ldw	r2,-20(fp)
 2000170:	e0bfff15 	stw	r2,-4(fp)
 2000174:	e0bfff17 	ldw	r2,-4(fp)
 2000178:	1004c03a 	cmpne	r2,r2,zero
 200017c:	103fe31e 	bne	r2,zero,200010c <alt_irq_handler+0x20>
 2000180:	00000706 	br	20001a0 <alt_irq_handler+0xb4>
 2000184:	e0bffe17 	ldw	r2,-8(fp)
 2000188:	1085883a 	add	r2,r2,r2
 200018c:	e0bffe15 	stw	r2,-8(fp)
 2000190:	e0bffd17 	ldw	r2,-12(fp)
 2000194:	10800044 	addi	r2,r2,1
 2000198:	e0bffd15 	stw	r2,-12(fp)
 200019c:	003fde06 	br	2000118 <alt_irq_handler+0x2c>
 20001a0:	e037883a 	mov	sp,fp
 20001a4:	dfc00117 	ldw	ra,4(sp)
 20001a8:	df000017 	ldw	fp,0(sp)
 20001ac:	dec00204 	addi	sp,sp,8
 20001b0:	f800283a 	ret

Disassembly of section .text:

020001b4 <_start>:
 20001b4:	00840014 	movui	r2,4096
 20001b8:	10000033 	initd	0(r2)
 20001bc:	10bff804 	addi	r2,r2,-32
 20001c0:	00bffd16 	blt	zero,r2,20001b8 <_start+0x4>
 20001c4:	06c10034 	movhi	sp,1024
 20001c8:	dec00014 	ori	sp,sp,0
 20001cc:	06808074 	movhi	gp,513
 20001d0:	d6a0e414 	ori	gp,gp,33680
 20001d4:	00808074 	movhi	r2,513
 20001d8:	1080ff14 	ori	r2,r2,1020
 20001dc:	00c08074 	movhi	r3,513
 20001e0:	18c44914 	ori	r3,r3,4388
 20001e4:	10c00326 	beq	r2,r3,20001f4 <_start+0x40>
 20001e8:	10000015 	stw	zero,0(r2)
 20001ec:	10800104 	addi	r2,r2,4
 20001f0:	10fffd36 	bltu	r2,r3,20001e8 <_start+0x34>
 20001f4:	200a9f00 	call	200a9f0 <alt_main>

020001f8 <alt_after_alt_main>:
 20001f8:	003fff06 	br	20001f8 <alt_after_alt_main>

020001fc <FiltroKalmanExtendido>:
 20001fc:	defffc04 	addi	sp,sp,-16
 2000200:	dfc00315 	stw	ra,12(sp)
 2000204:	df000215 	stw	fp,8(sp)
 2000208:	dc400115 	stw	r17,4(sp)
 200020c:	dc000015 	stw	r16,0(sp)
 2000210:	d839883a 	mov	fp,sp
 2000214:	00810034 	movhi	r2,1024
 2000218:	10882c04 	addi	r2,r2,8368
 200021c:	10800037 	ldwio	r2,0(r2)
 2000220:	d0a0490d 	sth	r2,-32476(gp)
 2000224:	00810034 	movhi	r2,1024
 2000228:	10883004 	addi	r2,r2,8384
 200022c:	10800037 	ldwio	r2,0(r2)
 2000230:	d0a0730d 	sth	r2,-32308(gp)
 2000234:	00810034 	movhi	r2,1024
 2000238:	10883404 	addi	r2,r2,8400
 200023c:	10800037 	ldwio	r2,0(r2)
 2000240:	d0a0260d 	sth	r2,-32616(gp)
 2000244:	00810034 	movhi	r2,1024
 2000248:	10884404 	addi	r2,r2,8464
 200024c:	10800037 	ldwio	r2,0(r2)
 2000250:	d0a03d0d 	sth	r2,-32524(gp)
 2000254:	00810034 	movhi	r2,1024
 2000258:	10884804 	addi	r2,r2,8480
 200025c:	10800037 	ldwio	r2,0(r2)
 2000260:	d0a0600d 	sth	r2,-32384(gp)
 2000264:	00810034 	movhi	r2,1024
 2000268:	10884c04 	addi	r2,r2,8496
 200026c:	10800037 	ldwio	r2,0(r2)
 2000270:	d0a0290d 	sth	r2,-32604(gp)
 2000274:	00810034 	movhi	r2,1024
 2000278:	10883804 	addi	r2,r2,8416
 200027c:	10800037 	ldwio	r2,0(r2)
 2000280:	d0a0540d 	sth	r2,-32432(gp)
 2000284:	00810034 	movhi	r2,1024
 2000288:	10883c04 	addi	r2,r2,8432
 200028c:	10800037 	ldwio	r2,0(r2)
 2000290:	d0a07b0d 	sth	r2,-32276(gp)
 2000294:	00810034 	movhi	r2,1024
 2000298:	10884004 	addi	r2,r2,8448
 200029c:	10800037 	ldwio	r2,0(r2)
 20002a0:	d0a0498d 	sth	r2,-32474(gp)
 20002a4:	d0a0490b 	ldhu	r2,-32476(gp)
 20002a8:	113fffcc 	andi	r4,r2,65535
 20002ac:	2120001c 	xori	r4,r4,32768
 20002b0:	21200004 	addi	r4,r4,-32768
 20002b4:	2008c700 	call	2008c70 <__floatsisf>
 20002b8:	1007883a 	mov	r3,r2
 20002bc:	008ee034 	movhi	r2,15232
 20002c0:	1885ff32 	custom	252,r2,r3,r2
 20002c4:	d0a07c15 	stw	r2,-32272(gp)
 20002c8:	d0a0730b 	ldhu	r2,-32308(gp)
 20002cc:	113fffcc 	andi	r4,r2,65535
 20002d0:	2120001c 	xori	r4,r4,32768
 20002d4:	21200004 	addi	r4,r4,-32768
 20002d8:	2008c700 	call	2008c70 <__floatsisf>
 20002dc:	1007883a 	mov	r3,r2
 20002e0:	008ee034 	movhi	r2,15232
 20002e4:	1885ff32 	custom	252,r2,r3,r2
 20002e8:	d0a04615 	stw	r2,-32488(gp)
 20002ec:	d0a0260b 	ldhu	r2,-32616(gp)
 20002f0:	113fffcc 	andi	r4,r2,65535
 20002f4:	2120001c 	xori	r4,r4,32768
 20002f8:	21200004 	addi	r4,r4,-32768
 20002fc:	2008c700 	call	2008c70 <__floatsisf>
 2000300:	1007883a 	mov	r3,r2
 2000304:	008ee034 	movhi	r2,15232
 2000308:	1885ff32 	custom	252,r2,r3,r2
 200030c:	d0a06815 	stw	r2,-32352(gp)
 2000310:	d0a03d0b 	ldhu	r2,-32524(gp)
 2000314:	113fffcc 	andi	r4,r2,65535
 2000318:	2120001c 	xori	r4,r4,32768
 200031c:	21200004 	addi	r4,r4,-32768
 2000320:	2008c700 	call	2008c70 <__floatsisf>
 2000324:	1007883a 	mov	r3,r2
 2000328:	008f63b4 	movhi	r2,15758
 200032c:	109e0d44 	addi	r2,r2,30773
 2000330:	1885ff32 	custom	252,r2,r3,r2
 2000334:	d0a05a15 	stw	r2,-32408(gp)
 2000338:	d0a0600b 	ldhu	r2,-32384(gp)
 200033c:	113fffcc 	andi	r4,r2,65535
 2000340:	2120001c 	xori	r4,r4,32768
 2000344:	21200004 	addi	r4,r4,-32768
 2000348:	2008c700 	call	2008c70 <__floatsisf>
 200034c:	1007883a 	mov	r3,r2
 2000350:	008f63b4 	movhi	r2,15758
 2000354:	109e0d44 	addi	r2,r2,30773
 2000358:	1885ff32 	custom	252,r2,r3,r2
 200035c:	d0a03e15 	stw	r2,-32520(gp)
 2000360:	d0a0290b 	ldhu	r2,-32604(gp)
 2000364:	113fffcc 	andi	r4,r2,65535
 2000368:	2120001c 	xori	r4,r4,32768
 200036c:	21200004 	addi	r4,r4,-32768
 2000370:	2008c700 	call	2008c70 <__floatsisf>
 2000374:	1007883a 	mov	r3,r2
 2000378:	008f63b4 	movhi	r2,15758
 200037c:	109e0d44 	addi	r2,r2,30773
 2000380:	1885ff32 	custom	252,r2,r3,r2
 2000384:	d0a06215 	stw	r2,-32376(gp)
 2000388:	d0a0540b 	ldhu	r2,-32432(gp)
 200038c:	113fffcc 	andi	r4,r2,65535
 2000390:	2120001c 	xori	r4,r4,32768
 2000394:	21200004 	addi	r4,r4,-32768
 2000398:	2008c700 	call	2008c70 <__floatsisf>
 200039c:	1007883a 	mov	r3,r2
 20003a0:	008e9c34 	movhi	r2,14960
 20003a4:	109ff104 	addi	r2,r2,32708
 20003a8:	1885ff32 	custom	252,r2,r3,r2
 20003ac:	d0a04b15 	stw	r2,-32468(gp)
 20003b0:	d0a07b0b 	ldhu	r2,-32276(gp)
 20003b4:	113fffcc 	andi	r4,r2,65535
 20003b8:	2120001c 	xori	r4,r4,32768
 20003bc:	21200004 	addi	r4,r4,-32768
 20003c0:	2008c700 	call	2008c70 <__floatsisf>
 20003c4:	1007883a 	mov	r3,r2
 20003c8:	008e9c34 	movhi	r2,14960
 20003cc:	109ff104 	addi	r2,r2,32708
 20003d0:	1885ff32 	custom	252,r2,r3,r2
 20003d4:	d0a07615 	stw	r2,-32296(gp)
 20003d8:	d0a0498b 	ldhu	r2,-32474(gp)
 20003dc:	113fffcc 	andi	r4,r2,65535
 20003e0:	2120001c 	xori	r4,r4,32768
 20003e4:	21200004 	addi	r4,r4,-32768
 20003e8:	2008c700 	call	2008c70 <__floatsisf>
 20003ec:	1007883a 	mov	r3,r2
 20003f0:	008e9c34 	movhi	r2,14960
 20003f4:	109ff104 	addi	r2,r2,32708
 20003f8:	1885ff32 	custom	252,r2,r3,r2
 20003fc:	d0a08415 	stw	r2,-32240(gp)
 2000400:	008fdf34 	movhi	r2,16252
 2000404:	1098fc44 	addi	r2,r2,25585
 2000408:	d0a08115 	stw	r2,-32252(gp)
 200040c:	00af1ab4 	movhi	r2,48234
 2000410:	1092a304 	addi	r2,r2,19084
 2000414:	d0a02f15 	stw	r2,-32580(gp)
 2000418:	008f0e34 	movhi	r2,15416
 200041c:	10a00d04 	addi	r2,r2,-32716
 2000420:	d0a02815 	stw	r2,-32608(gp)
 2000424:	00af2234 	movhi	r2,48264
 2000428:	10bf2e44 	addi	r2,r2,-839
 200042c:	d0a05615 	stw	r2,-32424(gp)
 2000430:	00afddb4 	movhi	r2,49014
 2000434:	10bdbf44 	addi	r2,r2,-2307
 2000438:	d0a07115 	stw	r2,-32316(gp)
 200043c:	00aee874 	movhi	r2,48033
 2000440:	10a40b84 	addi	r2,r2,-28626
 2000444:	d0a06515 	stw	r2,-32364(gp)
 2000448:	00aec5f4 	movhi	r2,47895
 200044c:	10aee644 	addi	r2,r2,-17511
 2000450:	d0a03615 	stw	r2,-32552(gp)
 2000454:	008f0f34 	movhi	r2,15420
 2000458:	109a9fc4 	addi	r2,r2,27263
 200045c:	d0a04d15 	stw	r2,-32460(gp)
 2000460:	008fe074 	movhi	r2,16257
 2000464:	10b61144 	addi	r2,r2,-10171
 2000468:	d0a02d15 	stw	r2,-32588(gp)
 200046c:	00af2874 	movhi	r2,48289
 2000470:	10987944 	addi	r2,r2,25061
 2000474:	d0a03715 	stw	r2,-32548(gp)
 2000478:	00aede74 	movhi	r2,47993
 200047c:	10825b04 	addi	r2,r2,2412
 2000480:	d0a03c15 	stw	r2,-32528(gp)
 2000484:	008f81b4 	movhi	r2,15878
 2000488:	10a1e504 	addi	r2,r2,-30828
 200048c:	d0a04715 	stw	r2,-32484(gp)
 2000490:	d0e08117 	ldw	r3,-32252(gp)
 2000494:	d0a07c17 	ldw	r2,-32272(gp)
 2000498:	1889ff32 	custom	252,r4,r3,r2
 200049c:	d0e05617 	ldw	r3,-32424(gp)
 20004a0:	d0a04617 	ldw	r2,-32488(gp)
 20004a4:	1885ff32 	custom	252,r2,r3,r2
 20004a8:	2089ff72 	custom	253,r4,r4,r2
 20004ac:	d0e03617 	ldw	r3,-32552(gp)
 20004b0:	d0a06817 	ldw	r2,-32352(gp)
 20004b4:	1885ff32 	custom	252,r2,r3,r2
 20004b8:	2087ff72 	custom	253,r3,r4,r2
 20004bc:	d0a03717 	ldw	r2,-32548(gp)
 20004c0:	1885ff72 	custom	253,r2,r3,r2
 20004c4:	d0a06d15 	stw	r2,-32332(gp)
 20004c8:	d0e02f17 	ldw	r3,-32580(gp)
 20004cc:	d0a07c17 	ldw	r2,-32272(gp)
 20004d0:	1889ff32 	custom	252,r4,r3,r2
 20004d4:	d0e07117 	ldw	r3,-32316(gp)
 20004d8:	d0a04617 	ldw	r2,-32488(gp)
 20004dc:	1885ff32 	custom	252,r2,r3,r2
 20004e0:	2089ff72 	custom	253,r4,r4,r2
 20004e4:	d0e04d17 	ldw	r3,-32460(gp)
 20004e8:	d0a06817 	ldw	r2,-32352(gp)
 20004ec:	1885ff32 	custom	252,r2,r3,r2
 20004f0:	2087ff72 	custom	253,r3,r4,r2
 20004f4:	d0a03c17 	ldw	r2,-32528(gp)
 20004f8:	1885ff72 	custom	253,r2,r3,r2
 20004fc:	d0a05b15 	stw	r2,-32404(gp)
 2000500:	d0e02817 	ldw	r3,-32608(gp)
 2000504:	d0a07c17 	ldw	r2,-32272(gp)
 2000508:	1889ff32 	custom	252,r4,r3,r2
 200050c:	d0e06517 	ldw	r3,-32364(gp)
 2000510:	d0a04617 	ldw	r2,-32488(gp)
 2000514:	1885ff32 	custom	252,r2,r3,r2
 2000518:	2089ff72 	custom	253,r4,r4,r2
 200051c:	d0e02d17 	ldw	r3,-32588(gp)
 2000520:	d0a06817 	ldw	r2,-32352(gp)
 2000524:	1885ff32 	custom	252,r2,r3,r2
 2000528:	2087ff72 	custom	253,r3,r4,r2
 200052c:	d0a04717 	ldw	r2,-32484(gp)
 2000530:	1885ff72 	custom	253,r2,r3,r2
 2000534:	d0a08815 	stw	r2,-32224(gp)
 2000538:	00b06c34 	movhi	r2,49584
 200053c:	d0a05715 	stw	r2,-32420(gp)
 2000540:	00b08434 	movhi	r2,49680
 2000544:	d0a08915 	stw	r2,-32220(gp)
 2000548:	00b0a134 	movhi	r2,49796
 200054c:	d0a08215 	stw	r2,-32248(gp)
 2000550:	d0e05717 	ldw	r3,-32420(gp)
 2000554:	00af63b4 	movhi	r2,48526
 2000558:	109e0d44 	addi	r2,r2,30773
 200055c:	1887ff32 	custom	252,r3,r3,r2
 2000560:	d0a05a17 	ldw	r2,-32408(gp)
 2000564:	1885ff72 	custom	253,r2,r3,r2
 2000568:	d0a05a15 	stw	r2,-32408(gp)
 200056c:	d0e08917 	ldw	r3,-32220(gp)
 2000570:	00af63b4 	movhi	r2,48526
 2000574:	109e0d44 	addi	r2,r2,30773
 2000578:	1887ff32 	custom	252,r3,r3,r2
 200057c:	d0a03e17 	ldw	r2,-32520(gp)
 2000580:	1885ff72 	custom	253,r2,r3,r2
 2000584:	d0a03e15 	stw	r2,-32520(gp)
 2000588:	d0e08217 	ldw	r3,-32248(gp)
 200058c:	00af63b4 	movhi	r2,48526
 2000590:	109e0d44 	addi	r2,r2,30773
 2000594:	1887ff32 	custom	252,r3,r3,r2
 2000598:	d0a06217 	ldw	r2,-32376(gp)
 200059c:	1885ff72 	custom	253,r2,r3,r2
 20005a0:	d0a06215 	stw	r2,-32376(gp)
 20005a4:	00afe0f4 	movhi	r2,49027
 20005a8:	10849bc4 	addi	r2,r2,4719
 20005ac:	d0a02415 	stw	r2,-32624(gp)
 20005b0:	008f58b4 	movhi	r2,15714
 20005b4:	10ac2284 	addi	r2,r2,-20342
 20005b8:	d0a07a15 	stw	r2,-32280(gp)
 20005bc:	00af2574 	movhi	r2,48277
 20005c0:	10860ac4 	addi	r2,r2,6187
 20005c4:	d0a04c15 	stw	r2,-32464(gp)
 20005c8:	008f2eb4 	movhi	r2,15546
 20005cc:	10bd5684 	addi	r2,r2,-2726
 20005d0:	d0a02715 	stw	r2,-32612(gp)
 20005d4:	008fe074 	movhi	r2,16257
 20005d8:	109d6384 	addi	r2,r2,30094
 20005dc:	d0a04f15 	stw	r2,-32452(gp)
 20005e0:	00aef074 	movhi	r2,48065
 20005e4:	10953284 	addi	r2,r2,21706
 20005e8:	d0a03a15 	stw	r2,-32536(gp)
 20005ec:	00af2ff4 	movhi	r2,48319
 20005f0:	10b7e904 	addi	r2,r2,-8284
 20005f4:	d0a05e15 	stw	r2,-32392(gp)
 20005f8:	008f40f4 	movhi	r2,15619
 20005fc:	10aa64c4 	addi	r2,r2,-22125
 2000600:	d0a02c15 	stw	r2,-32592(gp)
 2000604:	00afe074 	movhi	r2,49025
 2000608:	10953284 	addi	r2,r2,21706
 200060c:	d0a08015 	stw	r2,-32256(gp)
 2000610:	00afa874 	movhi	r2,48801
 2000614:	10aa9944 	addi	r2,r2,-21915
 2000618:	d0a04515 	stw	r2,-32492(gp)
 200061c:	00af77f4 	movhi	r2,48607
 2000620:	108ed904 	addi	r2,r2,15204
 2000624:	d0a07f15 	stw	r2,-32260(gp)
 2000628:	008fac34 	movhi	r2,16048
 200062c:	109205c4 	addi	r2,r2,18455
 2000630:	d0a07715 	stw	r2,-32292(gp)
 2000634:	d0e02417 	ldw	r3,-32624(gp)
 2000638:	d0a05a17 	ldw	r2,-32408(gp)
 200063c:	1889ff32 	custom	252,r4,r3,r2
 2000640:	d0e02717 	ldw	r3,-32612(gp)
 2000644:	d0a03e17 	ldw	r2,-32520(gp)
 2000648:	1885ff32 	custom	252,r2,r3,r2
 200064c:	2089ff72 	custom	253,r4,r4,r2
 2000650:	d0e05e17 	ldw	r3,-32392(gp)
 2000654:	d0a06217 	ldw	r2,-32376(gp)
 2000658:	1885ff32 	custom	252,r2,r3,r2
 200065c:	2087ff72 	custom	253,r3,r4,r2
 2000660:	d0a04517 	ldw	r2,-32492(gp)
 2000664:	1885ff72 	custom	253,r2,r3,r2
 2000668:	d0a07015 	stw	r2,-32320(gp)
 200066c:	d0e07a17 	ldw	r3,-32280(gp)
 2000670:	d0a05a17 	ldw	r2,-32408(gp)
 2000674:	1889ff32 	custom	252,r4,r3,r2
 2000678:	d0e04f17 	ldw	r3,-32452(gp)
 200067c:	d0a03e17 	ldw	r2,-32520(gp)
 2000680:	1885ff32 	custom	252,r2,r3,r2
 2000684:	2089ff72 	custom	253,r4,r4,r2
 2000688:	d0e02c17 	ldw	r3,-32592(gp)
 200068c:	d0a06217 	ldw	r2,-32376(gp)
 2000690:	1885ff32 	custom	252,r2,r3,r2
 2000694:	2087ff72 	custom	253,r3,r4,r2
 2000698:	d0a07f17 	ldw	r2,-32260(gp)
 200069c:	1885ff72 	custom	253,r2,r3,r2
 20006a0:	d0a06c15 	stw	r2,-32336(gp)
 20006a4:	d0e04c17 	ldw	r3,-32464(gp)
 20006a8:	d0a05a17 	ldw	r2,-32408(gp)
 20006ac:	1889ff32 	custom	252,r4,r3,r2
 20006b0:	d0e03a17 	ldw	r3,-32536(gp)
 20006b4:	d0a03e17 	ldw	r2,-32520(gp)
 20006b8:	1885ff32 	custom	252,r2,r3,r2
 20006bc:	2089ff72 	custom	253,r4,r4,r2
 20006c0:	d0e08017 	ldw	r3,-32256(gp)
 20006c4:	d0a06217 	ldw	r2,-32376(gp)
 20006c8:	1885ff32 	custom	252,r2,r3,r2
 20006cc:	2087ff72 	custom	253,r3,r4,r2
 20006d0:	d0a07717 	ldw	r2,-32292(gp)
 20006d4:	1885ff72 	custom	253,r2,r3,r2
 20006d8:	d0a04815 	stw	r2,-32480(gp)
 20006dc:	d0a04b17 	ldw	r2,-32468(gp)
 20006e0:	10a0003c 	xorhi	r2,r2,32768
 20006e4:	d0a04b15 	stw	r2,-32468(gp)
 20006e8:	d0a08417 	ldw	r2,-32240(gp)
 20006ec:	10a0003c 	xorhi	r2,r2,32768
 20006f0:	d0a08415 	stw	r2,-32240(gp)
 20006f4:	d0a04b17 	ldw	r2,-32468(gp)
 20006f8:	1009883a 	mov	r4,r2
 20006fc:	014fa034 	movhi	r5,16000
 2000700:	20089940 	call	2008994 <__divsf3>
 2000704:	d0a04b15 	stw	r2,-32468(gp)
 2000708:	d0a07617 	ldw	r2,-32296(gp)
 200070c:	1009883a 	mov	r4,r2
 2000710:	014fa034 	movhi	r5,16000
 2000714:	20089940 	call	2008994 <__divsf3>
 2000718:	d0a07615 	stw	r2,-32296(gp)
 200071c:	d0a08417 	ldw	r2,-32240(gp)
 2000720:	1009883a 	mov	r4,r2
 2000724:	014fa034 	movhi	r5,16000
 2000728:	20089940 	call	2008994 <__divsf3>
 200072c:	d0a08415 	stw	r2,-32240(gp)
 2000730:	008f64f4 	movhi	r2,15763
 2000734:	1099e504 	addi	r2,r2,26516
 2000738:	d0a07815 	stw	r2,-32288(gp)
 200073c:	00afb4f4 	movhi	r2,48851
 2000740:	10be2f84 	addi	r2,r2,-1858
 2000744:	d0a05115 	stw	r2,-32444(gp)
 2000748:	00af7574 	movhi	r2,48597
 200074c:	10bd6404 	addi	r2,r2,-2672
 2000750:	d0a03015 	stw	r2,-32576(gp)
 2000754:	d0e04b17 	ldw	r3,-32468(gp)
 2000758:	d0a07817 	ldw	r2,-32288(gp)
 200075c:	1885ffb2 	custom	254,r2,r3,r2
 2000760:	d0a03315 	stw	r2,-32564(gp)
 2000764:	d0e07617 	ldw	r3,-32296(gp)
 2000768:	d0a05117 	ldw	r2,-32444(gp)
 200076c:	1885ffb2 	custom	254,r2,r3,r2
 2000770:	d0a05015 	stw	r2,-32448(gp)
 2000774:	d0e08417 	ldw	r3,-32240(gp)
 2000778:	d0a03017 	ldw	r2,-32576(gp)
 200077c:	1885ffb2 	custom	254,r2,r3,r2
 2000780:	d0a04e15 	stw	r2,-32456(gp)
 2000784:	008fdab4 	movhi	r2,16234
 2000788:	10ac9c04 	addi	r2,r2,-19856
 200078c:	d0a03b15 	stw	r2,-32532(gp)
 2000790:	008efc34 	movhi	r2,15344
 2000794:	1093ed04 	addi	r2,r2,20404
 2000798:	d0a08715 	stw	r2,-32228(gp)
 200079c:	008f2a74 	movhi	r2,15529
 20007a0:	1089eb04 	addi	r2,r2,10156
 20007a4:	d0a05515 	stw	r2,-32428(gp)
 20007a8:	008efc34 	movhi	r2,15344
 20007ac:	1093ed04 	addi	r2,r2,20404
 20007b0:	d0a02a15 	stw	r2,-32600(gp)
 20007b4:	008fdb34 	movhi	r2,16236
 20007b8:	10b51f04 	addi	r2,r2,-11140
 20007bc:	d0a02e15 	stw	r2,-32584(gp)
 20007c0:	008ef534 	movhi	r2,15316
 20007c4:	1094f544 	addi	r2,r2,21461
 20007c8:	d0a06b15 	stw	r2,-32340(gp)
 20007cc:	008f2a74 	movhi	r2,15529
 20007d0:	1089eb04 	addi	r2,r2,10156
 20007d4:	d0a06615 	stw	r2,-32360(gp)
 20007d8:	008ef534 	movhi	r2,15316
 20007dc:	1094f544 	addi	r2,r2,21461
 20007e0:	d0a04215 	stw	r2,-32504(gp)
 20007e4:	008fdff4 	movhi	r2,16255
 20007e8:	10a1a944 	addi	r2,r2,-31067
 20007ec:	d0a02b15 	stw	r2,-32596(gp)
 20007f0:	d0e03b17 	ldw	r3,-32532(gp)
 20007f4:	d0a03317 	ldw	r2,-32564(gp)
 20007f8:	1889ff32 	custom	252,r4,r3,r2
 20007fc:	d0e08717 	ldw	r3,-32228(gp)
 2000800:	d0a05017 	ldw	r2,-32448(gp)
 2000804:	1885ff32 	custom	252,r2,r3,r2
 2000808:	2089ff72 	custom	253,r4,r4,r2
 200080c:	d0e05517 	ldw	r3,-32428(gp)
 2000810:	d0a04e17 	ldw	r2,-32456(gp)
 2000814:	1885ff32 	custom	252,r2,r3,r2
 2000818:	2085ff72 	custom	253,r2,r4,r2
 200081c:	d0a06115 	stw	r2,-32380(gp)
 2000820:	d0e02a17 	ldw	r3,-32600(gp)
 2000824:	d0a03317 	ldw	r2,-32564(gp)
 2000828:	1889ff32 	custom	252,r4,r3,r2
 200082c:	d0e02e17 	ldw	r3,-32584(gp)
 2000830:	d0a05017 	ldw	r2,-32448(gp)
 2000834:	1885ff32 	custom	252,r2,r3,r2
 2000838:	2089ff72 	custom	253,r4,r4,r2
 200083c:	d0e06b17 	ldw	r3,-32340(gp)
 2000840:	d0a04e17 	ldw	r2,-32456(gp)
 2000844:	1885ff32 	custom	252,r2,r3,r2
 2000848:	2085ff72 	custom	253,r2,r4,r2
 200084c:	d0a07415 	stw	r2,-32304(gp)
 2000850:	d0e06617 	ldw	r3,-32360(gp)
 2000854:	d0a03317 	ldw	r2,-32564(gp)
 2000858:	1889ff32 	custom	252,r4,r3,r2
 200085c:	d0e04217 	ldw	r3,-32504(gp)
 2000860:	d0a05017 	ldw	r2,-32448(gp)
 2000864:	1885ff32 	custom	252,r2,r3,r2
 2000868:	2089ff72 	custom	253,r4,r4,r2
 200086c:	d0e02b17 	ldw	r3,-32596(gp)
 2000870:	d0a04e17 	ldw	r2,-32456(gp)
 2000874:	1885ff32 	custom	252,r2,r3,r2
 2000878:	2085ff72 	custom	253,r2,r4,r2
 200087c:	d0a07e15 	stw	r2,-32264(gp)
 2000880:	d0a01d17 	ldw	r2,-32652(gp)
 2000884:	1004c03a 	cmpne	r2,r2,zero
 2000888:	1000291e 	bne	r2,zero,2000930 <FiltroKalmanExtendido+0x734>
 200088c:	00c08074 	movhi	r3,513
 2000890:	18c19104 	addi	r3,r3,1604
 2000894:	008ea0f4 	movhi	r2,14979
 2000898:	10849bc4 	addi	r2,r2,4719
 200089c:	18800015 	stw	r2,0(r3)
 20008a0:	00c08074 	movhi	r3,513
 20008a4:	18c19104 	addi	r3,r3,1604
 20008a8:	008ea0f4 	movhi	r2,14979
 20008ac:	10849bc4 	addi	r2,r2,4719
 20008b0:	18800815 	stw	r2,32(r3)
 20008b4:	00c08074 	movhi	r3,513
 20008b8:	18c19104 	addi	r3,r3,1604
 20008bc:	008ea0f4 	movhi	r2,14979
 20008c0:	10849bc4 	addi	r2,r2,4719
 20008c4:	18801015 	stw	r2,64(r3)
 20008c8:	00c08074 	movhi	r3,513
 20008cc:	18c19104 	addi	r3,r3,1604
 20008d0:	008ea0f4 	movhi	r2,14979
 20008d4:	10849bc4 	addi	r2,r2,4719
 20008d8:	18801815 	stw	r2,96(r3)
 20008dc:	00c08074 	movhi	r3,513
 20008e0:	18c19104 	addi	r3,r3,1604
 20008e4:	008ea0f4 	movhi	r2,14979
 20008e8:	10849bc4 	addi	r2,r2,4719
 20008ec:	18802015 	stw	r2,128(r3)
 20008f0:	00c08074 	movhi	r3,513
 20008f4:	18c19104 	addi	r3,r3,1604
 20008f8:	008ea0f4 	movhi	r2,14979
 20008fc:	10849bc4 	addi	r2,r2,4719
 2000900:	18802815 	stw	r2,160(r3)
 2000904:	00c08074 	movhi	r3,513
 2000908:	18c19104 	addi	r3,r3,1604
 200090c:	008ea0f4 	movhi	r2,14979
 2000910:	10849bc4 	addi	r2,r2,4719
 2000914:	18803015 	stw	r2,192(r3)
 2000918:	00c08074 	movhi	r3,513
 200091c:	18c1c204 	addi	r3,r3,1800
 2000920:	008fe034 	movhi	r2,16256
 2000924:	18800015 	stw	r2,0(r3)
 2000928:	00800044 	movi	r2,1
 200092c:	d0a01d15 	stw	r2,-32652(gp)
 2000930:	00808074 	movhi	r2,513
 2000934:	1081c204 	addi	r2,r2,1800
 2000938:	10800017 	ldw	r2,0(r2)
 200093c:	d0a06415 	stw	r2,-32368(gp)
 2000940:	00808074 	movhi	r2,513
 2000944:	1081c204 	addi	r2,r2,1800
 2000948:	10800117 	ldw	r2,4(r2)
 200094c:	d0a03f15 	stw	r2,-32516(gp)
 2000950:	00808074 	movhi	r2,513
 2000954:	1081c204 	addi	r2,r2,1800
 2000958:	10800217 	ldw	r2,8(r2)
 200095c:	d0a06315 	stw	r2,-32372(gp)
 2000960:	00808074 	movhi	r2,513
 2000964:	1081c204 	addi	r2,r2,1800
 2000968:	10800317 	ldw	r2,12(r2)
 200096c:	d0a05915 	stw	r2,-32412(gp)
 2000970:	00808074 	movhi	r2,513
 2000974:	1081c204 	addi	r2,r2,1800
 2000978:	10800417 	ldw	r2,16(r2)
 200097c:	d0a03915 	stw	r2,-32540(gp)
 2000980:	00808074 	movhi	r2,513
 2000984:	1081c204 	addi	r2,r2,1800
 2000988:	10800517 	ldw	r2,20(r2)
 200098c:	d0a02315 	stw	r2,-32628(gp)
 2000990:	00808074 	movhi	r2,513
 2000994:	1081c204 	addi	r2,r2,1800
 2000998:	10800617 	ldw	r2,24(r2)
 200099c:	d0a04315 	stw	r2,-32500(gp)
 20009a0:	d0e07017 	ldw	r3,-32320(gp)
 20009a4:	008f23f4 	movhi	r2,15503
 20009a8:	10be8d44 	addi	r2,r2,-1483
 20009ac:	1885ff32 	custom	252,r2,r3,r2
 20009b0:	d0a03415 	stw	r2,-32560(gp)
 20009b4:	d0e06c17 	ldw	r3,-32336(gp)
 20009b8:	008f23f4 	movhi	r2,15503
 20009bc:	10be8d44 	addi	r2,r2,-1483
 20009c0:	1885ff32 	custom	252,r2,r3,r2
 20009c4:	d0a07d15 	stw	r2,-32268(gp)
 20009c8:	d0e04817 	ldw	r3,-32480(gp)
 20009cc:	008f23f4 	movhi	r2,15503
 20009d0:	10be8d44 	addi	r2,r2,-1483
 20009d4:	1885ff32 	custom	252,r2,r3,r2
 20009d8:	d0a02515 	stw	r2,-32620(gp)
 20009dc:	d0a03f17 	ldw	r2,-32516(gp)
 20009e0:	1120003c 	xorhi	r4,r2,32768
 20009e4:	d0e03417 	ldw	r3,-32560(gp)
 20009e8:	d0a03917 	ldw	r2,-32540(gp)
 20009ec:	1885ffb2 	custom	254,r2,r3,r2
 20009f0:	2089ff32 	custom	252,r4,r4,r2
 20009f4:	d0e07d17 	ldw	r3,-32268(gp)
 20009f8:	d0a02317 	ldw	r2,-32628(gp)
 20009fc:	1887ffb2 	custom	254,r3,r3,r2
 2000a00:	d0a06317 	ldw	r2,-32372(gp)
 2000a04:	1885ff32 	custom	252,r2,r3,r2
 2000a08:	2089ffb2 	custom	254,r4,r4,r2
 2000a0c:	d0e02517 	ldw	r3,-32620(gp)
 2000a10:	d0a04317 	ldw	r2,-32500(gp)
 2000a14:	1887ffb2 	custom	254,r3,r3,r2
 2000a18:	d0a05917 	ldw	r2,-32412(gp)
 2000a1c:	1885ff32 	custom	252,r2,r3,r2
 2000a20:	2087ffb2 	custom	254,r3,r4,r2
 2000a24:	008ed974 	movhi	r2,15205
 2000a28:	10981084 	addi	r2,r2,24642
 2000a2c:	1887ff32 	custom	252,r3,r3,r2
 2000a30:	d0a06417 	ldw	r2,-32368(gp)
 2000a34:	1887ff72 	custom	253,r3,r3,r2
 2000a38:	00808074 	movhi	r2,513
 2000a3c:	1081c204 	addi	r2,r2,1800
 2000a40:	10c00015 	stw	r3,0(r2)
 2000a44:	d0e03417 	ldw	r3,-32560(gp)
 2000a48:	d0a03917 	ldw	r2,-32540(gp)
 2000a4c:	1887ffb2 	custom	254,r3,r3,r2
 2000a50:	d0a06417 	ldw	r2,-32368(gp)
 2000a54:	1889ff32 	custom	252,r4,r3,r2
 2000a58:	d0e02517 	ldw	r3,-32620(gp)
 2000a5c:	d0a04317 	ldw	r2,-32500(gp)
 2000a60:	1887ffb2 	custom	254,r3,r3,r2
 2000a64:	d0a06317 	ldw	r2,-32372(gp)
 2000a68:	1885ff32 	custom	252,r2,r3,r2
 2000a6c:	2089ff72 	custom	253,r4,r4,r2
 2000a70:	d0e07d17 	ldw	r3,-32268(gp)
 2000a74:	d0a02317 	ldw	r2,-32628(gp)
 2000a78:	1887ffb2 	custom	254,r3,r3,r2
 2000a7c:	d0a05917 	ldw	r2,-32412(gp)
 2000a80:	1885ff32 	custom	252,r2,r3,r2
 2000a84:	2087ffb2 	custom	254,r3,r4,r2
 2000a88:	008ed974 	movhi	r2,15205
 2000a8c:	10981084 	addi	r2,r2,24642
 2000a90:	1887ff32 	custom	252,r3,r3,r2
 2000a94:	d0a03f17 	ldw	r2,-32516(gp)
 2000a98:	1887ff72 	custom	253,r3,r3,r2
 2000a9c:	00808074 	movhi	r2,513
 2000aa0:	1081c204 	addi	r2,r2,1800
 2000aa4:	10c00115 	stw	r3,4(r2)
 2000aa8:	d0e07d17 	ldw	r3,-32268(gp)
 2000aac:	d0a02317 	ldw	r2,-32628(gp)
 2000ab0:	1887ffb2 	custom	254,r3,r3,r2
 2000ab4:	d0a06417 	ldw	r2,-32368(gp)
 2000ab8:	1889ff32 	custom	252,r4,r3,r2
 2000abc:	d0e02517 	ldw	r3,-32620(gp)
 2000ac0:	d0a04317 	ldw	r2,-32500(gp)
 2000ac4:	1887ffb2 	custom	254,r3,r3,r2
 2000ac8:	d0a03f17 	ldw	r2,-32516(gp)
 2000acc:	1885ff32 	custom	252,r2,r3,r2
 2000ad0:	2089ffb2 	custom	254,r4,r4,r2
 2000ad4:	d0e03417 	ldw	r3,-32560(gp)
 2000ad8:	d0a03917 	ldw	r2,-32540(gp)
 2000adc:	1887ffb2 	custom	254,r3,r3,r2
 2000ae0:	d0a05917 	ldw	r2,-32412(gp)
 2000ae4:	1885ff32 	custom	252,r2,r3,r2
 2000ae8:	2087ff72 	custom	253,r3,r4,r2
 2000aec:	008ed974 	movhi	r2,15205
 2000af0:	10981084 	addi	r2,r2,24642
 2000af4:	1887ff32 	custom	252,r3,r3,r2
 2000af8:	d0a06317 	ldw	r2,-32372(gp)
 2000afc:	1887ff72 	custom	253,r3,r3,r2
 2000b00:	00808074 	movhi	r2,513
 2000b04:	1081c204 	addi	r2,r2,1800
 2000b08:	10c00215 	stw	r3,8(r2)
 2000b0c:	d0e02517 	ldw	r3,-32620(gp)
 2000b10:	d0a04317 	ldw	r2,-32500(gp)
 2000b14:	1887ffb2 	custom	254,r3,r3,r2
 2000b18:	d0a06417 	ldw	r2,-32368(gp)
 2000b1c:	1889ff32 	custom	252,r4,r3,r2
 2000b20:	d0e07d17 	ldw	r3,-32268(gp)
 2000b24:	d0a02317 	ldw	r2,-32628(gp)
 2000b28:	1887ffb2 	custom	254,r3,r3,r2
 2000b2c:	d0a03f17 	ldw	r2,-32516(gp)
 2000b30:	1885ff32 	custom	252,r2,r3,r2
 2000b34:	2089ff72 	custom	253,r4,r4,r2
 2000b38:	d0e03417 	ldw	r3,-32560(gp)
 2000b3c:	d0a03917 	ldw	r2,-32540(gp)
 2000b40:	1887ffb2 	custom	254,r3,r3,r2
 2000b44:	d0a06317 	ldw	r2,-32372(gp)
 2000b48:	1885ff32 	custom	252,r2,r3,r2
 2000b4c:	2087ffb2 	custom	254,r3,r4,r2
 2000b50:	008ed974 	movhi	r2,15205
 2000b54:	10981084 	addi	r2,r2,24642
 2000b58:	1887ff32 	custom	252,r3,r3,r2
 2000b5c:	d0a05917 	ldw	r2,-32412(gp)
 2000b60:	1887ff72 	custom	253,r3,r3,r2
 2000b64:	00808074 	movhi	r2,513
 2000b68:	1081c204 	addi	r2,r2,1800
 2000b6c:	10c00315 	stw	r3,12(r2)
 2000b70:	d0e03917 	ldw	r3,-32540(gp)
 2000b74:	00808074 	movhi	r2,513
 2000b78:	1081c204 	addi	r2,r2,1800
 2000b7c:	10c00415 	stw	r3,16(r2)
 2000b80:	d0e02317 	ldw	r3,-32628(gp)
 2000b84:	00808074 	movhi	r2,513
 2000b88:	1081c204 	addi	r2,r2,1800
 2000b8c:	10c00515 	stw	r3,20(r2)
 2000b90:	d0e04317 	ldw	r3,-32500(gp)
 2000b94:	00808074 	movhi	r2,513
 2000b98:	1081c204 	addi	r2,r2,1800
 2000b9c:	10c00615 	stw	r3,24(r2)
 2000ba0:	00808074 	movhi	r2,513
 2000ba4:	1081c204 	addi	r2,r2,1800
 2000ba8:	10c00017 	ldw	r3,0(r2)
 2000bac:	00808074 	movhi	r2,513
 2000bb0:	1081c204 	addi	r2,r2,1800
 2000bb4:	10800017 	ldw	r2,0(r2)
 2000bb8:	1889ff32 	custom	252,r4,r3,r2
 2000bbc:	00808074 	movhi	r2,513
 2000bc0:	1081c204 	addi	r2,r2,1800
 2000bc4:	10c00117 	ldw	r3,4(r2)
 2000bc8:	00808074 	movhi	r2,513
 2000bcc:	1081c204 	addi	r2,r2,1800
 2000bd0:	10800117 	ldw	r2,4(r2)
 2000bd4:	1885ff32 	custom	252,r2,r3,r2
 2000bd8:	2089ff72 	custom	253,r4,r4,r2
 2000bdc:	00808074 	movhi	r2,513
 2000be0:	1081c204 	addi	r2,r2,1800
 2000be4:	10c00217 	ldw	r3,8(r2)
 2000be8:	00808074 	movhi	r2,513
 2000bec:	1081c204 	addi	r2,r2,1800
 2000bf0:	10800217 	ldw	r2,8(r2)
 2000bf4:	1885ff32 	custom	252,r2,r3,r2
 2000bf8:	2089ff72 	custom	253,r4,r4,r2
 2000bfc:	00808074 	movhi	r2,513
 2000c00:	1081c204 	addi	r2,r2,1800
 2000c04:	10c00317 	ldw	r3,12(r2)
 2000c08:	00808074 	movhi	r2,513
 2000c0c:	1081c204 	addi	r2,r2,1800
 2000c10:	10800317 	ldw	r2,12(r2)
 2000c14:	1885ff32 	custom	252,r2,r3,r2
 2000c18:	2085ff72 	custom	253,r2,r4,r2
 2000c1c:	1009883a 	mov	r4,r2
 2000c20:	2008d9c0 	call	2008d9c <__extendsfdf2>
 2000c24:	100b883a 	mov	r5,r2
 2000c28:	180d883a 	mov	r6,r3
 2000c2c:	2809883a 	mov	r4,r5
 2000c30:	300b883a 	mov	r5,r6
 2000c34:	2004cd00 	call	2004cd0 <sqrt>
 2000c38:	100b883a 	mov	r5,r2
 2000c3c:	180d883a 	mov	r6,r3
 2000c40:	2809883a 	mov	r4,r5
 2000c44:	300b883a 	mov	r5,r6
 2000c48:	2009d380 	call	2009d38 <__truncdfsf2>
 2000c4c:	d0a06915 	stw	r2,-32348(gp)
 2000c50:	00808074 	movhi	r2,513
 2000c54:	1081c204 	addi	r2,r2,1800
 2000c58:	10800017 	ldw	r2,0(r2)
 2000c5c:	d0e06917 	ldw	r3,-32348(gp)
 2000c60:	1009883a 	mov	r4,r2
 2000c64:	180b883a 	mov	r5,r3
 2000c68:	20089940 	call	2008994 <__divsf3>
 2000c6c:	1007883a 	mov	r3,r2
 2000c70:	00808074 	movhi	r2,513
 2000c74:	1081c204 	addi	r2,r2,1800
 2000c78:	10c00015 	stw	r3,0(r2)
 2000c7c:	00808074 	movhi	r2,513
 2000c80:	1081c204 	addi	r2,r2,1800
 2000c84:	10800117 	ldw	r2,4(r2)
 2000c88:	d0e06917 	ldw	r3,-32348(gp)
 2000c8c:	1009883a 	mov	r4,r2
 2000c90:	180b883a 	mov	r5,r3
 2000c94:	20089940 	call	2008994 <__divsf3>
 2000c98:	1007883a 	mov	r3,r2
 2000c9c:	00808074 	movhi	r2,513
 2000ca0:	1081c204 	addi	r2,r2,1800
 2000ca4:	10c00115 	stw	r3,4(r2)
 2000ca8:	00808074 	movhi	r2,513
 2000cac:	1081c204 	addi	r2,r2,1800
 2000cb0:	10800217 	ldw	r2,8(r2)
 2000cb4:	d0e06917 	ldw	r3,-32348(gp)
 2000cb8:	1009883a 	mov	r4,r2
 2000cbc:	180b883a 	mov	r5,r3
 2000cc0:	20089940 	call	2008994 <__divsf3>
 2000cc4:	1007883a 	mov	r3,r2
 2000cc8:	00808074 	movhi	r2,513
 2000ccc:	1081c204 	addi	r2,r2,1800
 2000cd0:	10c00215 	stw	r3,8(r2)
 2000cd4:	00808074 	movhi	r2,513
 2000cd8:	1081c204 	addi	r2,r2,1800
 2000cdc:	10800317 	ldw	r2,12(r2)
 2000ce0:	d0e06917 	ldw	r3,-32348(gp)
 2000ce4:	1009883a 	mov	r4,r2
 2000ce8:	180b883a 	mov	r5,r3
 2000cec:	20089940 	call	2008994 <__divsf3>
 2000cf0:	1007883a 	mov	r3,r2
 2000cf4:	00808074 	movhi	r2,513
 2000cf8:	1081c204 	addi	r2,r2,1800
 2000cfc:	10c00315 	stw	r3,12(r2)
 2000d00:	00808074 	movhi	r2,513
 2000d04:	1081c204 	addi	r2,r2,1800
 2000d08:	10800017 	ldw	r2,0(r2)
 2000d0c:	d0a06415 	stw	r2,-32368(gp)
 2000d10:	00808074 	movhi	r2,513
 2000d14:	1081c204 	addi	r2,r2,1800
 2000d18:	10800117 	ldw	r2,4(r2)
 2000d1c:	d0a03f15 	stw	r2,-32516(gp)
 2000d20:	00808074 	movhi	r2,513
 2000d24:	1081c204 	addi	r2,r2,1800
 2000d28:	10800217 	ldw	r2,8(r2)
 2000d2c:	d0a06315 	stw	r2,-32372(gp)
 2000d30:	00808074 	movhi	r2,513
 2000d34:	1081c204 	addi	r2,r2,1800
 2000d38:	10800317 	ldw	r2,12(r2)
 2000d3c:	d0a05915 	stw	r2,-32412(gp)
 2000d40:	00c08074 	movhi	r3,513
 2000d44:	18c1c904 	addi	r3,r3,1828
 2000d48:	008fe034 	movhi	r2,16256
 2000d4c:	18800015 	stw	r2,0(r3)
 2000d50:	d0e03417 	ldw	r3,-32560(gp)
 2000d54:	d0a03917 	ldw	r2,-32540(gp)
 2000d58:	1887ffb2 	custom	254,r3,r3,r2
 2000d5c:	00aed974 	movhi	r2,47973
 2000d60:	10981084 	addi	r2,r2,24642
 2000d64:	1887ff32 	custom	252,r3,r3,r2
 2000d68:	00808074 	movhi	r2,513
 2000d6c:	1081c904 	addi	r2,r2,1828
 2000d70:	10c00115 	stw	r3,4(r2)
 2000d74:	d0e07d17 	ldw	r3,-32268(gp)
 2000d78:	d0a02317 	ldw	r2,-32628(gp)
 2000d7c:	1887ffb2 	custom	254,r3,r3,r2
 2000d80:	00aed974 	movhi	r2,47973
 2000d84:	10981084 	addi	r2,r2,24642
 2000d88:	1887ff32 	custom	252,r3,r3,r2
 2000d8c:	00808074 	movhi	r2,513
 2000d90:	1081c904 	addi	r2,r2,1828
 2000d94:	10c00215 	stw	r3,8(r2)
 2000d98:	d0e02517 	ldw	r3,-32620(gp)
 2000d9c:	d0a04317 	ldw	r2,-32500(gp)
 2000da0:	1887ffb2 	custom	254,r3,r3,r2
 2000da4:	00aed974 	movhi	r2,47973
 2000da8:	10981084 	addi	r2,r2,24642
 2000dac:	1887ff32 	custom	252,r3,r3,r2
 2000db0:	00808074 	movhi	r2,513
 2000db4:	1081c904 	addi	r2,r2,1828
 2000db8:	10c00315 	stw	r3,12(r2)
 2000dbc:	d0e03f17 	ldw	r3,-32516(gp)
 2000dc0:	008ed974 	movhi	r2,15205
 2000dc4:	10981084 	addi	r2,r2,24642
 2000dc8:	1887ff32 	custom	252,r3,r3,r2
 2000dcc:	00808074 	movhi	r2,513
 2000dd0:	1081c904 	addi	r2,r2,1828
 2000dd4:	10c00415 	stw	r3,16(r2)
 2000dd8:	d0e06317 	ldw	r3,-32372(gp)
 2000ddc:	008ed974 	movhi	r2,15205
 2000de0:	10981084 	addi	r2,r2,24642
 2000de4:	1887ff32 	custom	252,r3,r3,r2
 2000de8:	00808074 	movhi	r2,513
 2000dec:	1081c904 	addi	r2,r2,1828
 2000df0:	10c00515 	stw	r3,20(r2)
 2000df4:	d0e05917 	ldw	r3,-32412(gp)
 2000df8:	008ed974 	movhi	r2,15205
 2000dfc:	10981084 	addi	r2,r2,24642
 2000e00:	1887ff32 	custom	252,r3,r3,r2
 2000e04:	00808074 	movhi	r2,513
 2000e08:	1081c904 	addi	r2,r2,1828
 2000e0c:	10c00615 	stw	r3,24(r2)
 2000e10:	d0e03417 	ldw	r3,-32560(gp)
 2000e14:	d0a03917 	ldw	r2,-32540(gp)
 2000e18:	1887ffb2 	custom	254,r3,r3,r2
 2000e1c:	008ed974 	movhi	r2,15205
 2000e20:	10981084 	addi	r2,r2,24642
 2000e24:	1887ff32 	custom	252,r3,r3,r2
 2000e28:	00808074 	movhi	r2,513
 2000e2c:	1081c904 	addi	r2,r2,1828
 2000e30:	10c00715 	stw	r3,28(r2)
 2000e34:	00c08074 	movhi	r3,513
 2000e38:	18c1c904 	addi	r3,r3,1828
 2000e3c:	008fe034 	movhi	r2,16256
 2000e40:	18800815 	stw	r2,32(r3)
 2000e44:	d0e02517 	ldw	r3,-32620(gp)
 2000e48:	d0a04317 	ldw	r2,-32500(gp)
 2000e4c:	1887ffb2 	custom	254,r3,r3,r2
 2000e50:	008ed974 	movhi	r2,15205
 2000e54:	10981084 	addi	r2,r2,24642
 2000e58:	1887ff32 	custom	252,r3,r3,r2
 2000e5c:	00808074 	movhi	r2,513
 2000e60:	1081c904 	addi	r2,r2,1828
 2000e64:	10c00915 	stw	r3,36(r2)
 2000e68:	d0e07d17 	ldw	r3,-32268(gp)
 2000e6c:	d0a02317 	ldw	r2,-32628(gp)
 2000e70:	1887ffb2 	custom	254,r3,r3,r2
 2000e74:	00aed974 	movhi	r2,47973
 2000e78:	10981084 	addi	r2,r2,24642
 2000e7c:	1887ff32 	custom	252,r3,r3,r2
 2000e80:	00808074 	movhi	r2,513
 2000e84:	1081c904 	addi	r2,r2,1828
 2000e88:	10c00a15 	stw	r3,40(r2)
 2000e8c:	d0e06417 	ldw	r3,-32368(gp)
 2000e90:	00aed974 	movhi	r2,47973
 2000e94:	10981084 	addi	r2,r2,24642
 2000e98:	1887ff32 	custom	252,r3,r3,r2
 2000e9c:	00808074 	movhi	r2,513
 2000ea0:	1081c904 	addi	r2,r2,1828
 2000ea4:	10c00b15 	stw	r3,44(r2)
 2000ea8:	d0e05917 	ldw	r3,-32412(gp)
 2000eac:	008ed974 	movhi	r2,15205
 2000eb0:	10981084 	addi	r2,r2,24642
 2000eb4:	1887ff32 	custom	252,r3,r3,r2
 2000eb8:	00808074 	movhi	r2,513
 2000ebc:	1081c904 	addi	r2,r2,1828
 2000ec0:	10c00c15 	stw	r3,48(r2)
 2000ec4:	d0e06317 	ldw	r3,-32372(gp)
 2000ec8:	00aed974 	movhi	r2,47973
 2000ecc:	10981084 	addi	r2,r2,24642
 2000ed0:	1887ff32 	custom	252,r3,r3,r2
 2000ed4:	00808074 	movhi	r2,513
 2000ed8:	1081c904 	addi	r2,r2,1828
 2000edc:	10c00d15 	stw	r3,52(r2)
 2000ee0:	d0e07d17 	ldw	r3,-32268(gp)
 2000ee4:	d0a02317 	ldw	r2,-32628(gp)
 2000ee8:	1887ffb2 	custom	254,r3,r3,r2
 2000eec:	008ed974 	movhi	r2,15205
 2000ef0:	10981084 	addi	r2,r2,24642
 2000ef4:	1887ff32 	custom	252,r3,r3,r2
 2000ef8:	00808074 	movhi	r2,513
 2000efc:	1081c904 	addi	r2,r2,1828
 2000f00:	10c00e15 	stw	r3,56(r2)
 2000f04:	d0e02517 	ldw	r3,-32620(gp)
 2000f08:	d0a04317 	ldw	r2,-32500(gp)
 2000f0c:	1887ffb2 	custom	254,r3,r3,r2
 2000f10:	00aed974 	movhi	r2,47973
 2000f14:	10981084 	addi	r2,r2,24642
 2000f18:	1887ff32 	custom	252,r3,r3,r2
 2000f1c:	00808074 	movhi	r2,513
 2000f20:	1081c904 	addi	r2,r2,1828
 2000f24:	10c00f15 	stw	r3,60(r2)
 2000f28:	00c08074 	movhi	r3,513
 2000f2c:	18c1c904 	addi	r3,r3,1828
 2000f30:	008fe034 	movhi	r2,16256
 2000f34:	18801015 	stw	r2,64(r3)
 2000f38:	d0e03417 	ldw	r3,-32560(gp)
 2000f3c:	d0a03917 	ldw	r2,-32540(gp)
 2000f40:	1887ffb2 	custom	254,r3,r3,r2
 2000f44:	008ed974 	movhi	r2,15205
 2000f48:	10981084 	addi	r2,r2,24642
 2000f4c:	1887ff32 	custom	252,r3,r3,r2
 2000f50:	00808074 	movhi	r2,513
 2000f54:	1081c904 	addi	r2,r2,1828
 2000f58:	10c01115 	stw	r3,68(r2)
 2000f5c:	d0e05917 	ldw	r3,-32412(gp)
 2000f60:	00aed974 	movhi	r2,47973
 2000f64:	10981084 	addi	r2,r2,24642
 2000f68:	1887ff32 	custom	252,r3,r3,r2
 2000f6c:	00808074 	movhi	r2,513
 2000f70:	1081c904 	addi	r2,r2,1828
 2000f74:	10c01215 	stw	r3,72(r2)
 2000f78:	d0e06417 	ldw	r3,-32368(gp)
 2000f7c:	00aed974 	movhi	r2,47973
 2000f80:	10981084 	addi	r2,r2,24642
 2000f84:	1887ff32 	custom	252,r3,r3,r2
 2000f88:	00808074 	movhi	r2,513
 2000f8c:	1081c904 	addi	r2,r2,1828
 2000f90:	10c01315 	stw	r3,76(r2)
 2000f94:	d0e03f17 	ldw	r3,-32516(gp)
 2000f98:	008ed974 	movhi	r2,15205
 2000f9c:	10981084 	addi	r2,r2,24642
 2000fa0:	1887ff32 	custom	252,r3,r3,r2
 2000fa4:	00808074 	movhi	r2,513
 2000fa8:	1081c904 	addi	r2,r2,1828
 2000fac:	10c01415 	stw	r3,80(r2)
 2000fb0:	d0e02517 	ldw	r3,-32620(gp)
 2000fb4:	d0a04317 	ldw	r2,-32500(gp)
 2000fb8:	1887ffb2 	custom	254,r3,r3,r2
 2000fbc:	008ed974 	movhi	r2,15205
 2000fc0:	10981084 	addi	r2,r2,24642
 2000fc4:	1887ff32 	custom	252,r3,r3,r2
 2000fc8:	00808074 	movhi	r2,513
 2000fcc:	1081c904 	addi	r2,r2,1828
 2000fd0:	10c01515 	stw	r3,84(r2)
 2000fd4:	d0e07d17 	ldw	r3,-32268(gp)
 2000fd8:	d0a02317 	ldw	r2,-32628(gp)
 2000fdc:	1887ffb2 	custom	254,r3,r3,r2
 2000fe0:	008ed974 	movhi	r2,15205
 2000fe4:	10981084 	addi	r2,r2,24642
 2000fe8:	1887ff32 	custom	252,r3,r3,r2
 2000fec:	00808074 	movhi	r2,513
 2000ff0:	1081c904 	addi	r2,r2,1828
 2000ff4:	10c01615 	stw	r3,88(r2)
 2000ff8:	d0e03417 	ldw	r3,-32560(gp)
 2000ffc:	d0a03917 	ldw	r2,-32540(gp)
 2001000:	1887ffb2 	custom	254,r3,r3,r2
 2001004:	00aed974 	movhi	r2,47973
 2001008:	10981084 	addi	r2,r2,24642
 200100c:	1887ff32 	custom	252,r3,r3,r2
 2001010:	00808074 	movhi	r2,513
 2001014:	1081c904 	addi	r2,r2,1828
 2001018:	10c01715 	stw	r3,92(r2)
 200101c:	00c08074 	movhi	r3,513
 2001020:	18c1c904 	addi	r3,r3,1828
 2001024:	008fe034 	movhi	r2,16256
 2001028:	18801815 	stw	r2,96(r3)
 200102c:	d0e06317 	ldw	r3,-32372(gp)
 2001030:	008ed974 	movhi	r2,15205
 2001034:	10981084 	addi	r2,r2,24642
 2001038:	1887ff32 	custom	252,r3,r3,r2
 200103c:	00808074 	movhi	r2,513
 2001040:	1081c904 	addi	r2,r2,1828
 2001044:	10c01915 	stw	r3,100(r2)
 2001048:	d0e03f17 	ldw	r3,-32516(gp)
 200104c:	00aed974 	movhi	r2,47973
 2001050:	10981084 	addi	r2,r2,24642
 2001054:	1887ff32 	custom	252,r3,r3,r2
 2001058:	00808074 	movhi	r2,513
 200105c:	1081c904 	addi	r2,r2,1828
 2001060:	10c01a15 	stw	r3,104(r2)
 2001064:	d0e06417 	ldw	r3,-32368(gp)
 2001068:	00aed974 	movhi	r2,47973
 200106c:	10981084 	addi	r2,r2,24642
 2001070:	1887ff32 	custom	252,r3,r3,r2
 2001074:	00808074 	movhi	r2,513
 2001078:	1081c904 	addi	r2,r2,1828
 200107c:	10c01b15 	stw	r3,108(r2)
 2001080:	00808074 	movhi	r2,513
 2001084:	1081c904 	addi	r2,r2,1828
 2001088:	10001c15 	stw	zero,112(r2)
 200108c:	00808074 	movhi	r2,513
 2001090:	1081c904 	addi	r2,r2,1828
 2001094:	10001d15 	stw	zero,116(r2)
 2001098:	00808074 	movhi	r2,513
 200109c:	1081c904 	addi	r2,r2,1828
 20010a0:	10001e15 	stw	zero,120(r2)
 20010a4:	00808074 	movhi	r2,513
 20010a8:	1081c904 	addi	r2,r2,1828
 20010ac:	10001f15 	stw	zero,124(r2)
 20010b0:	00c08074 	movhi	r3,513
 20010b4:	18c1c904 	addi	r3,r3,1828
 20010b8:	008fe034 	movhi	r2,16256
 20010bc:	18802015 	stw	r2,128(r3)
 20010c0:	00808074 	movhi	r2,513
 20010c4:	1081c904 	addi	r2,r2,1828
 20010c8:	10002115 	stw	zero,132(r2)
 20010cc:	00808074 	movhi	r2,513
 20010d0:	1081c904 	addi	r2,r2,1828
 20010d4:	10002215 	stw	zero,136(r2)
 20010d8:	00808074 	movhi	r2,513
 20010dc:	1081c904 	addi	r2,r2,1828
 20010e0:	10002315 	stw	zero,140(r2)
 20010e4:	00808074 	movhi	r2,513
 20010e8:	1081c904 	addi	r2,r2,1828
 20010ec:	10002415 	stw	zero,144(r2)
 20010f0:	00808074 	movhi	r2,513
 20010f4:	1081c904 	addi	r2,r2,1828
 20010f8:	10002515 	stw	zero,148(r2)
 20010fc:	00808074 	movhi	r2,513
 2001100:	1081c904 	addi	r2,r2,1828
 2001104:	10002615 	stw	zero,152(r2)
 2001108:	00808074 	movhi	r2,513
 200110c:	1081c904 	addi	r2,r2,1828
 2001110:	10002715 	stw	zero,156(r2)
 2001114:	00c08074 	movhi	r3,513
 2001118:	18c1c904 	addi	r3,r3,1828
 200111c:	008fe034 	movhi	r2,16256
 2001120:	18802815 	stw	r2,160(r3)
 2001124:	00808074 	movhi	r2,513
 2001128:	1081c904 	addi	r2,r2,1828
 200112c:	10002915 	stw	zero,164(r2)
 2001130:	00808074 	movhi	r2,513
 2001134:	1081c904 	addi	r2,r2,1828
 2001138:	10002a15 	stw	zero,168(r2)
 200113c:	00808074 	movhi	r2,513
 2001140:	1081c904 	addi	r2,r2,1828
 2001144:	10002b15 	stw	zero,172(r2)
 2001148:	00808074 	movhi	r2,513
 200114c:	1081c904 	addi	r2,r2,1828
 2001150:	10002c15 	stw	zero,176(r2)
 2001154:	00808074 	movhi	r2,513
 2001158:	1081c904 	addi	r2,r2,1828
 200115c:	10002d15 	stw	zero,180(r2)
 2001160:	00808074 	movhi	r2,513
 2001164:	1081c904 	addi	r2,r2,1828
 2001168:	10002e15 	stw	zero,184(r2)
 200116c:	00808074 	movhi	r2,513
 2001170:	1081c904 	addi	r2,r2,1828
 2001174:	10002f15 	stw	zero,188(r2)
 2001178:	00c08074 	movhi	r3,513
 200117c:	18c1c904 	addi	r3,r3,1828
 2001180:	008fe034 	movhi	r2,16256
 2001184:	18803015 	stw	r2,192(r3)
 2001188:	01008074 	movhi	r4,513
 200118c:	2101c904 	addi	r4,r4,1828
 2001190:	01408074 	movhi	r5,513
 2001194:	29419104 	addi	r5,r5,1604
 2001198:	01808074 	movhi	r6,513
 200119c:	3181fa04 	addi	r6,r6,2024
 20011a0:	2001d880 	call	2001d88 <M_7x7_7x7>
 20011a4:	01008074 	movhi	r4,513
 20011a8:	2101c904 	addi	r4,r4,1828
 20011ac:	01408074 	movhi	r5,513
 20011b0:	29422b04 	addi	r5,r5,2220
 20011b4:	2001fb40 	call	2001fb4 <transp_7x7>
 20011b8:	01008074 	movhi	r4,513
 20011bc:	2101fa04 	addi	r4,r4,2024
 20011c0:	01408074 	movhi	r5,513
 20011c4:	29422b04 	addi	r5,r5,2220
 20011c8:	01808074 	movhi	r6,513
 20011cc:	31825c04 	addi	r6,r6,2416
 20011d0:	2001d880 	call	2001d88 <M_7x7_7x7>
 20011d4:	01008074 	movhi	r4,513
 20011d8:	21025c04 	addi	r4,r4,2416
 20011dc:	01408074 	movhi	r5,513
 20011e0:	297a9504 	addi	r5,r5,-5548
 20011e4:	01808074 	movhi	r6,513
 20011e8:	31828d04 	addi	r6,r6,2612
 20011ec:	20020680 	call	2002068 <S_7x7>
 20011f0:	d0e06d17 	ldw	r3,-32332(gp)
 20011f4:	00808074 	movhi	r2,513
 20011f8:	1082be04 	addi	r2,r2,2808
 20011fc:	10c00015 	stw	r3,0(r2)
 2001200:	d0e05b17 	ldw	r3,-32404(gp)
 2001204:	00808074 	movhi	r2,513
 2001208:	1082be04 	addi	r2,r2,2808
 200120c:	10c00115 	stw	r3,4(r2)
 2001210:	d0e08817 	ldw	r3,-32224(gp)
 2001214:	00808074 	movhi	r2,513
 2001218:	1082be04 	addi	r2,r2,2808
 200121c:	10c00215 	stw	r3,8(r2)
 2001220:	00808074 	movhi	r2,513
 2001224:	1082be04 	addi	r2,r2,2808
 2001228:	10c00017 	ldw	r3,0(r2)
 200122c:	00808074 	movhi	r2,513
 2001230:	1082be04 	addi	r2,r2,2808
 2001234:	10800017 	ldw	r2,0(r2)
 2001238:	1889ff32 	custom	252,r4,r3,r2
 200123c:	00808074 	movhi	r2,513
 2001240:	1082be04 	addi	r2,r2,2808
 2001244:	10c00117 	ldw	r3,4(r2)
 2001248:	00808074 	movhi	r2,513
 200124c:	1082be04 	addi	r2,r2,2808
 2001250:	10800117 	ldw	r2,4(r2)
 2001254:	1885ff32 	custom	252,r2,r3,r2
 2001258:	2089ff72 	custom	253,r4,r4,r2
 200125c:	00808074 	movhi	r2,513
 2001260:	1082be04 	addi	r2,r2,2808
 2001264:	10c00217 	ldw	r3,8(r2)
 2001268:	00808074 	movhi	r2,513
 200126c:	1082be04 	addi	r2,r2,2808
 2001270:	10800217 	ldw	r2,8(r2)
 2001274:	1885ff32 	custom	252,r2,r3,r2
 2001278:	2085ff72 	custom	253,r2,r4,r2
 200127c:	1009883a 	mov	r4,r2
 2001280:	2008d9c0 	call	2008d9c <__extendsfdf2>
 2001284:	100b883a 	mov	r5,r2
 2001288:	180d883a 	mov	r6,r3
 200128c:	2809883a 	mov	r4,r5
 2001290:	300b883a 	mov	r5,r6
 2001294:	2004cd00 	call	2004cd0 <sqrt>
 2001298:	100b883a 	mov	r5,r2
 200129c:	180d883a 	mov	r6,r3
 20012a0:	2809883a 	mov	r4,r5
 20012a4:	300b883a 	mov	r5,r6
 20012a8:	2009d380 	call	2009d38 <__truncdfsf2>
 20012ac:	d0a06715 	stw	r2,-32356(gp)
 20012b0:	00808074 	movhi	r2,513
 20012b4:	1082be04 	addi	r2,r2,2808
 20012b8:	10800017 	ldw	r2,0(r2)
 20012bc:	d0e06717 	ldw	r3,-32356(gp)
 20012c0:	1009883a 	mov	r4,r2
 20012c4:	180b883a 	mov	r5,r3
 20012c8:	20089940 	call	2008994 <__divsf3>
 20012cc:	1007883a 	mov	r3,r2
 20012d0:	00808074 	movhi	r2,513
 20012d4:	1082be04 	addi	r2,r2,2808
 20012d8:	10c00015 	stw	r3,0(r2)
 20012dc:	00808074 	movhi	r2,513
 20012e0:	1082be04 	addi	r2,r2,2808
 20012e4:	10800117 	ldw	r2,4(r2)
 20012e8:	d0e06717 	ldw	r3,-32356(gp)
 20012ec:	1009883a 	mov	r4,r2
 20012f0:	180b883a 	mov	r5,r3
 20012f4:	20089940 	call	2008994 <__divsf3>
 20012f8:	1007883a 	mov	r3,r2
 20012fc:	00808074 	movhi	r2,513
 2001300:	1082be04 	addi	r2,r2,2808
 2001304:	10c00115 	stw	r3,4(r2)
 2001308:	00808074 	movhi	r2,513
 200130c:	1082be04 	addi	r2,r2,2808
 2001310:	10800217 	ldw	r2,8(r2)
 2001314:	d0e06717 	ldw	r3,-32356(gp)
 2001318:	1009883a 	mov	r4,r2
 200131c:	180b883a 	mov	r5,r3
 2001320:	20089940 	call	2008994 <__divsf3>
 2001324:	1007883a 	mov	r3,r2
 2001328:	00808074 	movhi	r2,513
 200132c:	1082be04 	addi	r2,r2,2808
 2001330:	10c00215 	stw	r3,8(r2)
 2001334:	d0e03f17 	ldw	r3,-32516(gp)
 2001338:	d0a05917 	ldw	r2,-32412(gp)
 200133c:	1889ff32 	custom	252,r4,r3,r2
 2001340:	d0e06417 	ldw	r3,-32368(gp)
 2001344:	d0a06317 	ldw	r2,-32372(gp)
 2001348:	1885ff32 	custom	252,r2,r3,r2
 200134c:	2085ffb2 	custom	254,r2,r4,r2
 2001350:	1087ff72 	custom	253,r3,r2,r2
 2001354:	00808074 	movhi	r2,513
 2001358:	1082c104 	addi	r2,r2,2820
 200135c:	10c00015 	stw	r3,0(r2)
 2001360:	d0e06317 	ldw	r3,-32372(gp)
 2001364:	d0a05917 	ldw	r2,-32412(gp)
 2001368:	1889ff32 	custom	252,r4,r3,r2
 200136c:	d0e06417 	ldw	r3,-32368(gp)
 2001370:	d0a03f17 	ldw	r2,-32516(gp)
 2001374:	1885ff32 	custom	252,r2,r3,r2
 2001378:	2085ff72 	custom	253,r2,r4,r2
 200137c:	1087ff72 	custom	253,r3,r2,r2
 2001380:	00808074 	movhi	r2,513
 2001384:	1082c104 	addi	r2,r2,2820
 2001388:	10c00115 	stw	r3,4(r2)
 200138c:	d0e03f17 	ldw	r3,-32516(gp)
 2001390:	d0a03f17 	ldw	r2,-32516(gp)
 2001394:	1889ff32 	custom	252,r4,r3,r2
 2001398:	d0e06317 	ldw	r3,-32372(gp)
 200139c:	d0a06317 	ldw	r2,-32372(gp)
 20013a0:	1885ff32 	custom	252,r2,r3,r2
 20013a4:	2087ff72 	custom	253,r3,r4,r2
 20013a8:	00b00034 	movhi	r2,49152
 20013ac:	1887ff32 	custom	252,r3,r3,r2
 20013b0:	008fe034 	movhi	r2,16256
 20013b4:	1887ff72 	custom	253,r3,r3,r2
 20013b8:	00808074 	movhi	r2,513
 20013bc:	1082c104 	addi	r2,r2,2820
 20013c0:	10c00215 	stw	r3,8(r2)
 20013c4:	d0e06317 	ldw	r3,-32372(gp)
 20013c8:	00b00034 	movhi	r2,49152
 20013cc:	1887ff32 	custom	252,r3,r3,r2
 20013d0:	00808074 	movhi	r2,513
 20013d4:	1082c404 	addi	r2,r2,2832
 20013d8:	10c00015 	stw	r3,0(r2)
 20013dc:	d0a05917 	ldw	r2,-32412(gp)
 20013e0:	1087ff72 	custom	253,r3,r2,r2
 20013e4:	00808074 	movhi	r2,513
 20013e8:	1082c404 	addi	r2,r2,2832
 20013ec:	10c00115 	stw	r3,4(r2)
 20013f0:	d0e06417 	ldw	r3,-32368(gp)
 20013f4:	00b00034 	movhi	r2,49152
 20013f8:	1887ff32 	custom	252,r3,r3,r2
 20013fc:	00808074 	movhi	r2,513
 2001400:	1082c404 	addi	r2,r2,2832
 2001404:	10c00215 	stw	r3,8(r2)
 2001408:	d0a03f17 	ldw	r2,-32516(gp)
 200140c:	1087ff72 	custom	253,r3,r2,r2
 2001410:	00808074 	movhi	r2,513
 2001414:	1082c404 	addi	r2,r2,2832
 2001418:	10c00315 	stw	r3,12(r2)
 200141c:	00808074 	movhi	r2,513
 2001420:	1082c404 	addi	r2,r2,2832
 2001424:	10000415 	stw	zero,16(r2)
 2001428:	00808074 	movhi	r2,513
 200142c:	1082c404 	addi	r2,r2,2832
 2001430:	10000515 	stw	zero,20(r2)
 2001434:	00808074 	movhi	r2,513
 2001438:	1082c404 	addi	r2,r2,2832
 200143c:	10000615 	stw	zero,24(r2)
 2001440:	d0a03f17 	ldw	r2,-32516(gp)
 2001444:	1087ff72 	custom	253,r3,r2,r2
 2001448:	00808074 	movhi	r2,513
 200144c:	1082c404 	addi	r2,r2,2832
 2001450:	10c00715 	stw	r3,28(r2)
 2001454:	d0a06417 	ldw	r2,-32368(gp)
 2001458:	1087ff72 	custom	253,r3,r2,r2
 200145c:	00808074 	movhi	r2,513
 2001460:	1082c404 	addi	r2,r2,2832
 2001464:	10c00815 	stw	r3,32(r2)
 2001468:	d0a05917 	ldw	r2,-32412(gp)
 200146c:	1087ff72 	custom	253,r3,r2,r2
 2001470:	00808074 	movhi	r2,513
 2001474:	1082c404 	addi	r2,r2,2832
 2001478:	10c00915 	stw	r3,36(r2)
 200147c:	d0a06317 	ldw	r2,-32372(gp)
 2001480:	1087ff72 	custom	253,r3,r2,r2
 2001484:	00808074 	movhi	r2,513
 2001488:	1082c404 	addi	r2,r2,2832
 200148c:	10c00a15 	stw	r3,40(r2)
 2001490:	00808074 	movhi	r2,513
 2001494:	1082c404 	addi	r2,r2,2832
 2001498:	10000b15 	stw	zero,44(r2)
 200149c:	00808074 	movhi	r2,513
 20014a0:	1082c404 	addi	r2,r2,2832
 20014a4:	10000c15 	stw	zero,48(r2)
 20014a8:	00808074 	movhi	r2,513
 20014ac:	1082c404 	addi	r2,r2,2832
 20014b0:	10000d15 	stw	zero,52(r2)
 20014b4:	00808074 	movhi	r2,513
 20014b8:	1082c404 	addi	r2,r2,2832
 20014bc:	10000e15 	stw	zero,56(r2)
 20014c0:	d0e03f17 	ldw	r3,-32516(gp)
 20014c4:	00b02034 	movhi	r2,49280
 20014c8:	1887ff32 	custom	252,r3,r3,r2
 20014cc:	00808074 	movhi	r2,513
 20014d0:	1082c404 	addi	r2,r2,2832
 20014d4:	10c00f15 	stw	r3,60(r2)
 20014d8:	d0e06317 	ldw	r3,-32372(gp)
 20014dc:	00b02034 	movhi	r2,49280
 20014e0:	1887ff32 	custom	252,r3,r3,r2
 20014e4:	00808074 	movhi	r2,513
 20014e8:	1082c404 	addi	r2,r2,2832
 20014ec:	10c01015 	stw	r3,64(r2)
 20014f0:	00808074 	movhi	r2,513
 20014f4:	1082c404 	addi	r2,r2,2832
 20014f8:	10001115 	stw	zero,68(r2)
 20014fc:	00808074 	movhi	r2,513
 2001500:	1082c404 	addi	r2,r2,2832
 2001504:	10001215 	stw	zero,72(r2)
 2001508:	00808074 	movhi	r2,513
 200150c:	1082c404 	addi	r2,r2,2832
 2001510:	10001315 	stw	zero,76(r2)
 2001514:	00808074 	movhi	r2,513
 2001518:	1082c404 	addi	r2,r2,2832
 200151c:	10001415 	stw	zero,80(r2)
 2001520:	d0201e15 	stw	zero,-32648(gp)
 2001524:	00001f06 	br	20015a4 <FiltroKalmanExtendido+0x13a8>
 2001528:	d0201f15 	stw	zero,-32644(gp)
 200152c:	00001706 	br	200158c <FiltroKalmanExtendido+0x1390>
 2001530:	d1601e17 	ldw	r5,-32648(gp)
 2001534:	d1a01f17 	ldw	r6,-32644(gp)
 2001538:	d0a01e17 	ldw	r2,-32648(gp)
 200153c:	d0e01f17 	ldw	r3,-32644(gp)
 2001540:	01008074 	movhi	r4,513
 2001544:	21028d04 	addi	r4,r4,2612
 2001548:	108001e4 	muli	r2,r2,7
 200154c:	10c5883a 	add	r2,r2,r3
 2001550:	1085883a 	add	r2,r2,r2
 2001554:	1085883a 	add	r2,r2,r2
 2001558:	1105883a 	add	r2,r2,r4
 200155c:	11000017 	ldw	r4,0(r2)
 2001560:	00c08074 	movhi	r3,513
 2001564:	18c19104 	addi	r3,r3,1604
 2001568:	288001e4 	muli	r2,r5,7
 200156c:	1185883a 	add	r2,r2,r6
 2001570:	1085883a 	add	r2,r2,r2
 2001574:	1085883a 	add	r2,r2,r2
 2001578:	10c5883a 	add	r2,r2,r3
 200157c:	11000015 	stw	r4,0(r2)
 2001580:	d0a01f17 	ldw	r2,-32644(gp)
 2001584:	10800044 	addi	r2,r2,1
 2001588:	d0a01f15 	stw	r2,-32644(gp)
 200158c:	d0a01f17 	ldw	r2,-32644(gp)
 2001590:	108001d0 	cmplti	r2,r2,7
 2001594:	103fe61e 	bne	r2,zero,2001530 <FiltroKalmanExtendido+0x1334>
 2001598:	d0a01e17 	ldw	r2,-32648(gp)
 200159c:	10800044 	addi	r2,r2,1
 20015a0:	d0a01e15 	stw	r2,-32648(gp)
 20015a4:	d0a01e17 	ldw	r2,-32648(gp)
 20015a8:	108001d0 	cmplti	r2,r2,7
 20015ac:	103fde1e 	bne	r2,zero,2001528 <FiltroKalmanExtendido+0x132c>
 20015b0:	d0202015 	stw	zero,-32640(gp)
 20015b4:	0000a106 	br	200183c <FiltroKalmanExtendido+0x1640>
 20015b8:	d0a02017 	ldw	r2,-32640(gp)
 20015bc:	00c08074 	movhi	r3,513
 20015c0:	18c2c404 	addi	r3,r3,2832
 20015c4:	10800724 	muli	r2,r2,28
 20015c8:	10c5883a 	add	r2,r2,r3
 20015cc:	10c00017 	ldw	r3,0(r2)
 20015d0:	00808074 	movhi	r2,513
 20015d4:	1082d904 	addi	r2,r2,2916
 20015d8:	10c00015 	stw	r3,0(r2)
 20015dc:	d0a02017 	ldw	r2,-32640(gp)
 20015e0:	00c08074 	movhi	r3,513
 20015e4:	18c2c404 	addi	r3,r3,2832
 20015e8:	10800724 	muli	r2,r2,28
 20015ec:	10c5883a 	add	r2,r2,r3
 20015f0:	10800104 	addi	r2,r2,4
 20015f4:	10c00017 	ldw	r3,0(r2)
 20015f8:	00808074 	movhi	r2,513
 20015fc:	1082d904 	addi	r2,r2,2916
 2001600:	10c00115 	stw	r3,4(r2)
 2001604:	d0a02017 	ldw	r2,-32640(gp)
 2001608:	00c08074 	movhi	r3,513
 200160c:	18c2c404 	addi	r3,r3,2832
 2001610:	10800724 	muli	r2,r2,28
 2001614:	10c5883a 	add	r2,r2,r3
 2001618:	10800204 	addi	r2,r2,8
 200161c:	10c00017 	ldw	r3,0(r2)
 2001620:	00808074 	movhi	r2,513
 2001624:	1082d904 	addi	r2,r2,2916
 2001628:	10c00215 	stw	r3,8(r2)
 200162c:	d0a02017 	ldw	r2,-32640(gp)
 2001630:	00c08074 	movhi	r3,513
 2001634:	18c2c404 	addi	r3,r3,2832
 2001638:	10800724 	muli	r2,r2,28
 200163c:	10c5883a 	add	r2,r2,r3
 2001640:	10800304 	addi	r2,r2,12
 2001644:	10c00017 	ldw	r3,0(r2)
 2001648:	00808074 	movhi	r2,513
 200164c:	1082d904 	addi	r2,r2,2916
 2001650:	10c00315 	stw	r3,12(r2)
 2001654:	d0a02017 	ldw	r2,-32640(gp)
 2001658:	00c08074 	movhi	r3,513
 200165c:	18c2c404 	addi	r3,r3,2832
 2001660:	10800724 	muli	r2,r2,28
 2001664:	10c5883a 	add	r2,r2,r3
 2001668:	10800404 	addi	r2,r2,16
 200166c:	10c00017 	ldw	r3,0(r2)
 2001670:	00808074 	movhi	r2,513
 2001674:	1082d904 	addi	r2,r2,2916
 2001678:	10c00415 	stw	r3,16(r2)
 200167c:	d0a02017 	ldw	r2,-32640(gp)
 2001680:	00c08074 	movhi	r3,513
 2001684:	18c2c404 	addi	r3,r3,2832
 2001688:	10800724 	muli	r2,r2,28
 200168c:	10c5883a 	add	r2,r2,r3
 2001690:	10800504 	addi	r2,r2,20
 2001694:	10c00017 	ldw	r3,0(r2)
 2001698:	00808074 	movhi	r2,513
 200169c:	1082d904 	addi	r2,r2,2916
 20016a0:	10c00515 	stw	r3,20(r2)
 20016a4:	d0a02017 	ldw	r2,-32640(gp)
 20016a8:	00c08074 	movhi	r3,513
 20016ac:	18c2c404 	addi	r3,r3,2832
 20016b0:	10800724 	muli	r2,r2,28
 20016b4:	10c5883a 	add	r2,r2,r3
 20016b8:	10800604 	addi	r2,r2,24
 20016bc:	10c00017 	ldw	r3,0(r2)
 20016c0:	00808074 	movhi	r2,513
 20016c4:	1082d904 	addi	r2,r2,2916
 20016c8:	10c00615 	stw	r3,24(r2)
 20016cc:	01008074 	movhi	r4,513
 20016d0:	2102d904 	addi	r4,r4,2916
 20016d4:	01408074 	movhi	r5,513
 20016d8:	2942e004 	addi	r5,r5,2944
 20016dc:	200237c0 	call	200237c <transp_1x7>
 20016e0:	01008074 	movhi	r4,513
 20016e4:	21019104 	addi	r4,r4,1604
 20016e8:	01408074 	movhi	r5,513
 20016ec:	2942e004 	addi	r5,r5,2944
 20016f0:	01808074 	movhi	r6,513
 20016f4:	3182e704 	addi	r6,r6,2972
 20016f8:	200214c0 	call	200214c <M_7x7_7x1>
 20016fc:	01008074 	movhi	r4,513
 2001700:	2102d904 	addi	r4,r4,2916
 2001704:	01408074 	movhi	r5,513
 2001708:	2942e704 	addi	r5,r5,2972
 200170c:	d1a02104 	addi	r6,gp,-32636
 2001710:	20024340 	call	2002434 <M_1x7_7x1>
 2001714:	d1a02117 	ldw	r6,-32636(gp)
 2001718:	d0e02017 	ldw	r3,-32640(gp)
 200171c:	d1202017 	ldw	r4,-32640(gp)
 2001720:	01408074 	movhi	r5,513
 2001724:	297ac604 	addi	r5,r5,-5352
 2001728:	1805883a 	mov	r2,r3
 200172c:	1085883a 	add	r2,r2,r2
 2001730:	10c5883a 	add	r2,r2,r3
 2001734:	1105883a 	add	r2,r2,r4
 2001738:	1085883a 	add	r2,r2,r2
 200173c:	1085883a 	add	r2,r2,r2
 2001740:	1145883a 	add	r2,r2,r5
 2001744:	10800017 	ldw	r2,0(r2)
 2001748:	3085ff72 	custom	253,r2,r6,r2
 200174c:	d0a08615 	stw	r2,-32232(gp)
 2001750:	d0a08617 	ldw	r2,-32232(gp)
 2001754:	01008074 	movhi	r4,513
 2001758:	2102e704 	addi	r4,r4,2972
 200175c:	100b883a 	mov	r5,r2
 2001760:	01808074 	movhi	r6,513
 2001764:	3182ee04 	addi	r6,r6,3000
 2001768:	20026640 	call	2002664 <D_7x1_scale>
 200176c:	d0a02017 	ldw	r2,-32640(gp)
 2001770:	00c08074 	movhi	r3,513
 2001774:	18c2be04 	addi	r3,r3,2808
 2001778:	1085883a 	add	r2,r2,r2
 200177c:	1085883a 	add	r2,r2,r2
 2001780:	10c5883a 	add	r2,r2,r3
 2001784:	11000017 	ldw	r4,0(r2)
 2001788:	d0a02017 	ldw	r2,-32640(gp)
 200178c:	00c08074 	movhi	r3,513
 2001790:	18c2c104 	addi	r3,r3,2820
 2001794:	1085883a 	add	r2,r2,r2
 2001798:	1085883a 	add	r2,r2,r2
 200179c:	10c5883a 	add	r2,r2,r3
 20017a0:	10800017 	ldw	r2,0(r2)
 20017a4:	2085ffb2 	custom	254,r2,r4,r2
 20017a8:	d0a08b15 	stw	r2,-32212(gp)
 20017ac:	d0a08b17 	ldw	r2,-32212(gp)
 20017b0:	01008074 	movhi	r4,513
 20017b4:	2102ee04 	addi	r4,r4,3000
 20017b8:	100b883a 	mov	r5,r2
 20017bc:	01808074 	movhi	r6,513
 20017c0:	3182f504 	addi	r6,r6,3028
 20017c4:	200273c0 	call	200273c <M_7x1_scale>
 20017c8:	01008074 	movhi	r4,513
 20017cc:	2101c204 	addi	r4,r4,1800
 20017d0:	01408074 	movhi	r5,513
 20017d4:	2942f504 	addi	r5,r5,3028
 20017d8:	01808074 	movhi	r6,513
 20017dc:	3181c204 	addi	r6,r6,1800
 20017e0:	20027f40 	call	20027f4 <S_7x1>
 20017e4:	01008074 	movhi	r4,513
 20017e8:	2102e704 	addi	r4,r4,2972
 20017ec:	01408074 	movhi	r5,513
 20017f0:	2942fc04 	addi	r5,r5,3056
 20017f4:	20028e40 	call	20028e4 <transp_7x1>
 20017f8:	01008074 	movhi	r4,513
 20017fc:	2102ee04 	addi	r4,r4,3000
 2001800:	01408074 	movhi	r5,513
 2001804:	2942fc04 	addi	r5,r5,3056
 2001808:	01808074 	movhi	r6,513
 200180c:	31830304 	addi	r6,r6,3084
 2001810:	200299c0 	call	200299c <M_7x1_1x7>
 2001814:	01008074 	movhi	r4,513
 2001818:	21019104 	addi	r4,r4,1604
 200181c:	01408074 	movhi	r5,513
 2001820:	29430304 	addi	r5,r5,3084
 2001824:	01808074 	movhi	r6,513
 2001828:	31819104 	addi	r6,r6,1604
 200182c:	2002a640 	call	2002a64 <R_7x7>
 2001830:	d0a02017 	ldw	r2,-32640(gp)
 2001834:	10800044 	addi	r2,r2,1
 2001838:	d0a02015 	stw	r2,-32640(gp)
 200183c:	d0a02017 	ldw	r2,-32640(gp)
 2001840:	108000d0 	cmplti	r2,r2,3
 2001844:	103f5c1e 	bne	r2,zero,20015b8 <FiltroKalmanExtendido+0x13bc>
 2001848:	00808074 	movhi	r2,513
 200184c:	1081c204 	addi	r2,r2,1800
 2001850:	10c00017 	ldw	r3,0(r2)
 2001854:	00808074 	movhi	r2,513
 2001858:	1081c204 	addi	r2,r2,1800
 200185c:	10800017 	ldw	r2,0(r2)
 2001860:	1889ff32 	custom	252,r4,r3,r2
 2001864:	00808074 	movhi	r2,513
 2001868:	1081c204 	addi	r2,r2,1800
 200186c:	10c00117 	ldw	r3,4(r2)
 2001870:	00808074 	movhi	r2,513
 2001874:	1081c204 	addi	r2,r2,1800
 2001878:	10800117 	ldw	r2,4(r2)
 200187c:	1885ff32 	custom	252,r2,r3,r2
 2001880:	2089ff72 	custom	253,r4,r4,r2
 2001884:	00808074 	movhi	r2,513
 2001888:	1081c204 	addi	r2,r2,1800
 200188c:	10c00217 	ldw	r3,8(r2)
 2001890:	00808074 	movhi	r2,513
 2001894:	1081c204 	addi	r2,r2,1800
 2001898:	10800217 	ldw	r2,8(r2)
 200189c:	1885ff32 	custom	252,r2,r3,r2
 20018a0:	2089ff72 	custom	253,r4,r4,r2
 20018a4:	00808074 	movhi	r2,513
 20018a8:	1081c204 	addi	r2,r2,1800
 20018ac:	10c00317 	ldw	r3,12(r2)
 20018b0:	00808074 	movhi	r2,513
 20018b4:	1081c204 	addi	r2,r2,1800
 20018b8:	10800317 	ldw	r2,12(r2)
 20018bc:	1885ff32 	custom	252,r2,r3,r2
 20018c0:	2085ff72 	custom	253,r2,r4,r2
 20018c4:	1009883a 	mov	r4,r2
 20018c8:	2008d9c0 	call	2008d9c <__extendsfdf2>
 20018cc:	100b883a 	mov	r5,r2
 20018d0:	180d883a 	mov	r6,r3
 20018d4:	2809883a 	mov	r4,r5
 20018d8:	300b883a 	mov	r5,r6
 20018dc:	2004cd00 	call	2004cd0 <sqrt>
 20018e0:	100b883a 	mov	r5,r2
 20018e4:	180d883a 	mov	r6,r3
 20018e8:	2809883a 	mov	r4,r5
 20018ec:	300b883a 	mov	r5,r6
 20018f0:	2009d380 	call	2009d38 <__truncdfsf2>
 20018f4:	d0a06915 	stw	r2,-32348(gp)
 20018f8:	00808074 	movhi	r2,513
 20018fc:	1081c204 	addi	r2,r2,1800
 2001900:	10800017 	ldw	r2,0(r2)
 2001904:	d0e06917 	ldw	r3,-32348(gp)
 2001908:	1009883a 	mov	r4,r2
 200190c:	180b883a 	mov	r5,r3
 2001910:	20089940 	call	2008994 <__divsf3>
 2001914:	1007883a 	mov	r3,r2
 2001918:	00808074 	movhi	r2,513
 200191c:	1081c204 	addi	r2,r2,1800
 2001920:	10c00015 	stw	r3,0(r2)
 2001924:	00808074 	movhi	r2,513
 2001928:	1081c204 	addi	r2,r2,1800
 200192c:	10800117 	ldw	r2,4(r2)
 2001930:	d0e06917 	ldw	r3,-32348(gp)
 2001934:	1009883a 	mov	r4,r2
 2001938:	180b883a 	mov	r5,r3
 200193c:	20089940 	call	2008994 <__divsf3>
 2001940:	1007883a 	mov	r3,r2
 2001944:	00808074 	movhi	r2,513
 2001948:	1081c204 	addi	r2,r2,1800
 200194c:	10c00115 	stw	r3,4(r2)
 2001950:	00808074 	movhi	r2,513
 2001954:	1081c204 	addi	r2,r2,1800
 2001958:	10800217 	ldw	r2,8(r2)
 200195c:	d0e06917 	ldw	r3,-32348(gp)
 2001960:	1009883a 	mov	r4,r2
 2001964:	180b883a 	mov	r5,r3
 2001968:	20089940 	call	2008994 <__divsf3>
 200196c:	1007883a 	mov	r3,r2
 2001970:	00808074 	movhi	r2,513
 2001974:	1081c204 	addi	r2,r2,1800
 2001978:	10c00215 	stw	r3,8(r2)
 200197c:	00808074 	movhi	r2,513
 2001980:	1081c204 	addi	r2,r2,1800
 2001984:	10800317 	ldw	r2,12(r2)
 2001988:	d0e06917 	ldw	r3,-32348(gp)
 200198c:	1009883a 	mov	r4,r2
 2001990:	180b883a 	mov	r5,r3
 2001994:	20089940 	call	2008994 <__divsf3>
 2001998:	1007883a 	mov	r3,r2
 200199c:	00808074 	movhi	r2,513
 20019a0:	1081c204 	addi	r2,r2,1800
 20019a4:	10c00315 	stw	r3,12(r2)
 20019a8:	00808074 	movhi	r2,513
 20019ac:	1081c204 	addi	r2,r2,1800
 20019b0:	10800017 	ldw	r2,0(r2)
 20019b4:	d0a06415 	stw	r2,-32368(gp)
 20019b8:	00808074 	movhi	r2,513
 20019bc:	1081c204 	addi	r2,r2,1800
 20019c0:	10800117 	ldw	r2,4(r2)
 20019c4:	d0a03f15 	stw	r2,-32516(gp)
 20019c8:	00808074 	movhi	r2,513
 20019cc:	1081c204 	addi	r2,r2,1800
 20019d0:	10800217 	ldw	r2,8(r2)
 20019d4:	d0a06315 	stw	r2,-32372(gp)
 20019d8:	00808074 	movhi	r2,513
 20019dc:	1081c204 	addi	r2,r2,1800
 20019e0:	10800317 	ldw	r2,12(r2)
 20019e4:	d0a05915 	stw	r2,-32412(gp)
 20019e8:	d0e06417 	ldw	r3,-32368(gp)
 20019ec:	d0a03f17 	ldw	r2,-32516(gp)
 20019f0:	1889ff32 	custom	252,r4,r3,r2
 20019f4:	d0e06317 	ldw	r3,-32372(gp)
 20019f8:	d0a05917 	ldw	r2,-32412(gp)
 20019fc:	1885ff32 	custom	252,r2,r3,r2
 2001a00:	2085ff72 	custom	253,r2,r4,r2
 2001a04:	1085ff72 	custom	253,r2,r2,r2
 2001a08:	1009883a 	mov	r4,r2
 2001a0c:	2008d9c0 	call	2008d9c <__extendsfdf2>
 2001a10:	1021883a 	mov	r16,r2
 2001a14:	1823883a 	mov	r17,r3
 2001a18:	d0e03f17 	ldw	r3,-32516(gp)
 2001a1c:	d0a03f17 	ldw	r2,-32516(gp)
 2001a20:	1889ff32 	custom	252,r4,r3,r2
 2001a24:	d0e06317 	ldw	r3,-32372(gp)
 2001a28:	d0a06317 	ldw	r2,-32372(gp)
 2001a2c:	1885ff32 	custom	252,r2,r3,r2
 2001a30:	2087ff72 	custom	253,r3,r4,r2
 2001a34:	00b00034 	movhi	r2,49152
 2001a38:	1887ff32 	custom	252,r3,r3,r2
 2001a3c:	008fe034 	movhi	r2,16256
 2001a40:	1885ff72 	custom	253,r2,r3,r2
 2001a44:	1009883a 	mov	r4,r2
 2001a48:	2008d9c0 	call	2008d9c <__extendsfdf2>
 2001a4c:	100f883a 	mov	r7,r2
 2001a50:	1811883a 	mov	r8,r3
 2001a54:	8009883a 	mov	r4,r16
 2001a58:	880b883a 	mov	r5,r17
 2001a5c:	380d883a 	mov	r6,r7
 2001a60:	400f883a 	mov	r7,r8
 2001a64:	2004ccc0 	call	2004ccc <atan2>
 2001a68:	100b883a 	mov	r5,r2
 2001a6c:	180d883a 	mov	r6,r3
 2001a70:	2809883a 	mov	r4,r5
 2001a74:	300b883a 	mov	r5,r6
 2001a78:	2009d380 	call	2009d38 <__truncdfsf2>
 2001a7c:	d0a05315 	stw	r2,-32436(gp)
 2001a80:	d0a03f17 	ldw	r2,-32516(gp)
 2001a84:	1087ff72 	custom	253,r3,r2,r2
 2001a88:	d0a05917 	ldw	r2,-32412(gp)
 2001a8c:	1889ff32 	custom	252,r4,r3,r2
 2001a90:	d0e06417 	ldw	r3,-32368(gp)
 2001a94:	00b00034 	movhi	r2,49152
 2001a98:	1887ff32 	custom	252,r3,r3,r2
 2001a9c:	d0a06317 	ldw	r2,-32372(gp)
 2001aa0:	1885ff32 	custom	252,r2,r3,r2
 2001aa4:	2085ff72 	custom	253,r2,r4,r2
 2001aa8:	1009883a 	mov	r4,r2
 2001aac:	2008d9c0 	call	2008d9c <__extendsfdf2>
 2001ab0:	100b883a 	mov	r5,r2
 2001ab4:	180d883a 	mov	r6,r3
 2001ab8:	2809883a 	mov	r4,r5
 2001abc:	300b883a 	mov	r5,r6
 2001ac0:	2004b9c0 	call	2004b9c <asin>
 2001ac4:	100b883a 	mov	r5,r2
 2001ac8:	180d883a 	mov	r6,r3
 2001acc:	2809883a 	mov	r4,r5
 2001ad0:	300b883a 	mov	r5,r6
 2001ad4:	2009d380 	call	2009d38 <__truncdfsf2>
 2001ad8:	10a0003c 	xorhi	r2,r2,32768
 2001adc:	d0a08515 	stw	r2,-32236(gp)
 2001ae0:	d0e03f17 	ldw	r3,-32516(gp)
 2001ae4:	d0a06317 	ldw	r2,-32372(gp)
 2001ae8:	1889ff32 	custom	252,r4,r3,r2
 2001aec:	d0e06417 	ldw	r3,-32368(gp)
 2001af0:	d0a05917 	ldw	r2,-32412(gp)
 2001af4:	1885ff32 	custom	252,r2,r3,r2
 2001af8:	2085ff72 	custom	253,r2,r4,r2
 2001afc:	1085ff72 	custom	253,r2,r2,r2
 2001b00:	1009883a 	mov	r4,r2
 2001b04:	2008d9c0 	call	2008d9c <__extendsfdf2>
 2001b08:	1021883a 	mov	r16,r2
 2001b0c:	1823883a 	mov	r17,r3
 2001b10:	d0e06317 	ldw	r3,-32372(gp)
 2001b14:	d0a06317 	ldw	r2,-32372(gp)
 2001b18:	1889ff32 	custom	252,r4,r3,r2
 2001b1c:	d0e05917 	ldw	r3,-32412(gp)
 2001b20:	d0a05917 	ldw	r2,-32412(gp)
 2001b24:	1885ff32 	custom	252,r2,r3,r2
 2001b28:	2087ff72 	custom	253,r3,r4,r2
 2001b2c:	00b00034 	movhi	r2,49152
 2001b30:	1887ff32 	custom	252,r3,r3,r2
 2001b34:	008fe034 	movhi	r2,16256
 2001b38:	1885ff72 	custom	253,r2,r3,r2
 2001b3c:	1009883a 	mov	r4,r2
 2001b40:	2008d9c0 	call	2008d9c <__extendsfdf2>
 2001b44:	100f883a 	mov	r7,r2
 2001b48:	1811883a 	mov	r8,r3
 2001b4c:	8009883a 	mov	r4,r16
 2001b50:	880b883a 	mov	r5,r17
 2001b54:	380d883a 	mov	r6,r7
 2001b58:	400f883a 	mov	r7,r8
 2001b5c:	2004ccc0 	call	2004ccc <atan2>
 2001b60:	100b883a 	mov	r5,r2
 2001b64:	180d883a 	mov	r6,r3
 2001b68:	2809883a 	mov	r4,r5
 2001b6c:	300b883a 	mov	r5,r6
 2001b70:	2009d380 	call	2009d38 <__truncdfsf2>
 2001b74:	d0a07215 	stw	r2,-32312(gp)
 2001b78:	d0e05317 	ldw	r3,-32436(gp)
 2001b7c:	00909974 	movhi	r2,16997
 2001b80:	108bb804 	addi	r2,r2,12000
 2001b84:	1885ff32 	custom	252,r2,r3,r2
 2001b88:	d0a06f15 	stw	r2,-32324(gp)
 2001b8c:	d0e08517 	ldw	r3,-32236(gp)
 2001b90:	00909974 	movhi	r2,16997
 2001b94:	108bb804 	addi	r2,r2,12000
 2001b98:	1885ff32 	custom	252,r2,r3,r2
 2001b9c:	d0a06e15 	stw	r2,-32328(gp)
 2001ba0:	d0e07217 	ldw	r3,-32312(gp)
 2001ba4:	00909974 	movhi	r2,16997
 2001ba8:	108bb804 	addi	r2,r2,12000
 2001bac:	1885ff32 	custom	252,r2,r3,r2
 2001bb0:	d0a06a15 	stw	r2,-32344(gp)
 2001bb4:	d0a05317 	ldw	r2,-32436(gp)
 2001bb8:	1009883a 	mov	r4,r2
 2001bbc:	2008d9c0 	call	2008d9c <__extendsfdf2>
 2001bc0:	100b883a 	mov	r5,r2
 2001bc4:	180d883a 	mov	r6,r3
 2001bc8:	2809883a 	mov	r4,r5
 2001bcc:	300b883a 	mov	r5,r6
 2001bd0:	200482c0 	call	200482c <cos>
 2001bd4:	100b883a 	mov	r5,r2
 2001bd8:	180d883a 	mov	r6,r3
 2001bdc:	2809883a 	mov	r4,r5
 2001be0:	300b883a 	mov	r5,r6
 2001be4:	2009d380 	call	2009d38 <__truncdfsf2>
 2001be8:	d0a08a15 	stw	r2,-32216(gp)
 2001bec:	d0a05317 	ldw	r2,-32436(gp)
 2001bf0:	1009883a 	mov	r4,r2
 2001bf4:	2008d9c0 	call	2008d9c <__extendsfdf2>
 2001bf8:	100b883a 	mov	r5,r2
 2001bfc:	180d883a 	mov	r6,r3
 2001c00:	2809883a 	mov	r4,r5
 2001c04:	300b883a 	mov	r5,r6
 2001c08:	20049940 	call	2004994 <sin>
 2001c0c:	100b883a 	mov	r5,r2
 2001c10:	180d883a 	mov	r6,r3
 2001c14:	2809883a 	mov	r4,r5
 2001c18:	300b883a 	mov	r5,r6
 2001c1c:	2009d380 	call	2009d38 <__truncdfsf2>
 2001c20:	d0a05f15 	stw	r2,-32388(gp)
 2001c24:	d0a08517 	ldw	r2,-32236(gp)
 2001c28:	1009883a 	mov	r4,r2
 2001c2c:	2008d9c0 	call	2008d9c <__extendsfdf2>
 2001c30:	100b883a 	mov	r5,r2
 2001c34:	180d883a 	mov	r6,r3
 2001c38:	2809883a 	mov	r4,r5
 2001c3c:	300b883a 	mov	r5,r6
 2001c40:	200482c0 	call	200482c <cos>
 2001c44:	100b883a 	mov	r5,r2
 2001c48:	180d883a 	mov	r6,r3
 2001c4c:	2809883a 	mov	r4,r5
 2001c50:	300b883a 	mov	r5,r6
 2001c54:	2009d380 	call	2009d38 <__truncdfsf2>
 2001c58:	d0a02215 	stw	r2,-32632(gp)
 2001c5c:	d0a08517 	ldw	r2,-32236(gp)
 2001c60:	1009883a 	mov	r4,r2
 2001c64:	2008d9c0 	call	2008d9c <__extendsfdf2>
 2001c68:	100b883a 	mov	r5,r2
 2001c6c:	180d883a 	mov	r6,r3
 2001c70:	2809883a 	mov	r4,r5
 2001c74:	300b883a 	mov	r5,r6
 2001c78:	20049940 	call	2004994 <sin>
 2001c7c:	100b883a 	mov	r5,r2
 2001c80:	180d883a 	mov	r6,r3
 2001c84:	2809883a 	mov	r4,r5
 2001c88:	300b883a 	mov	r5,r6
 2001c8c:	2009d380 	call	2009d38 <__truncdfsf2>
 2001c90:	d0a04415 	stw	r2,-32496(gp)
 2001c94:	d0e06117 	ldw	r3,-32380(gp)
 2001c98:	d0a02217 	ldw	r2,-32632(gp)
 2001c9c:	1889ff32 	custom	252,r4,r3,r2
 2001ca0:	d0e07417 	ldw	r3,-32304(gp)
 2001ca4:	d0a05f17 	ldw	r2,-32388(gp)
 2001ca8:	1887ff32 	custom	252,r3,r3,r2
 2001cac:	d0a04417 	ldw	r2,-32496(gp)
 2001cb0:	1885ff32 	custom	252,r2,r3,r2
 2001cb4:	2089ff72 	custom	253,r4,r4,r2
 2001cb8:	d0e07e17 	ldw	r3,-32264(gp)
 2001cbc:	d0a08a17 	ldw	r2,-32216(gp)
 2001cc0:	1887ff32 	custom	252,r3,r3,r2
 2001cc4:	d0a04417 	ldw	r2,-32496(gp)
 2001cc8:	1885ff32 	custom	252,r2,r3,r2
 2001ccc:	2085ff72 	custom	253,r2,r4,r2
 2001cd0:	d0a03515 	stw	r2,-32556(gp)
 2001cd4:	d0e07417 	ldw	r3,-32304(gp)
 2001cd8:	d0a08a17 	ldw	r2,-32216(gp)
 2001cdc:	1889ff32 	custom	252,r4,r3,r2
 2001ce0:	d0e07e17 	ldw	r3,-32264(gp)
 2001ce4:	d0a05f17 	ldw	r2,-32388(gp)
 2001ce8:	1885ff32 	custom	252,r2,r3,r2
 2001cec:	2085ffb2 	custom	254,r2,r4,r2
 2001cf0:	d0a04a15 	stw	r2,-32472(gp)
 2001cf4:	d0a04a17 	ldw	r2,-32472(gp)
 2001cf8:	10a0003c 	xorhi	r2,r2,32768
 2001cfc:	1009883a 	mov	r4,r2
 2001d00:	2008d9c0 	call	2008d9c <__extendsfdf2>
 2001d04:	1021883a 	mov	r16,r2
 2001d08:	1823883a 	mov	r17,r3
 2001d0c:	d0a03517 	ldw	r2,-32556(gp)
 2001d10:	1009883a 	mov	r4,r2
 2001d14:	2008d9c0 	call	2008d9c <__extendsfdf2>
 2001d18:	100f883a 	mov	r7,r2
 2001d1c:	1811883a 	mov	r8,r3
 2001d20:	8009883a 	mov	r4,r16
 2001d24:	880b883a 	mov	r5,r17
 2001d28:	380d883a 	mov	r6,r7
 2001d2c:	400f883a 	mov	r7,r8
 2001d30:	2004ccc0 	call	2004ccc <atan2>
 2001d34:	100b883a 	mov	r5,r2
 2001d38:	180d883a 	mov	r6,r3
 2001d3c:	2809883a 	mov	r4,r5
 2001d40:	300b883a 	mov	r5,r6
 2001d44:	2009d380 	call	2009d38 <__truncdfsf2>
 2001d48:	d0a07515 	stw	r2,-32300(gp)
 2001d4c:	d0e07517 	ldw	r3,-32300(gp)
 2001d50:	00909974 	movhi	r2,16997
 2001d54:	108bb804 	addi	r2,r2,12000
 2001d58:	1885ff32 	custom	252,r2,r3,r2
 2001d5c:	d0a08315 	stw	r2,-32244(gp)
 2001d60:	d0a02517 	ldw	r2,-32620(gp)
 2001d64:	10a0003c 	xorhi	r2,r2,32768
 2001d68:	d0a02515 	stw	r2,-32620(gp)
 2001d6c:	e037883a 	mov	sp,fp
 2001d70:	dfc00317 	ldw	ra,12(sp)
 2001d74:	df000217 	ldw	fp,8(sp)
 2001d78:	dc400117 	ldw	r17,4(sp)
 2001d7c:	dc000017 	ldw	r16,0(sp)
 2001d80:	dec00404 	addi	sp,sp,16
 2001d84:	f800283a 	ret

02001d88 <M_7x7_7x7>:
 2001d88:	defffc04 	addi	sp,sp,-16
 2001d8c:	df000315 	stw	fp,12(sp)
 2001d90:	df000304 	addi	fp,sp,12
 2001d94:	e13ffd15 	stw	r4,-12(fp)
 2001d98:	e17ffe15 	stw	r5,-8(fp)
 2001d9c:	e1bfff15 	stw	r6,-4(fp)
 2001da0:	d0201b15 	stw	zero,-32660(gp)
 2001da4:	00007c06 	br	2001f98 <M_7x7_7x7+0x210>
 2001da8:	d0201c15 	stw	zero,-32656(gp)
 2001dac:	00007406 	br	2001f80 <M_7x7_7x7+0x1f8>
 2001db0:	d0a01b17 	ldw	r2,-32660(gp)
 2001db4:	10800724 	muli	r2,r2,28
 2001db8:	1007883a 	mov	r3,r2
 2001dbc:	e0bfff17 	ldw	r2,-4(fp)
 2001dc0:	188b883a 	add	r5,r3,r2
 2001dc4:	d1a01c17 	ldw	r6,-32656(gp)
 2001dc8:	d0a01b17 	ldw	r2,-32660(gp)
 2001dcc:	10800724 	muli	r2,r2,28
 2001dd0:	1007883a 	mov	r3,r2
 2001dd4:	e0bffd17 	ldw	r2,-12(fp)
 2001dd8:	1885883a 	add	r2,r3,r2
 2001ddc:	11000017 	ldw	r4,0(r2)
 2001de0:	d0a01c17 	ldw	r2,-32656(gp)
 2001de4:	e0fffe17 	ldw	r3,-8(fp)
 2001de8:	1085883a 	add	r2,r2,r2
 2001dec:	1085883a 	add	r2,r2,r2
 2001df0:	10c5883a 	add	r2,r2,r3
 2001df4:	10800017 	ldw	r2,0(r2)
 2001df8:	208fff32 	custom	252,r7,r4,r2
 2001dfc:	d0a01b17 	ldw	r2,-32660(gp)
 2001e00:	10800724 	muli	r2,r2,28
 2001e04:	1007883a 	mov	r3,r2
 2001e08:	e0bffd17 	ldw	r2,-12(fp)
 2001e0c:	1885883a 	add	r2,r3,r2
 2001e10:	11000117 	ldw	r4,4(r2)
 2001e14:	e0bffe17 	ldw	r2,-8(fp)
 2001e18:	10c00704 	addi	r3,r2,28
 2001e1c:	d0a01c17 	ldw	r2,-32656(gp)
 2001e20:	1085883a 	add	r2,r2,r2
 2001e24:	1085883a 	add	r2,r2,r2
 2001e28:	10c5883a 	add	r2,r2,r3
 2001e2c:	10800017 	ldw	r2,0(r2)
 2001e30:	2085ff32 	custom	252,r2,r4,r2
 2001e34:	388fff72 	custom	253,r7,r7,r2
 2001e38:	d0a01b17 	ldw	r2,-32660(gp)
 2001e3c:	10800724 	muli	r2,r2,28
 2001e40:	1007883a 	mov	r3,r2
 2001e44:	e0bffd17 	ldw	r2,-12(fp)
 2001e48:	1885883a 	add	r2,r3,r2
 2001e4c:	11000217 	ldw	r4,8(r2)
 2001e50:	e0bffe17 	ldw	r2,-8(fp)
 2001e54:	10c00e04 	addi	r3,r2,56
 2001e58:	d0a01c17 	ldw	r2,-32656(gp)
 2001e5c:	1085883a 	add	r2,r2,r2
 2001e60:	1085883a 	add	r2,r2,r2
 2001e64:	10c5883a 	add	r2,r2,r3
 2001e68:	10800017 	ldw	r2,0(r2)
 2001e6c:	2085ff32 	custom	252,r2,r4,r2
 2001e70:	388fff72 	custom	253,r7,r7,r2
 2001e74:	d0a01b17 	ldw	r2,-32660(gp)
 2001e78:	10800724 	muli	r2,r2,28
 2001e7c:	1007883a 	mov	r3,r2
 2001e80:	e0bffd17 	ldw	r2,-12(fp)
 2001e84:	1885883a 	add	r2,r3,r2
 2001e88:	11000317 	ldw	r4,12(r2)
 2001e8c:	e0bffe17 	ldw	r2,-8(fp)
 2001e90:	10c01504 	addi	r3,r2,84
 2001e94:	d0a01c17 	ldw	r2,-32656(gp)
 2001e98:	1085883a 	add	r2,r2,r2
 2001e9c:	1085883a 	add	r2,r2,r2
 2001ea0:	10c5883a 	add	r2,r2,r3
 2001ea4:	10800017 	ldw	r2,0(r2)
 2001ea8:	2085ff32 	custom	252,r2,r4,r2
 2001eac:	388fff72 	custom	253,r7,r7,r2
 2001eb0:	d0a01b17 	ldw	r2,-32660(gp)
 2001eb4:	10800724 	muli	r2,r2,28
 2001eb8:	1007883a 	mov	r3,r2
 2001ebc:	e0bffd17 	ldw	r2,-12(fp)
 2001ec0:	1885883a 	add	r2,r3,r2
 2001ec4:	11000417 	ldw	r4,16(r2)
 2001ec8:	e0bffe17 	ldw	r2,-8(fp)
 2001ecc:	10c01c04 	addi	r3,r2,112
 2001ed0:	d0a01c17 	ldw	r2,-32656(gp)
 2001ed4:	1085883a 	add	r2,r2,r2
 2001ed8:	1085883a 	add	r2,r2,r2
 2001edc:	10c5883a 	add	r2,r2,r3
 2001ee0:	10800017 	ldw	r2,0(r2)
 2001ee4:	2085ff32 	custom	252,r2,r4,r2
 2001ee8:	388fff72 	custom	253,r7,r7,r2
 2001eec:	d0a01b17 	ldw	r2,-32660(gp)
 2001ef0:	10800724 	muli	r2,r2,28
 2001ef4:	1007883a 	mov	r3,r2
 2001ef8:	e0bffd17 	ldw	r2,-12(fp)
 2001efc:	1885883a 	add	r2,r3,r2
 2001f00:	11000517 	ldw	r4,20(r2)
 2001f04:	e0bffe17 	ldw	r2,-8(fp)
 2001f08:	10c02304 	addi	r3,r2,140
 2001f0c:	d0a01c17 	ldw	r2,-32656(gp)
 2001f10:	1085883a 	add	r2,r2,r2
 2001f14:	1085883a 	add	r2,r2,r2
 2001f18:	10c5883a 	add	r2,r2,r3
 2001f1c:	10800017 	ldw	r2,0(r2)
 2001f20:	2085ff32 	custom	252,r2,r4,r2
 2001f24:	388fff72 	custom	253,r7,r7,r2
 2001f28:	d0a01b17 	ldw	r2,-32660(gp)
 2001f2c:	10800724 	muli	r2,r2,28
 2001f30:	1007883a 	mov	r3,r2
 2001f34:	e0bffd17 	ldw	r2,-12(fp)
 2001f38:	1885883a 	add	r2,r3,r2
 2001f3c:	11000617 	ldw	r4,24(r2)
 2001f40:	e0bffe17 	ldw	r2,-8(fp)
 2001f44:	10c02a04 	addi	r3,r2,168
 2001f48:	d0a01c17 	ldw	r2,-32656(gp)
 2001f4c:	1085883a 	add	r2,r2,r2
 2001f50:	1085883a 	add	r2,r2,r2
 2001f54:	10c5883a 	add	r2,r2,r3
 2001f58:	10800017 	ldw	r2,0(r2)
 2001f5c:	2085ff32 	custom	252,r2,r4,r2
 2001f60:	3887ff72 	custom	253,r3,r7,r2
 2001f64:	3185883a 	add	r2,r6,r6
 2001f68:	1085883a 	add	r2,r2,r2
 2001f6c:	1145883a 	add	r2,r2,r5
 2001f70:	10c00015 	stw	r3,0(r2)
 2001f74:	d0a01c17 	ldw	r2,-32656(gp)
 2001f78:	10800044 	addi	r2,r2,1
 2001f7c:	d0a01c15 	stw	r2,-32656(gp)
 2001f80:	d0a01c17 	ldw	r2,-32656(gp)
 2001f84:	108001d0 	cmplti	r2,r2,7
 2001f88:	103f891e 	bne	r2,zero,2001db0 <M_7x7_7x7+0x28>
 2001f8c:	d0a01b17 	ldw	r2,-32660(gp)
 2001f90:	10800044 	addi	r2,r2,1
 2001f94:	d0a01b15 	stw	r2,-32660(gp)
 2001f98:	d0a01b17 	ldw	r2,-32660(gp)
 2001f9c:	108001d0 	cmplti	r2,r2,7
 2001fa0:	103f811e 	bne	r2,zero,2001da8 <M_7x7_7x7+0x20>
 2001fa4:	e037883a 	mov	sp,fp
 2001fa8:	df000017 	ldw	fp,0(sp)
 2001fac:	dec00104 	addi	sp,sp,4
 2001fb0:	f800283a 	ret

02001fb4 <transp_7x7>:
 2001fb4:	defffd04 	addi	sp,sp,-12
 2001fb8:	df000215 	stw	fp,8(sp)
 2001fbc:	df000204 	addi	fp,sp,8
 2001fc0:	e13ffe15 	stw	r4,-8(fp)
 2001fc4:	e17fff15 	stw	r5,-4(fp)
 2001fc8:	d0201b15 	stw	zero,-32660(gp)
 2001fcc:	00001f06 	br	200204c <transp_7x7+0x98>
 2001fd0:	d0201c15 	stw	zero,-32656(gp)
 2001fd4:	00001706 	br	2002034 <transp_7x7+0x80>
 2001fd8:	d0a01c17 	ldw	r2,-32656(gp)
 2001fdc:	10800724 	muli	r2,r2,28
 2001fe0:	1007883a 	mov	r3,r2
 2001fe4:	e0bfff17 	ldw	r2,-4(fp)
 2001fe8:	188b883a 	add	r5,r3,r2
 2001fec:	d1201b17 	ldw	r4,-32660(gp)
 2001ff0:	d0a01b17 	ldw	r2,-32660(gp)
 2001ff4:	10800724 	muli	r2,r2,28
 2001ff8:	1007883a 	mov	r3,r2
 2001ffc:	e0bffe17 	ldw	r2,-8(fp)
 2002000:	1887883a 	add	r3,r3,r2
 2002004:	d0a01c17 	ldw	r2,-32656(gp)
 2002008:	1085883a 	add	r2,r2,r2
 200200c:	1085883a 	add	r2,r2,r2
 2002010:	10c5883a 	add	r2,r2,r3
 2002014:	10c00017 	ldw	r3,0(r2)
 2002018:	2105883a 	add	r2,r4,r4
 200201c:	1085883a 	add	r2,r2,r2
 2002020:	1145883a 	add	r2,r2,r5
 2002024:	10c00015 	stw	r3,0(r2)
 2002028:	d0a01c17 	ldw	r2,-32656(gp)
 200202c:	10800044 	addi	r2,r2,1
 2002030:	d0a01c15 	stw	r2,-32656(gp)
 2002034:	d0a01c17 	ldw	r2,-32656(gp)
 2002038:	108001d0 	cmplti	r2,r2,7
 200203c:	103fe61e 	bne	r2,zero,2001fd8 <transp_7x7+0x24>
 2002040:	d0a01b17 	ldw	r2,-32660(gp)
 2002044:	10800044 	addi	r2,r2,1
 2002048:	d0a01b15 	stw	r2,-32660(gp)
 200204c:	d0a01b17 	ldw	r2,-32660(gp)
 2002050:	108001d0 	cmplti	r2,r2,7
 2002054:	103fde1e 	bne	r2,zero,2001fd0 <transp_7x7+0x1c>
 2002058:	e037883a 	mov	sp,fp
 200205c:	df000017 	ldw	fp,0(sp)
 2002060:	dec00104 	addi	sp,sp,4
 2002064:	f800283a 	ret

02002068 <S_7x7>:
 2002068:	defffc04 	addi	sp,sp,-16
 200206c:	df000315 	stw	fp,12(sp)
 2002070:	df000304 	addi	fp,sp,12
 2002074:	e13ffd15 	stw	r4,-12(fp)
 2002078:	e17ffe15 	stw	r5,-8(fp)
 200207c:	e1bfff15 	stw	r6,-4(fp)
 2002080:	d0201b15 	stw	zero,-32660(gp)
 2002084:	00002a06 	br	2002130 <S_7x7+0xc8>
 2002088:	d0201c15 	stw	zero,-32656(gp)
 200208c:	00002206 	br	2002118 <S_7x7+0xb0>
 2002090:	d0a01b17 	ldw	r2,-32660(gp)
 2002094:	10800724 	muli	r2,r2,28
 2002098:	1007883a 	mov	r3,r2
 200209c:	e0bfff17 	ldw	r2,-4(fp)
 20020a0:	1889883a 	add	r4,r3,r2
 20020a4:	d1601c17 	ldw	r5,-32656(gp)
 20020a8:	d0a01b17 	ldw	r2,-32660(gp)
 20020ac:	10800724 	muli	r2,r2,28
 20020b0:	1007883a 	mov	r3,r2
 20020b4:	e0bffd17 	ldw	r2,-12(fp)
 20020b8:	1887883a 	add	r3,r3,r2
 20020bc:	d0a01c17 	ldw	r2,-32656(gp)
 20020c0:	1085883a 	add	r2,r2,r2
 20020c4:	1085883a 	add	r2,r2,r2
 20020c8:	10c5883a 	add	r2,r2,r3
 20020cc:	11800017 	ldw	r6,0(r2)
 20020d0:	d0a01b17 	ldw	r2,-32660(gp)
 20020d4:	10800724 	muli	r2,r2,28
 20020d8:	1007883a 	mov	r3,r2
 20020dc:	e0bffe17 	ldw	r2,-8(fp)
 20020e0:	1887883a 	add	r3,r3,r2
 20020e4:	d0a01c17 	ldw	r2,-32656(gp)
 20020e8:	1085883a 	add	r2,r2,r2
 20020ec:	1085883a 	add	r2,r2,r2
 20020f0:	10c5883a 	add	r2,r2,r3
 20020f4:	10800017 	ldw	r2,0(r2)
 20020f8:	3087ff72 	custom	253,r3,r6,r2
 20020fc:	2945883a 	add	r2,r5,r5
 2002100:	1085883a 	add	r2,r2,r2
 2002104:	1105883a 	add	r2,r2,r4
 2002108:	10c00015 	stw	r3,0(r2)
 200210c:	d0a01c17 	ldw	r2,-32656(gp)
 2002110:	10800044 	addi	r2,r2,1
 2002114:	d0a01c15 	stw	r2,-32656(gp)
 2002118:	d0a01c17 	ldw	r2,-32656(gp)
 200211c:	108001d0 	cmplti	r2,r2,7
 2002120:	103fdb1e 	bne	r2,zero,2002090 <S_7x7+0x28>
 2002124:	d0a01b17 	ldw	r2,-32660(gp)
 2002128:	10800044 	addi	r2,r2,1
 200212c:	d0a01b15 	stw	r2,-32660(gp)
 2002130:	d0a01b17 	ldw	r2,-32660(gp)
 2002134:	108001d0 	cmplti	r2,r2,7
 2002138:	103fd31e 	bne	r2,zero,2002088 <S_7x7+0x20>
 200213c:	e037883a 	mov	sp,fp
 2002140:	df000017 	ldw	fp,0(sp)
 2002144:	dec00104 	addi	sp,sp,4
 2002148:	f800283a 	ret

0200214c <M_7x7_7x1>:
 200214c:	defffc04 	addi	sp,sp,-16
 2002150:	df000315 	stw	fp,12(sp)
 2002154:	df000304 	addi	fp,sp,12
 2002158:	e13ffd15 	stw	r4,-12(fp)
 200215c:	e17ffe15 	stw	r5,-8(fp)
 2002160:	e1bfff15 	stw	r6,-4(fp)
 2002164:	d0201b15 	stw	zero,-32660(gp)
 2002168:	00007d06 	br	2002360 <M_7x7_7x1+0x214>
 200216c:	d0201c15 	stw	zero,-32656(gp)
 2002170:	00007506 	br	2002348 <M_7x7_7x1+0x1fc>
 2002174:	d0a01b17 	ldw	r2,-32660(gp)
 2002178:	1085883a 	add	r2,r2,r2
 200217c:	1085883a 	add	r2,r2,r2
 2002180:	1007883a 	mov	r3,r2
 2002184:	e0bfff17 	ldw	r2,-4(fp)
 2002188:	188b883a 	add	r5,r3,r2
 200218c:	d1a01c17 	ldw	r6,-32656(gp)
 2002190:	d0a01b17 	ldw	r2,-32660(gp)
 2002194:	10800724 	muli	r2,r2,28
 2002198:	1007883a 	mov	r3,r2
 200219c:	e0bffd17 	ldw	r2,-12(fp)
 20021a0:	1885883a 	add	r2,r3,r2
 20021a4:	11000017 	ldw	r4,0(r2)
 20021a8:	d0a01c17 	ldw	r2,-32656(gp)
 20021ac:	e0fffe17 	ldw	r3,-8(fp)
 20021b0:	1085883a 	add	r2,r2,r2
 20021b4:	1085883a 	add	r2,r2,r2
 20021b8:	10c5883a 	add	r2,r2,r3
 20021bc:	10800017 	ldw	r2,0(r2)
 20021c0:	208fff32 	custom	252,r7,r4,r2
 20021c4:	d0a01b17 	ldw	r2,-32660(gp)
 20021c8:	10800724 	muli	r2,r2,28
 20021cc:	1007883a 	mov	r3,r2
 20021d0:	e0bffd17 	ldw	r2,-12(fp)
 20021d4:	1885883a 	add	r2,r3,r2
 20021d8:	11000117 	ldw	r4,4(r2)
 20021dc:	e0bffe17 	ldw	r2,-8(fp)
 20021e0:	10c00104 	addi	r3,r2,4
 20021e4:	d0a01c17 	ldw	r2,-32656(gp)
 20021e8:	1085883a 	add	r2,r2,r2
 20021ec:	1085883a 	add	r2,r2,r2
 20021f0:	10c5883a 	add	r2,r2,r3
 20021f4:	10800017 	ldw	r2,0(r2)
 20021f8:	2085ff32 	custom	252,r2,r4,r2
 20021fc:	388fff72 	custom	253,r7,r7,r2
 2002200:	d0a01b17 	ldw	r2,-32660(gp)
 2002204:	10800724 	muli	r2,r2,28
 2002208:	1007883a 	mov	r3,r2
 200220c:	e0bffd17 	ldw	r2,-12(fp)
 2002210:	1885883a 	add	r2,r3,r2
 2002214:	11000217 	ldw	r4,8(r2)
 2002218:	e0bffe17 	ldw	r2,-8(fp)
 200221c:	10c00204 	addi	r3,r2,8
 2002220:	d0a01c17 	ldw	r2,-32656(gp)
 2002224:	1085883a 	add	r2,r2,r2
 2002228:	1085883a 	add	r2,r2,r2
 200222c:	10c5883a 	add	r2,r2,r3
 2002230:	10800017 	ldw	r2,0(r2)
 2002234:	2085ff32 	custom	252,r2,r4,r2
 2002238:	388fff72 	custom	253,r7,r7,r2
 200223c:	d0a01b17 	ldw	r2,-32660(gp)
 2002240:	10800724 	muli	r2,r2,28
 2002244:	1007883a 	mov	r3,r2
 2002248:	e0bffd17 	ldw	r2,-12(fp)
 200224c:	1885883a 	add	r2,r3,r2
 2002250:	11000317 	ldw	r4,12(r2)
 2002254:	e0bffe17 	ldw	r2,-8(fp)
 2002258:	10c00304 	addi	r3,r2,12
 200225c:	d0a01c17 	ldw	r2,-32656(gp)
 2002260:	1085883a 	add	r2,r2,r2
 2002264:	1085883a 	add	r2,r2,r2
 2002268:	10c5883a 	add	r2,r2,r3
 200226c:	10800017 	ldw	r2,0(r2)
 2002270:	2085ff32 	custom	252,r2,r4,r2
 2002274:	388fff72 	custom	253,r7,r7,r2
 2002278:	d0a01b17 	ldw	r2,-32660(gp)
 200227c:	10800724 	muli	r2,r2,28
 2002280:	1007883a 	mov	r3,r2
 2002284:	e0bffd17 	ldw	r2,-12(fp)
 2002288:	1885883a 	add	r2,r3,r2
 200228c:	11000417 	ldw	r4,16(r2)
 2002290:	e0bffe17 	ldw	r2,-8(fp)
 2002294:	10c00404 	addi	r3,r2,16
 2002298:	d0a01c17 	ldw	r2,-32656(gp)
 200229c:	1085883a 	add	r2,r2,r2
 20022a0:	1085883a 	add	r2,r2,r2
 20022a4:	10c5883a 	add	r2,r2,r3
 20022a8:	10800017 	ldw	r2,0(r2)
 20022ac:	2085ff32 	custom	252,r2,r4,r2
 20022b0:	388fff72 	custom	253,r7,r7,r2
 20022b4:	d0a01b17 	ldw	r2,-32660(gp)
 20022b8:	10800724 	muli	r2,r2,28
 20022bc:	1007883a 	mov	r3,r2
 20022c0:	e0bffd17 	ldw	r2,-12(fp)
 20022c4:	1885883a 	add	r2,r3,r2
 20022c8:	11000517 	ldw	r4,20(r2)
 20022cc:	e0bffe17 	ldw	r2,-8(fp)
 20022d0:	10c00504 	addi	r3,r2,20
 20022d4:	d0a01c17 	ldw	r2,-32656(gp)
 20022d8:	1085883a 	add	r2,r2,r2
 20022dc:	1085883a 	add	r2,r2,r2
 20022e0:	10c5883a 	add	r2,r2,r3
 20022e4:	10800017 	ldw	r2,0(r2)
 20022e8:	2085ff32 	custom	252,r2,r4,r2
 20022ec:	388fff72 	custom	253,r7,r7,r2
 20022f0:	d0a01b17 	ldw	r2,-32660(gp)
 20022f4:	10800724 	muli	r2,r2,28
 20022f8:	1007883a 	mov	r3,r2
 20022fc:	e0bffd17 	ldw	r2,-12(fp)
 2002300:	1885883a 	add	r2,r3,r2
 2002304:	11000617 	ldw	r4,24(r2)
 2002308:	e0bffe17 	ldw	r2,-8(fp)
 200230c:	10c00604 	addi	r3,r2,24
 2002310:	d0a01c17 	ldw	r2,-32656(gp)
 2002314:	1085883a 	add	r2,r2,r2
 2002318:	1085883a 	add	r2,r2,r2
 200231c:	10c5883a 	add	r2,r2,r3
 2002320:	10800017 	ldw	r2,0(r2)
 2002324:	2085ff32 	custom	252,r2,r4,r2
 2002328:	3887ff72 	custom	253,r3,r7,r2
 200232c:	3185883a 	add	r2,r6,r6
 2002330:	1085883a 	add	r2,r2,r2
 2002334:	1145883a 	add	r2,r2,r5
 2002338:	10c00015 	stw	r3,0(r2)
 200233c:	d0a01c17 	ldw	r2,-32656(gp)
 2002340:	10800044 	addi	r2,r2,1
 2002344:	d0a01c15 	stw	r2,-32656(gp)
 2002348:	d0a01c17 	ldw	r2,-32656(gp)
 200234c:	10800050 	cmplti	r2,r2,1
 2002350:	103f881e 	bne	r2,zero,2002174 <M_7x7_7x1+0x28>
 2002354:	d0a01b17 	ldw	r2,-32660(gp)
 2002358:	10800044 	addi	r2,r2,1
 200235c:	d0a01b15 	stw	r2,-32660(gp)
 2002360:	d0a01b17 	ldw	r2,-32660(gp)
 2002364:	108001d0 	cmplti	r2,r2,7
 2002368:	103f801e 	bne	r2,zero,200216c <M_7x7_7x1+0x20>
 200236c:	e037883a 	mov	sp,fp
 2002370:	df000017 	ldw	fp,0(sp)
 2002374:	dec00104 	addi	sp,sp,4
 2002378:	f800283a 	ret

0200237c <transp_1x7>:
 200237c:	defffd04 	addi	sp,sp,-12
 2002380:	df000215 	stw	fp,8(sp)
 2002384:	df000204 	addi	fp,sp,8
 2002388:	e13ffe15 	stw	r4,-8(fp)
 200238c:	e17fff15 	stw	r5,-4(fp)
 2002390:	d0201b15 	stw	zero,-32660(gp)
 2002394:	00002006 	br	2002418 <transp_1x7+0x9c>
 2002398:	d0201c15 	stw	zero,-32656(gp)
 200239c:	00001806 	br	2002400 <transp_1x7+0x84>
 20023a0:	d0a01c17 	ldw	r2,-32656(gp)
 20023a4:	1085883a 	add	r2,r2,r2
 20023a8:	1085883a 	add	r2,r2,r2
 20023ac:	1007883a 	mov	r3,r2
 20023b0:	e0bfff17 	ldw	r2,-4(fp)
 20023b4:	188b883a 	add	r5,r3,r2
 20023b8:	d1201b17 	ldw	r4,-32660(gp)
 20023bc:	d0a01b17 	ldw	r2,-32660(gp)
 20023c0:	10800724 	muli	r2,r2,28
 20023c4:	1007883a 	mov	r3,r2
 20023c8:	e0bffe17 	ldw	r2,-8(fp)
 20023cc:	1887883a 	add	r3,r3,r2
 20023d0:	d0a01c17 	ldw	r2,-32656(gp)
 20023d4:	1085883a 	add	r2,r2,r2
 20023d8:	1085883a 	add	r2,r2,r2
 20023dc:	10c5883a 	add	r2,r2,r3
 20023e0:	10c00017 	ldw	r3,0(r2)
 20023e4:	2105883a 	add	r2,r4,r4
 20023e8:	1085883a 	add	r2,r2,r2
 20023ec:	1145883a 	add	r2,r2,r5
 20023f0:	10c00015 	stw	r3,0(r2)
 20023f4:	d0a01c17 	ldw	r2,-32656(gp)
 20023f8:	10800044 	addi	r2,r2,1
 20023fc:	d0a01c15 	stw	r2,-32656(gp)
 2002400:	d0a01c17 	ldw	r2,-32656(gp)
 2002404:	108001d0 	cmplti	r2,r2,7
 2002408:	103fe51e 	bne	r2,zero,20023a0 <transp_1x7+0x24>
 200240c:	d0a01b17 	ldw	r2,-32660(gp)
 2002410:	10800044 	addi	r2,r2,1
 2002414:	d0a01b15 	stw	r2,-32660(gp)
 2002418:	d0a01b17 	ldw	r2,-32660(gp)
 200241c:	10800050 	cmplti	r2,r2,1
 2002420:	103fdd1e 	bne	r2,zero,2002398 <transp_1x7+0x1c>
 2002424:	e037883a 	mov	sp,fp
 2002428:	df000017 	ldw	fp,0(sp)
 200242c:	dec00104 	addi	sp,sp,4
 2002430:	f800283a 	ret

02002434 <M_1x7_7x1>:
 2002434:	defffc04 	addi	sp,sp,-16
 2002438:	df000315 	stw	fp,12(sp)
 200243c:	df000304 	addi	fp,sp,12
 2002440:	e13ffd15 	stw	r4,-12(fp)
 2002444:	e17ffe15 	stw	r5,-8(fp)
 2002448:	e1bfff15 	stw	r6,-4(fp)
 200244c:	d0201b15 	stw	zero,-32660(gp)
 2002450:	00007d06 	br	2002648 <M_1x7_7x1+0x214>
 2002454:	d0201c15 	stw	zero,-32656(gp)
 2002458:	00007506 	br	2002630 <M_1x7_7x1+0x1fc>
 200245c:	d0a01b17 	ldw	r2,-32660(gp)
 2002460:	1085883a 	add	r2,r2,r2
 2002464:	1085883a 	add	r2,r2,r2
 2002468:	1007883a 	mov	r3,r2
 200246c:	e0bfff17 	ldw	r2,-4(fp)
 2002470:	188b883a 	add	r5,r3,r2
 2002474:	d1a01c17 	ldw	r6,-32656(gp)
 2002478:	d0a01b17 	ldw	r2,-32660(gp)
 200247c:	10800724 	muli	r2,r2,28
 2002480:	1007883a 	mov	r3,r2
 2002484:	e0bffd17 	ldw	r2,-12(fp)
 2002488:	1885883a 	add	r2,r3,r2
 200248c:	11000017 	ldw	r4,0(r2)
 2002490:	d0a01c17 	ldw	r2,-32656(gp)
 2002494:	e0fffe17 	ldw	r3,-8(fp)
 2002498:	1085883a 	add	r2,r2,r2
 200249c:	1085883a 	add	r2,r2,r2
 20024a0:	10c5883a 	add	r2,r2,r3
 20024a4:	10800017 	ldw	r2,0(r2)
 20024a8:	208fff32 	custom	252,r7,r4,r2
 20024ac:	d0a01b17 	ldw	r2,-32660(gp)
 20024b0:	10800724 	muli	r2,r2,28
 20024b4:	1007883a 	mov	r3,r2
 20024b8:	e0bffd17 	ldw	r2,-12(fp)
 20024bc:	1885883a 	add	r2,r3,r2
 20024c0:	11000117 	ldw	r4,4(r2)
 20024c4:	e0bffe17 	ldw	r2,-8(fp)
 20024c8:	10c00104 	addi	r3,r2,4
 20024cc:	d0a01c17 	ldw	r2,-32656(gp)
 20024d0:	1085883a 	add	r2,r2,r2
 20024d4:	1085883a 	add	r2,r2,r2
 20024d8:	10c5883a 	add	r2,r2,r3
 20024dc:	10800017 	ldw	r2,0(r2)
 20024e0:	2085ff32 	custom	252,r2,r4,r2
 20024e4:	388fff72 	custom	253,r7,r7,r2
 20024e8:	d0a01b17 	ldw	r2,-32660(gp)
 20024ec:	10800724 	muli	r2,r2,28
 20024f0:	1007883a 	mov	r3,r2
 20024f4:	e0bffd17 	ldw	r2,-12(fp)
 20024f8:	1885883a 	add	r2,r3,r2
 20024fc:	11000217 	ldw	r4,8(r2)
 2002500:	e0bffe17 	ldw	r2,-8(fp)
 2002504:	10c00204 	addi	r3,r2,8
 2002508:	d0a01c17 	ldw	r2,-32656(gp)
 200250c:	1085883a 	add	r2,r2,r2
 2002510:	1085883a 	add	r2,r2,r2
 2002514:	10c5883a 	add	r2,r2,r3
 2002518:	10800017 	ldw	r2,0(r2)
 200251c:	2085ff32 	custom	252,r2,r4,r2
 2002520:	388fff72 	custom	253,r7,r7,r2
 2002524:	d0a01b17 	ldw	r2,-32660(gp)
 2002528:	10800724 	muli	r2,r2,28
 200252c:	1007883a 	mov	r3,r2
 2002530:	e0bffd17 	ldw	r2,-12(fp)
 2002534:	1885883a 	add	r2,r3,r2
 2002538:	11000317 	ldw	r4,12(r2)
 200253c:	e0bffe17 	ldw	r2,-8(fp)
 2002540:	10c00304 	addi	r3,r2,12
 2002544:	d0a01c17 	ldw	r2,-32656(gp)
 2002548:	1085883a 	add	r2,r2,r2
 200254c:	1085883a 	add	r2,r2,r2
 2002550:	10c5883a 	add	r2,r2,r3
 2002554:	10800017 	ldw	r2,0(r2)
 2002558:	2085ff32 	custom	252,r2,r4,r2
 200255c:	388fff72 	custom	253,r7,r7,r2
 2002560:	d0a01b17 	ldw	r2,-32660(gp)
 2002564:	10800724 	muli	r2,r2,28
 2002568:	1007883a 	mov	r3,r2
 200256c:	e0bffd17 	ldw	r2,-12(fp)
 2002570:	1885883a 	add	r2,r3,r2
 2002574:	11000417 	ldw	r4,16(r2)
 2002578:	e0bffe17 	ldw	r2,-8(fp)
 200257c:	10c00404 	addi	r3,r2,16
 2002580:	d0a01c17 	ldw	r2,-32656(gp)
 2002584:	1085883a 	add	r2,r2,r2
 2002588:	1085883a 	add	r2,r2,r2
 200258c:	10c5883a 	add	r2,r2,r3
 2002590:	10800017 	ldw	r2,0(r2)
 2002594:	2085ff32 	custom	252,r2,r4,r2
 2002598:	388fff72 	custom	253,r7,r7,r2
 200259c:	d0a01b17 	ldw	r2,-32660(gp)
 20025a0:	10800724 	muli	r2,r2,28
 20025a4:	1007883a 	mov	r3,r2
 20025a8:	e0bffd17 	ldw	r2,-12(fp)
 20025ac:	1885883a 	add	r2,r3,r2
 20025b0:	11000517 	ldw	r4,20(r2)
 20025b4:	e0bffe17 	ldw	r2,-8(fp)
 20025b8:	10c00504 	addi	r3,r2,20
 20025bc:	d0a01c17 	ldw	r2,-32656(gp)
 20025c0:	1085883a 	add	r2,r2,r2
 20025c4:	1085883a 	add	r2,r2,r2
 20025c8:	10c5883a 	add	r2,r2,r3
 20025cc:	10800017 	ldw	r2,0(r2)
 20025d0:	2085ff32 	custom	252,r2,r4,r2
 20025d4:	388fff72 	custom	253,r7,r7,r2
 20025d8:	d0a01b17 	ldw	r2,-32660(gp)
 20025dc:	10800724 	muli	r2,r2,28
 20025e0:	1007883a 	mov	r3,r2
 20025e4:	e0bffd17 	ldw	r2,-12(fp)
 20025e8:	1885883a 	add	r2,r3,r2
 20025ec:	11000617 	ldw	r4,24(r2)
 20025f0:	e0bffe17 	ldw	r2,-8(fp)
 20025f4:	10c00604 	addi	r3,r2,24
 20025f8:	d0a01c17 	ldw	r2,-32656(gp)
 20025fc:	1085883a 	add	r2,r2,r2
 2002600:	1085883a 	add	r2,r2,r2
 2002604:	10c5883a 	add	r2,r2,r3
 2002608:	10800017 	ldw	r2,0(r2)
 200260c:	2085ff32 	custom	252,r2,r4,r2
 2002610:	3887ff72 	custom	253,r3,r7,r2
 2002614:	3185883a 	add	r2,r6,r6
 2002618:	1085883a 	add	r2,r2,r2
 200261c:	1145883a 	add	r2,r2,r5
 2002620:	10c00015 	stw	r3,0(r2)
 2002624:	d0a01c17 	ldw	r2,-32656(gp)
 2002628:	10800044 	addi	r2,r2,1
 200262c:	d0a01c15 	stw	r2,-32656(gp)
 2002630:	d0a01c17 	ldw	r2,-32656(gp)
 2002634:	10800050 	cmplti	r2,r2,1
 2002638:	103f881e 	bne	r2,zero,200245c <M_1x7_7x1+0x28>
 200263c:	d0a01b17 	ldw	r2,-32660(gp)
 2002640:	10800044 	addi	r2,r2,1
 2002644:	d0a01b15 	stw	r2,-32660(gp)
 2002648:	d0a01b17 	ldw	r2,-32660(gp)
 200264c:	10800050 	cmplti	r2,r2,1
 2002650:	103f801e 	bne	r2,zero,2002454 <M_1x7_7x1+0x20>
 2002654:	e037883a 	mov	sp,fp
 2002658:	df000017 	ldw	fp,0(sp)
 200265c:	dec00104 	addi	sp,sp,4
 2002660:	f800283a 	ret

02002664 <D_7x1_scale>:
 2002664:	defff904 	addi	sp,sp,-28
 2002668:	dfc00615 	stw	ra,24(sp)
 200266c:	df000515 	stw	fp,20(sp)
 2002670:	dc400415 	stw	r17,16(sp)
 2002674:	dc000315 	stw	r16,12(sp)
 2002678:	df000304 	addi	fp,sp,12
 200267c:	e13ffd15 	stw	r4,-12(fp)
 2002680:	e17ffe15 	stw	r5,-8(fp)
 2002684:	e1bfff15 	stw	r6,-4(fp)
 2002688:	d0201b15 	stw	zero,-32660(gp)
 200268c:	00002106 	br	2002714 <D_7x1_scale+0xb0>
 2002690:	d0201c15 	stw	zero,-32656(gp)
 2002694:	00001906 	br	20026fc <D_7x1_scale+0x98>
 2002698:	d0a01b17 	ldw	r2,-32660(gp)
 200269c:	1085883a 	add	r2,r2,r2
 20026a0:	1085883a 	add	r2,r2,r2
 20026a4:	1007883a 	mov	r3,r2
 20026a8:	e0bfff17 	ldw	r2,-4(fp)
 20026ac:	18a3883a 	add	r17,r3,r2
 20026b0:	d4201c17 	ldw	r16,-32656(gp)
 20026b4:	d0a01b17 	ldw	r2,-32660(gp)
 20026b8:	1085883a 	add	r2,r2,r2
 20026bc:	1085883a 	add	r2,r2,r2
 20026c0:	1007883a 	mov	r3,r2
 20026c4:	e0bffd17 	ldw	r2,-12(fp)
 20026c8:	1885883a 	add	r2,r3,r2
 20026cc:	10800017 	ldw	r2,0(r2)
 20026d0:	1009883a 	mov	r4,r2
 20026d4:	e17ffe17 	ldw	r5,-8(fp)
 20026d8:	20089940 	call	2008994 <__divsf3>
 20026dc:	1007883a 	mov	r3,r2
 20026e0:	8405883a 	add	r2,r16,r16
 20026e4:	1085883a 	add	r2,r2,r2
 20026e8:	1445883a 	add	r2,r2,r17
 20026ec:	10c00015 	stw	r3,0(r2)
 20026f0:	d0a01c17 	ldw	r2,-32656(gp)
 20026f4:	10800044 	addi	r2,r2,1
 20026f8:	d0a01c15 	stw	r2,-32656(gp)
 20026fc:	d0a01c17 	ldw	r2,-32656(gp)
 2002700:	10800050 	cmplti	r2,r2,1
 2002704:	103fe41e 	bne	r2,zero,2002698 <D_7x1_scale+0x34>
 2002708:	d0a01b17 	ldw	r2,-32660(gp)
 200270c:	10800044 	addi	r2,r2,1
 2002710:	d0a01b15 	stw	r2,-32660(gp)
 2002714:	d0a01b17 	ldw	r2,-32660(gp)
 2002718:	108001d0 	cmplti	r2,r2,7
 200271c:	103fdc1e 	bne	r2,zero,2002690 <D_7x1_scale+0x2c>
 2002720:	e037883a 	mov	sp,fp
 2002724:	dfc00317 	ldw	ra,12(sp)
 2002728:	df000217 	ldw	fp,8(sp)
 200272c:	dc400117 	ldw	r17,4(sp)
 2002730:	dc000017 	ldw	r16,0(sp)
 2002734:	dec00404 	addi	sp,sp,16
 2002738:	f800283a 	ret

0200273c <M_7x1_scale>:
 200273c:	defffc04 	addi	sp,sp,-16
 2002740:	df000315 	stw	fp,12(sp)
 2002744:	df000304 	addi	fp,sp,12
 2002748:	e13ffd15 	stw	r4,-12(fp)
 200274c:	e17ffe15 	stw	r5,-8(fp)
 2002750:	e1bfff15 	stw	r6,-4(fp)
 2002754:	d0201b15 	stw	zero,-32660(gp)
 2002758:	00001f06 	br	20027d8 <M_7x1_scale+0x9c>
 200275c:	d0201c15 	stw	zero,-32656(gp)
 2002760:	00001706 	br	20027c0 <M_7x1_scale+0x84>
 2002764:	d0a01b17 	ldw	r2,-32660(gp)
 2002768:	1085883a 	add	r2,r2,r2
 200276c:	1085883a 	add	r2,r2,r2
 2002770:	1007883a 	mov	r3,r2
 2002774:	e0bfff17 	ldw	r2,-4(fp)
 2002778:	188b883a 	add	r5,r3,r2
 200277c:	d1201c17 	ldw	r4,-32656(gp)
 2002780:	d0a01b17 	ldw	r2,-32660(gp)
 2002784:	1085883a 	add	r2,r2,r2
 2002788:	1085883a 	add	r2,r2,r2
 200278c:	1007883a 	mov	r3,r2
 2002790:	e0bffd17 	ldw	r2,-12(fp)
 2002794:	1885883a 	add	r2,r3,r2
 2002798:	10c00017 	ldw	r3,0(r2)
 200279c:	e0bffe17 	ldw	r2,-8(fp)
 20027a0:	1887ff32 	custom	252,r3,r3,r2
 20027a4:	2105883a 	add	r2,r4,r4
 20027a8:	1085883a 	add	r2,r2,r2
 20027ac:	1145883a 	add	r2,r2,r5
 20027b0:	10c00015 	stw	r3,0(r2)
 20027b4:	d0a01c17 	ldw	r2,-32656(gp)
 20027b8:	10800044 	addi	r2,r2,1
 20027bc:	d0a01c15 	stw	r2,-32656(gp)
 20027c0:	d0a01c17 	ldw	r2,-32656(gp)
 20027c4:	10800050 	cmplti	r2,r2,1
 20027c8:	103fe61e 	bne	r2,zero,2002764 <M_7x1_scale+0x28>
 20027cc:	d0a01b17 	ldw	r2,-32660(gp)
 20027d0:	10800044 	addi	r2,r2,1
 20027d4:	d0a01b15 	stw	r2,-32660(gp)
 20027d8:	d0a01b17 	ldw	r2,-32660(gp)
 20027dc:	108001d0 	cmplti	r2,r2,7
 20027e0:	103fde1e 	bne	r2,zero,200275c <M_7x1_scale+0x20>
 20027e4:	e037883a 	mov	sp,fp
 20027e8:	df000017 	ldw	fp,0(sp)
 20027ec:	dec00104 	addi	sp,sp,4
 20027f0:	f800283a 	ret

020027f4 <S_7x1>:
 20027f4:	defffc04 	addi	sp,sp,-16
 20027f8:	df000315 	stw	fp,12(sp)
 20027fc:	df000304 	addi	fp,sp,12
 2002800:	e13ffd15 	stw	r4,-12(fp)
 2002804:	e17ffe15 	stw	r5,-8(fp)
 2002808:	e1bfff15 	stw	r6,-4(fp)
 200280c:	d0201b15 	stw	zero,-32660(gp)
 2002810:	00002d06 	br	20028c8 <S_7x1+0xd4>
 2002814:	d0201c15 	stw	zero,-32656(gp)
 2002818:	00002506 	br	20028b0 <S_7x1+0xbc>
 200281c:	d0a01b17 	ldw	r2,-32660(gp)
 2002820:	1085883a 	add	r2,r2,r2
 2002824:	1085883a 	add	r2,r2,r2
 2002828:	1007883a 	mov	r3,r2
 200282c:	e0bfff17 	ldw	r2,-4(fp)
 2002830:	1889883a 	add	r4,r3,r2
 2002834:	d1601c17 	ldw	r5,-32656(gp)
 2002838:	d0a01b17 	ldw	r2,-32660(gp)
 200283c:	1085883a 	add	r2,r2,r2
 2002840:	1085883a 	add	r2,r2,r2
 2002844:	1007883a 	mov	r3,r2
 2002848:	e0bffd17 	ldw	r2,-12(fp)
 200284c:	1887883a 	add	r3,r3,r2
 2002850:	d0a01c17 	ldw	r2,-32656(gp)
 2002854:	1085883a 	add	r2,r2,r2
 2002858:	1085883a 	add	r2,r2,r2
 200285c:	10c5883a 	add	r2,r2,r3
 2002860:	11800017 	ldw	r6,0(r2)
 2002864:	d0a01b17 	ldw	r2,-32660(gp)
 2002868:	1085883a 	add	r2,r2,r2
 200286c:	1085883a 	add	r2,r2,r2
 2002870:	1007883a 	mov	r3,r2
 2002874:	e0bffe17 	ldw	r2,-8(fp)
 2002878:	1887883a 	add	r3,r3,r2
 200287c:	d0a01c17 	ldw	r2,-32656(gp)
 2002880:	1085883a 	add	r2,r2,r2
 2002884:	1085883a 	add	r2,r2,r2
 2002888:	10c5883a 	add	r2,r2,r3
 200288c:	10800017 	ldw	r2,0(r2)
 2002890:	3087ff72 	custom	253,r3,r6,r2
 2002894:	2945883a 	add	r2,r5,r5
 2002898:	1085883a 	add	r2,r2,r2
 200289c:	1105883a 	add	r2,r2,r4
 20028a0:	10c00015 	stw	r3,0(r2)
 20028a4:	d0a01c17 	ldw	r2,-32656(gp)
 20028a8:	10800044 	addi	r2,r2,1
 20028ac:	d0a01c15 	stw	r2,-32656(gp)
 20028b0:	d0a01c17 	ldw	r2,-32656(gp)
 20028b4:	10800050 	cmplti	r2,r2,1
 20028b8:	103fd81e 	bne	r2,zero,200281c <S_7x1+0x28>
 20028bc:	d0a01b17 	ldw	r2,-32660(gp)
 20028c0:	10800044 	addi	r2,r2,1
 20028c4:	d0a01b15 	stw	r2,-32660(gp)
 20028c8:	d0a01b17 	ldw	r2,-32660(gp)
 20028cc:	108001d0 	cmplti	r2,r2,7
 20028d0:	103fd01e 	bne	r2,zero,2002814 <S_7x1+0x20>
 20028d4:	e037883a 	mov	sp,fp
 20028d8:	df000017 	ldw	fp,0(sp)
 20028dc:	dec00104 	addi	sp,sp,4
 20028e0:	f800283a 	ret

020028e4 <transp_7x1>:
 20028e4:	defffd04 	addi	sp,sp,-12
 20028e8:	df000215 	stw	fp,8(sp)
 20028ec:	df000204 	addi	fp,sp,8
 20028f0:	e13ffe15 	stw	r4,-8(fp)
 20028f4:	e17fff15 	stw	r5,-4(fp)
 20028f8:	d0201b15 	stw	zero,-32660(gp)
 20028fc:	00002006 	br	2002980 <transp_7x1+0x9c>
 2002900:	d0201c15 	stw	zero,-32656(gp)
 2002904:	00001806 	br	2002968 <transp_7x1+0x84>
 2002908:	d0a01c17 	ldw	r2,-32656(gp)
 200290c:	10800724 	muli	r2,r2,28
 2002910:	1007883a 	mov	r3,r2
 2002914:	e0bfff17 	ldw	r2,-4(fp)
 2002918:	188b883a 	add	r5,r3,r2
 200291c:	d1201b17 	ldw	r4,-32660(gp)
 2002920:	d0a01b17 	ldw	r2,-32660(gp)
 2002924:	1085883a 	add	r2,r2,r2
 2002928:	1085883a 	add	r2,r2,r2
 200292c:	1007883a 	mov	r3,r2
 2002930:	e0bffe17 	ldw	r2,-8(fp)
 2002934:	1887883a 	add	r3,r3,r2
 2002938:	d0a01c17 	ldw	r2,-32656(gp)
 200293c:	1085883a 	add	r2,r2,r2
 2002940:	1085883a 	add	r2,r2,r2
 2002944:	10c5883a 	add	r2,r2,r3
 2002948:	10c00017 	ldw	r3,0(r2)
 200294c:	2105883a 	add	r2,r4,r4
 2002950:	1085883a 	add	r2,r2,r2
 2002954:	1145883a 	add	r2,r2,r5
 2002958:	10c00015 	stw	r3,0(r2)
 200295c:	d0a01c17 	ldw	r2,-32656(gp)
 2002960:	10800044 	addi	r2,r2,1
 2002964:	d0a01c15 	stw	r2,-32656(gp)
 2002968:	d0a01c17 	ldw	r2,-32656(gp)
 200296c:	10800050 	cmplti	r2,r2,1
 2002970:	103fe51e 	bne	r2,zero,2002908 <transp_7x1+0x24>
 2002974:	d0a01b17 	ldw	r2,-32660(gp)
 2002978:	10800044 	addi	r2,r2,1
 200297c:	d0a01b15 	stw	r2,-32660(gp)
 2002980:	d0a01b17 	ldw	r2,-32660(gp)
 2002984:	108001d0 	cmplti	r2,r2,7
 2002988:	103fdd1e 	bne	r2,zero,2002900 <transp_7x1+0x1c>
 200298c:	e037883a 	mov	sp,fp
 2002990:	df000017 	ldw	fp,0(sp)
 2002994:	dec00104 	addi	sp,sp,4
 2002998:	f800283a 	ret

0200299c <M_7x1_1x7>:
 200299c:	defffc04 	addi	sp,sp,-16
 20029a0:	df000315 	stw	fp,12(sp)
 20029a4:	df000304 	addi	fp,sp,12
 20029a8:	e13ffd15 	stw	r4,-12(fp)
 20029ac:	e17ffe15 	stw	r5,-8(fp)
 20029b0:	e1bfff15 	stw	r6,-4(fp)
 20029b4:	d0201b15 	stw	zero,-32660(gp)
 20029b8:	00002306 	br	2002a48 <M_7x1_1x7+0xac>
 20029bc:	d0201c15 	stw	zero,-32656(gp)
 20029c0:	00001b06 	br	2002a30 <M_7x1_1x7+0x94>
 20029c4:	d0a01b17 	ldw	r2,-32660(gp)
 20029c8:	10800724 	muli	r2,r2,28
 20029cc:	1007883a 	mov	r3,r2
 20029d0:	e0bfff17 	ldw	r2,-4(fp)
 20029d4:	188b883a 	add	r5,r3,r2
 20029d8:	d1a01c17 	ldw	r6,-32656(gp)
 20029dc:	d0a01b17 	ldw	r2,-32660(gp)
 20029e0:	1085883a 	add	r2,r2,r2
 20029e4:	1085883a 	add	r2,r2,r2
 20029e8:	1007883a 	mov	r3,r2
 20029ec:	e0bffd17 	ldw	r2,-12(fp)
 20029f0:	1885883a 	add	r2,r3,r2
 20029f4:	11000017 	ldw	r4,0(r2)
 20029f8:	d0a01c17 	ldw	r2,-32656(gp)
 20029fc:	e0fffe17 	ldw	r3,-8(fp)
 2002a00:	1085883a 	add	r2,r2,r2
 2002a04:	1085883a 	add	r2,r2,r2
 2002a08:	10c5883a 	add	r2,r2,r3
 2002a0c:	10800017 	ldw	r2,0(r2)
 2002a10:	2087ff32 	custom	252,r3,r4,r2
 2002a14:	3185883a 	add	r2,r6,r6
 2002a18:	1085883a 	add	r2,r2,r2
 2002a1c:	1145883a 	add	r2,r2,r5
 2002a20:	10c00015 	stw	r3,0(r2)
 2002a24:	d0a01c17 	ldw	r2,-32656(gp)
 2002a28:	10800044 	addi	r2,r2,1
 2002a2c:	d0a01c15 	stw	r2,-32656(gp)
 2002a30:	d0a01c17 	ldw	r2,-32656(gp)
 2002a34:	108001d0 	cmplti	r2,r2,7
 2002a38:	103fe21e 	bne	r2,zero,20029c4 <M_7x1_1x7+0x28>
 2002a3c:	d0a01b17 	ldw	r2,-32660(gp)
 2002a40:	10800044 	addi	r2,r2,1
 2002a44:	d0a01b15 	stw	r2,-32660(gp)
 2002a48:	d0a01b17 	ldw	r2,-32660(gp)
 2002a4c:	108001d0 	cmplti	r2,r2,7
 2002a50:	103fda1e 	bne	r2,zero,20029bc <M_7x1_1x7+0x20>
 2002a54:	e037883a 	mov	sp,fp
 2002a58:	df000017 	ldw	fp,0(sp)
 2002a5c:	dec00104 	addi	sp,sp,4
 2002a60:	f800283a 	ret

02002a64 <R_7x7>:
 2002a64:	defffc04 	addi	sp,sp,-16
 2002a68:	df000315 	stw	fp,12(sp)
 2002a6c:	df000304 	addi	fp,sp,12
 2002a70:	e13ffd15 	stw	r4,-12(fp)
 2002a74:	e17ffe15 	stw	r5,-8(fp)
 2002a78:	e1bfff15 	stw	r6,-4(fp)
 2002a7c:	d0201b15 	stw	zero,-32660(gp)
 2002a80:	00002a06 	br	2002b2c <R_7x7+0xc8>
 2002a84:	d0201c15 	stw	zero,-32656(gp)
 2002a88:	00002206 	br	2002b14 <R_7x7+0xb0>
 2002a8c:	d0a01b17 	ldw	r2,-32660(gp)
 2002a90:	10800724 	muli	r2,r2,28
 2002a94:	1007883a 	mov	r3,r2
 2002a98:	e0bfff17 	ldw	r2,-4(fp)
 2002a9c:	1889883a 	add	r4,r3,r2
 2002aa0:	d1601c17 	ldw	r5,-32656(gp)
 2002aa4:	d0a01b17 	ldw	r2,-32660(gp)
 2002aa8:	10800724 	muli	r2,r2,28
 2002aac:	1007883a 	mov	r3,r2
 2002ab0:	e0bffd17 	ldw	r2,-12(fp)
 2002ab4:	1887883a 	add	r3,r3,r2
 2002ab8:	d0a01c17 	ldw	r2,-32656(gp)
 2002abc:	1085883a 	add	r2,r2,r2
 2002ac0:	1085883a 	add	r2,r2,r2
 2002ac4:	10c5883a 	add	r2,r2,r3
 2002ac8:	11800017 	ldw	r6,0(r2)
 2002acc:	d0a01b17 	ldw	r2,-32660(gp)
 2002ad0:	10800724 	muli	r2,r2,28
 2002ad4:	1007883a 	mov	r3,r2
 2002ad8:	e0bffe17 	ldw	r2,-8(fp)
 2002adc:	1887883a 	add	r3,r3,r2
 2002ae0:	d0a01c17 	ldw	r2,-32656(gp)
 2002ae4:	1085883a 	add	r2,r2,r2
 2002ae8:	1085883a 	add	r2,r2,r2
 2002aec:	10c5883a 	add	r2,r2,r3
 2002af0:	10800017 	ldw	r2,0(r2)
 2002af4:	3087ffb2 	custom	254,r3,r6,r2
 2002af8:	2945883a 	add	r2,r5,r5
 2002afc:	1085883a 	add	r2,r2,r2
 2002b00:	1105883a 	add	r2,r2,r4
 2002b04:	10c00015 	stw	r3,0(r2)
 2002b08:	d0a01c17 	ldw	r2,-32656(gp)
 2002b0c:	10800044 	addi	r2,r2,1
 2002b10:	d0a01c15 	stw	r2,-32656(gp)
 2002b14:	d0a01c17 	ldw	r2,-32656(gp)
 2002b18:	108001d0 	cmplti	r2,r2,7
 2002b1c:	103fdb1e 	bne	r2,zero,2002a8c <R_7x7+0x28>
 2002b20:	d0a01b17 	ldw	r2,-32660(gp)
 2002b24:	10800044 	addi	r2,r2,1
 2002b28:	d0a01b15 	stw	r2,-32660(gp)
 2002b2c:	d0a01b17 	ldw	r2,-32660(gp)
 2002b30:	108001d0 	cmplti	r2,r2,7
 2002b34:	103fd31e 	bne	r2,zero,2002a84 <R_7x7+0x20>
 2002b38:	e037883a 	mov	sp,fp
 2002b3c:	df000017 	ldw	fp,0(sp)
 2002b40:	dec00104 	addi	sp,sp,4
 2002b44:	f800283a 	ret

02002b48 <qPID_Init>:
 2002b48:	defffe04 	addi	sp,sp,-8
 2002b4c:	df000115 	stw	fp,4(sp)
 2002b50:	df000104 	addi	fp,sp,4
 2002b54:	e13fff15 	stw	r4,-4(fp)
 2002b58:	e0bfff17 	ldw	r2,-4(fp)
 2002b5c:	10000f15 	stw	zero,60(r2)
 2002b60:	e0bfff17 	ldw	r2,-4(fp)
 2002b64:	10001015 	stw	zero,64(r2)
 2002b68:	e0bfff17 	ldw	r2,-4(fp)
 2002b6c:	10000e15 	stw	zero,56(r2)
 2002b70:	e0bfff17 	ldw	r2,-4(fp)
 2002b74:	10001115 	stw	zero,68(r2)
 2002b78:	e037883a 	mov	sp,fp
 2002b7c:	df000017 	ldw	fp,0(sp)
 2002b80:	dec00104 	addi	sp,sp,4
 2002b84:	f800283a 	ret

02002b88 <qPID_Process_>:
 2002b88:	deffed04 	addi	sp,sp,-76
 2002b8c:	dfc01215 	stw	ra,72(sp)
 2002b90:	df001115 	stw	fp,68(sp)
 2002b94:	dc001015 	stw	r16,64(sp)
 2002b98:	df001004 	addi	fp,sp,64
 2002b9c:	e13ffb15 	stw	r4,-20(fp)
 2002ba0:	e17ffc15 	stw	r5,-16(fp)
 2002ba4:	e1bffd15 	stw	r6,-12(fp)
 2002ba8:	e1fffe15 	stw	r7,-8(fp)
 2002bac:	e0bffb17 	ldw	r2,-20(fp)
 2002bb0:	10c00117 	ldw	r3,4(r2)
 2002bb4:	00a00034 	movhi	r2,32768
 2002bb8:	10bfffc4 	addi	r2,r2,-1
 2002bbc:	1884703a 	and	r2,r3,r2
 2002bc0:	1009883a 	mov	r4,r2
 2002bc4:	014cf5f4 	movhi	r5,13271
 2002bc8:	296fe544 	addi	r5,r5,-16491
 2002bcc:	2008bf80 	call	2008bf8 <__ltsf2>
 2002bd0:	1004803a 	cmplt	r2,r2,zero
 2002bd4:	1000011e 	bne	r2,zero,2002bdc <qPID_Process_+0x54>
 2002bd8:	00000406 	br	2002bec <qPID_Process_+0x64>
 2002bdc:	e0fffb17 	ldw	r3,-20(fp)
 2002be0:	008cf5f4 	movhi	r2,13271
 2002be4:	10afe544 	addi	r2,r2,-16491
 2002be8:	18800115 	stw	r2,4(r3)
 2002bec:	e0bffb17 	ldw	r2,-20(fp)
 2002bf0:	10800017 	ldw	r2,0(r2)
 2002bf4:	e0bff615 	stw	r2,-40(fp)
 2002bf8:	e0bffb17 	ldw	r2,-20(fp)
 2002bfc:	10c00017 	ldw	r3,0(r2)
 2002c00:	e0bffb17 	ldw	r2,-20(fp)
 2002c04:	10800917 	ldw	r2,36(r2)
 2002c08:	1887ff32 	custom	252,r3,r3,r2
 2002c0c:	e0bffb17 	ldw	r2,-20(fp)
 2002c10:	10800117 	ldw	r2,4(r2)
 2002c14:	1809883a 	mov	r4,r3
 2002c18:	100b883a 	mov	r5,r2
 2002c1c:	20089940 	call	2008994 <__divsf3>
 2002c20:	e0bff515 	stw	r2,-44(fp)
 2002c24:	e0bffb17 	ldw	r2,-20(fp)
 2002c28:	11000217 	ldw	r4,8(r2)
 2002c2c:	e0bffb17 	ldw	r2,-20(fp)
 2002c30:	11400217 	ldw	r5,8(r2)
 2002c34:	e0bffb17 	ldw	r2,-20(fp)
 2002c38:	10c00617 	ldw	r3,24(r2)
 2002c3c:	e0bffb17 	ldw	r2,-20(fp)
 2002c40:	10800917 	ldw	r2,36(r2)
 2002c44:	1885ff32 	custom	252,r2,r3,r2
 2002c48:	2885ff72 	custom	253,r2,r5,r2
 2002c4c:	100b883a 	mov	r5,r2
 2002c50:	20089940 	call	2008994 <__divsf3>
 2002c54:	e0bff415 	stw	r2,-48(fp)
 2002c58:	e0bffb17 	ldw	r2,-20(fp)
 2002c5c:	10c00017 	ldw	r3,0(r2)
 2002c60:	e0bffb17 	ldw	r2,-20(fp)
 2002c64:	10800217 	ldw	r2,8(r2)
 2002c68:	1887ff32 	custom	252,r3,r3,r2
 2002c6c:	e0bffb17 	ldw	r2,-20(fp)
 2002c70:	10800617 	ldw	r2,24(r2)
 2002c74:	1889ff32 	custom	252,r4,r3,r2
 2002c78:	e0bffb17 	ldw	r2,-20(fp)
 2002c7c:	11400217 	ldw	r5,8(r2)
 2002c80:	e0bffb17 	ldw	r2,-20(fp)
 2002c84:	10c00617 	ldw	r3,24(r2)
 2002c88:	e0bffb17 	ldw	r2,-20(fp)
 2002c8c:	10800917 	ldw	r2,36(r2)
 2002c90:	1885ff32 	custom	252,r2,r3,r2
 2002c94:	2885ff72 	custom	253,r2,r5,r2
 2002c98:	100b883a 	mov	r5,r2
 2002c9c:	20089940 	call	2008994 <__divsf3>
 2002ca0:	e0bff315 	stw	r2,-52(fp)
 2002ca4:	e0bffb17 	ldw	r2,-20(fp)
 2002ca8:	10c00817 	ldw	r3,32(r2)
 2002cac:	e0bffb17 	ldw	r2,-20(fp)
 2002cb0:	10800017 	ldw	r2,0(r2)
 2002cb4:	1887ff32 	custom	252,r3,r3,r2
 2002cb8:	e0bffb17 	ldw	r2,-20(fp)
 2002cbc:	10800217 	ldw	r2,8(r2)
 2002cc0:	1887ff32 	custom	252,r3,r3,r2
 2002cc4:	e0bffb17 	ldw	r2,-20(fp)
 2002cc8:	10800617 	ldw	r2,24(r2)
 2002ccc:	1889ff32 	custom	252,r4,r3,r2
 2002cd0:	e0bffb17 	ldw	r2,-20(fp)
 2002cd4:	11400217 	ldw	r5,8(r2)
 2002cd8:	e0bffb17 	ldw	r2,-20(fp)
 2002cdc:	10c00617 	ldw	r3,24(r2)
 2002ce0:	e0bffb17 	ldw	r2,-20(fp)
 2002ce4:	10800917 	ldw	r2,36(r2)
 2002ce8:	1885ff32 	custom	252,r2,r3,r2
 2002cec:	2885ff72 	custom	253,r2,r5,r2
 2002cf0:	100b883a 	mov	r5,r2
 2002cf4:	20089940 	call	2008994 <__divsf3>
 2002cf8:	e0bff215 	stw	r2,-56(fp)
 2002cfc:	e0bffb17 	ldw	r2,-20(fp)
 2002d00:	10c00717 	ldw	r3,28(r2)
 2002d04:	e0bffc17 	ldw	r2,-16(fp)
 2002d08:	1887ff32 	custom	252,r3,r3,r2
 2002d0c:	e0bffd17 	ldw	r2,-12(fp)
 2002d10:	1887ffb2 	custom	254,r3,r3,r2
 2002d14:	e0bff617 	ldw	r2,-40(fp)
 2002d18:	1885ff32 	custom	252,r2,r3,r2
 2002d1c:	e0bff915 	stw	r2,-28(fp)
 2002d20:	e0bffb17 	ldw	r2,-20(fp)
 2002d24:	10c01017 	ldw	r3,64(r2)
 2002d28:	e0bff417 	ldw	r2,-48(fp)
 2002d2c:	1889ff32 	custom	252,r4,r3,r2
 2002d30:	e0bffb17 	ldw	r2,-20(fp)
 2002d34:	10c00e17 	ldw	r3,56(r2)
 2002d38:	e0bffd17 	ldw	r2,-12(fp)
 2002d3c:	10c7ffb2 	custom	254,r3,r2,r3
 2002d40:	e0bff317 	ldw	r2,-52(fp)
 2002d44:	1885ff32 	custom	252,r2,r3,r2
 2002d48:	2089ffb2 	custom	254,r4,r4,r2
 2002d4c:	e0bffb17 	ldw	r2,-20(fp)
 2002d50:	10c01117 	ldw	r3,68(r2)
 2002d54:	e0bffc17 	ldw	r2,-16(fp)
 2002d58:	10c7ffb2 	custom	254,r3,r2,r3
 2002d5c:	e0bff217 	ldw	r2,-56(fp)
 2002d60:	1885ff32 	custom	252,r2,r3,r2
 2002d64:	2085ff72 	custom	253,r2,r4,r2
 2002d68:	e0bff715 	stw	r2,-36(fp)
 2002d6c:	e0bffb17 	ldw	r2,-20(fp)
 2002d70:	10800f17 	ldw	r2,60(r2)
 2002d74:	e0bff815 	stw	r2,-32(fp)
 2002d78:	e0bffb17 	ldw	r2,-20(fp)
 2002d7c:	10800a17 	ldw	r2,40(r2)
 2002d80:	e0bfff15 	stw	r2,-4(fp)
 2002d84:	e0ffff17 	ldw	r3,-4(fp)
 2002d88:	18800060 	cmpeqi	r2,r3,1
 2002d8c:	1000111e 	bne	r2,zero,2002dd4 <qPID_Process_+0x24c>
 2002d90:	e0ffff17 	ldw	r3,-4(fp)
 2002d94:	18800070 	cmpltui	r2,r3,1
 2002d98:	1000041e 	bne	r2,zero,2002dac <qPID_Process_+0x224>
 2002d9c:	e0ffff17 	ldw	r3,-4(fp)
 2002da0:	188000a0 	cmpeqi	r2,r3,2
 2002da4:	10002b1e 	bne	r2,zero,2002e54 <qPID_Process_+0x2cc>
 2002da8:	00003b06 	br	2002e98 <qPID_Process_+0x310>
 2002dac:	e0bffc17 	ldw	r2,-16(fp)
 2002db0:	e0bffa15 	stw	r2,-24(fp)
 2002db4:	e0bffb17 	ldw	r2,-20(fp)
 2002db8:	10800c17 	ldw	r2,48(r2)
 2002dbc:	10800058 	cmpnei	r2,r2,1
 2002dc0:	1000371e 	bne	r2,zero,2002ea0 <qPID_Process_+0x318>
 2002dc4:	e0fffb17 	ldw	r3,-20(fp)
 2002dc8:	e0bffd17 	ldw	r2,-12(fp)
 2002dcc:	18800f15 	stw	r2,60(r3)
 2002dd0:	00003306 	br	2002ea0 <qPID_Process_+0x318>
 2002dd4:	e0fff917 	ldw	r3,-28(fp)
 2002dd8:	e0bff817 	ldw	r2,-32(fp)
 2002ddc:	1887ff72 	custom	253,r3,r3,r2
 2002de0:	e0bff717 	ldw	r2,-36(fp)
 2002de4:	1885ff72 	custom	253,r2,r3,r2
 2002de8:	e0bffa15 	stw	r2,-24(fp)
 2002dec:	e0bffa17 	ldw	r2,-24(fp)
 2002df0:	e0bff115 	stw	r2,-60(fp)
 2002df4:	e0bffb17 	ldw	r2,-20(fp)
 2002df8:	10800417 	ldw	r2,16(r2)
 2002dfc:	1009883a 	mov	r4,r2
 2002e00:	e17ffa17 	ldw	r5,-24(fp)
 2002e04:	2008bf80 	call	2008bf8 <__ltsf2>
 2002e08:	1004803a 	cmplt	r2,r2,zero
 2002e0c:	1000011e 	bne	r2,zero,2002e14 <qPID_Process_+0x28c>
 2002e10:	00000406 	br	2002e24 <qPID_Process_+0x29c>
 2002e14:	e0bffb17 	ldw	r2,-20(fp)
 2002e18:	10800417 	ldw	r2,16(r2)
 2002e1c:	e0bffa15 	stw	r2,-24(fp)
 2002e20:	00001f06 	br	2002ea0 <qPID_Process_+0x318>
 2002e24:	e0bffb17 	ldw	r2,-20(fp)
 2002e28:	10800517 	ldw	r2,20(r2)
 2002e2c:	1009883a 	mov	r4,r2
 2002e30:	e17ffa17 	ldw	r5,-24(fp)
 2002e34:	2008b080 	call	2008b08 <__gtsf2>
 2002e38:	10800048 	cmpgei	r2,r2,1
 2002e3c:	1000011e 	bne	r2,zero,2002e44 <qPID_Process_+0x2bc>
 2002e40:	00001706 	br	2002ea0 <qPID_Process_+0x318>
 2002e44:	e0bffb17 	ldw	r2,-20(fp)
 2002e48:	10800517 	ldw	r2,20(r2)
 2002e4c:	e0bffa15 	stw	r2,-24(fp)
 2002e50:	00001306 	br	2002ea0 <qPID_Process_+0x318>
 2002e54:	e0fffc17 	ldw	r3,-16(fp)
 2002e58:	e0bffd17 	ldw	r2,-12(fp)
 2002e5c:	1885ffb2 	custom	254,r2,r3,r2
 2002e60:	1009883a 	mov	r4,r2
 2002e64:	000b883a 	mov	r5,zero
 2002e68:	2008b800 	call	2008b80 <__gesf2>
 2002e6c:	1004403a 	cmpge	r2,r2,zero
 2002e70:	1000011e 	bne	r2,zero,2002e78 <qPID_Process_+0x2f0>
 2002e74:	00000406 	br	2002e88 <qPID_Process_+0x300>
 2002e78:	e0bffb17 	ldw	r2,-20(fp)
 2002e7c:	10800417 	ldw	r2,16(r2)
 2002e80:	e0bffa15 	stw	r2,-24(fp)
 2002e84:	00000606 	br	2002ea0 <qPID_Process_+0x318>
 2002e88:	e0bffb17 	ldw	r2,-20(fp)
 2002e8c:	10800517 	ldw	r2,20(r2)
 2002e90:	e0bffa15 	stw	r2,-24(fp)
 2002e94:	00000206 	br	2002ea0 <qPID_Process_+0x318>
 2002e98:	009ff034 	movhi	r2,32704
 2002e9c:	e0bffa15 	stw	r2,-24(fp)
 2002ea0:	e0bffe17 	ldw	r2,-8(fp)
 2002ea4:	1005003a 	cmpeq	r2,r2,zero
 2002ea8:	10000b1e 	bne	r2,zero,2002ed8 <qPID_Process_+0x350>
 2002eac:	e0fffe17 	ldw	r3,-8(fp)
 2002eb0:	e0bff917 	ldw	r2,-28(fp)
 2002eb4:	18800015 	stw	r2,0(r3)
 2002eb8:	e0bffe17 	ldw	r2,-8(fp)
 2002ebc:	10c00104 	addi	r3,r2,4
 2002ec0:	e0bff817 	ldw	r2,-32(fp)
 2002ec4:	18800015 	stw	r2,0(r3)
 2002ec8:	e0bffe17 	ldw	r2,-8(fp)
 2002ecc:	10c00204 	addi	r3,r2,8
 2002ed0:	e0bff717 	ldw	r2,-36(fp)
 2002ed4:	18800015 	stw	r2,0(r3)
 2002ed8:	e0bffb17 	ldw	r2,-20(fp)
 2002edc:	11000f17 	ldw	r4,60(r2)
 2002ee0:	e0fffc17 	ldw	r3,-16(fp)
 2002ee4:	e0bffd17 	ldw	r2,-12(fp)
 2002ee8:	1887ffb2 	custom	254,r3,r3,r2
 2002eec:	e0bff517 	ldw	r2,-44(fp)
 2002ef0:	1885ff32 	custom	252,r2,r3,r2
 2002ef4:	2085ff72 	custom	253,r2,r4,r2
 2002ef8:	e0bff815 	stw	r2,-32(fp)
 2002efc:	e03ff015 	stw	zero,-64(fp)
 2002f00:	e0bffb17 	ldw	r2,-20(fp)
 2002f04:	10800b17 	ldw	r2,44(r2)
 2002f08:	10800058 	cmpnei	r2,r2,1
 2002f0c:	1000391e 	bne	r2,zero,2002ff4 <qPID_Process_+0x46c>
 2002f10:	e0bffb17 	ldw	r2,-20(fp)
 2002f14:	10800a17 	ldw	r2,40(r2)
 2002f18:	10800058 	cmpnei	r2,r2,1
 2002f1c:	1000351e 	bne	r2,zero,2002ff4 <qPID_Process_+0x46c>
 2002f20:	e0bffb17 	ldw	r2,-20(fp)
 2002f24:	10800417 	ldw	r2,16(r2)
 2002f28:	1009883a 	mov	r4,r2
 2002f2c:	e17ff117 	ldw	r5,-60(fp)
 2002f30:	2008bf80 	call	2008bf8 <__ltsf2>
 2002f34:	1004803a 	cmplt	r2,r2,zero
 2002f38:	1000011e 	bne	r2,zero,2002f40 <qPID_Process_+0x3b8>
 2002f3c:	00001306 	br	2002f8c <qPID_Process_+0x404>
 2002f40:	e0bffb17 	ldw	r2,-20(fp)
 2002f44:	14000917 	ldw	r16,36(r2)
 2002f48:	e0bffb17 	ldw	r2,-20(fp)
 2002f4c:	10800317 	ldw	r2,12(r2)
 2002f50:	010fe034 	movhi	r4,16256
 2002f54:	100b883a 	mov	r5,r2
 2002f58:	20089940 	call	2008994 <__divsf3>
 2002f5c:	8089ff32 	custom	252,r4,r16,r2
 2002f60:	e0bffb17 	ldw	r2,-20(fp)
 2002f64:	10c00417 	ldw	r3,16(r2)
 2002f68:	e0bff117 	ldw	r2,-60(fp)
 2002f6c:	1885ffb2 	custom	254,r2,r3,r2
 2002f70:	2085ff32 	custom	252,r2,r4,r2
 2002f74:	e0bff015 	stw	r2,-64(fp)
 2002f78:	e0fff817 	ldw	r3,-32(fp)
 2002f7c:	e0bff017 	ldw	r2,-64(fp)
 2002f80:	1885ff72 	custom	253,r2,r3,r2
 2002f84:	e0bff815 	stw	r2,-32(fp)
 2002f88:	00001a06 	br	2002ff4 <qPID_Process_+0x46c>
 2002f8c:	e0bffb17 	ldw	r2,-20(fp)
 2002f90:	10800517 	ldw	r2,20(r2)
 2002f94:	1009883a 	mov	r4,r2
 2002f98:	e17ff117 	ldw	r5,-60(fp)
 2002f9c:	2008b080 	call	2008b08 <__gtsf2>
 2002fa0:	10800048 	cmpgei	r2,r2,1
 2002fa4:	1000011e 	bne	r2,zero,2002fac <qPID_Process_+0x424>
 2002fa8:	00001206 	br	2002ff4 <qPID_Process_+0x46c>
 2002fac:	e0bffb17 	ldw	r2,-20(fp)
 2002fb0:	14000917 	ldw	r16,36(r2)
 2002fb4:	e0bffb17 	ldw	r2,-20(fp)
 2002fb8:	10800317 	ldw	r2,12(r2)
 2002fbc:	010fe034 	movhi	r4,16256
 2002fc0:	100b883a 	mov	r5,r2
 2002fc4:	20089940 	call	2008994 <__divsf3>
 2002fc8:	8089ff32 	custom	252,r4,r16,r2
 2002fcc:	e0bffb17 	ldw	r2,-20(fp)
 2002fd0:	10c00517 	ldw	r3,20(r2)
 2002fd4:	e0bff117 	ldw	r2,-60(fp)
 2002fd8:	1885ffb2 	custom	254,r2,r3,r2
 2002fdc:	2085ff32 	custom	252,r2,r4,r2
 2002fe0:	e0bff015 	stw	r2,-64(fp)
 2002fe4:	e0fff817 	ldw	r3,-32(fp)
 2002fe8:	e0bff017 	ldw	r2,-64(fp)
 2002fec:	1885ff72 	custom	253,r2,r3,r2
 2002ff0:	e0bff815 	stw	r2,-32(fp)
 2002ff4:	e0bffb17 	ldw	r2,-20(fp)
 2002ff8:	10800d17 	ldw	r2,52(r2)
 2002ffc:	1004c03a 	cmpne	r2,r2,zero
 2003000:	1000011e 	bne	r2,zero,2003008 <qPID_Process_+0x480>
 2003004:	e03ff815 	stw	zero,-32(fp)
 2003008:	e0fffb17 	ldw	r3,-20(fp)
 200300c:	e0bff817 	ldw	r2,-32(fp)
 2003010:	18800f15 	stw	r2,60(r3)
 2003014:	e0fffb17 	ldw	r3,-20(fp)
 2003018:	e0bff717 	ldw	r2,-36(fp)
 200301c:	18801015 	stw	r2,64(r3)
 2003020:	e0fffb17 	ldw	r3,-20(fp)
 2003024:	e0bffd17 	ldw	r2,-12(fp)
 2003028:	18800e15 	stw	r2,56(r3)
 200302c:	e0fffb17 	ldw	r3,-20(fp)
 2003030:	e0bffc17 	ldw	r2,-16(fp)
 2003034:	18801115 	stw	r2,68(r3)
 2003038:	e0bffa17 	ldw	r2,-24(fp)
 200303c:	e037883a 	mov	sp,fp
 2003040:	dfc00217 	ldw	ra,8(sp)
 2003044:	df000117 	ldw	fp,4(sp)
 2003048:	dc000017 	ldw	r16,0(sp)
 200304c:	dec00304 	addi	sp,sp,12
 2003050:	f800283a 	ret

02003054 <UART_SendChar>:
 2003054:	defffe04 	addi	sp,sp,-8
 2003058:	df000115 	stw	fp,4(sp)
 200305c:	df000104 	addi	fp,sp,4
 2003060:	e13fff05 	stb	r4,-4(fp)
 2003064:	e0bfff07 	ldb	r2,-4(fp)
 2003068:	10ffc014 	ori	r3,r2,65280
 200306c:	00810034 	movhi	r2,1024
 2003070:	10887404 	addi	r2,r2,8656
 2003074:	10c00035 	stwio	r3,0(r2)
 2003078:	00810034 	movhi	r2,1024
 200307c:	10887404 	addi	r2,r2,8656
 2003080:	10000035 	stwio	zero,0(r2)
 2003084:	e037883a 	mov	sp,fp
 2003088:	df000017 	ldw	fp,0(sp)
 200308c:	dec00104 	addi	sp,sp,4
 2003090:	f800283a 	ret

02003094 <UART_SendString>:
 2003094:	defffc04 	addi	sp,sp,-16
 2003098:	dfc00315 	stw	ra,12(sp)
 200309c:	df000215 	stw	fp,8(sp)
 20030a0:	df000204 	addi	fp,sp,8
 20030a4:	e13fff15 	stw	r4,-4(fp)
 20030a8:	e0bfff17 	ldw	r2,-4(fp)
 20030ac:	e0bffe15 	stw	r2,-8(fp)
 20030b0:	00000906 	br	20030d8 <UART_SendString+0x44>
 20030b4:	e0bffe17 	ldw	r2,-8(fp)
 20030b8:	10800003 	ldbu	r2,0(r2)
 20030bc:	11003fcc 	andi	r4,r2,255
 20030c0:	2100201c 	xori	r4,r4,128
 20030c4:	213fe004 	addi	r4,r4,-128
 20030c8:	e0bffe17 	ldw	r2,-8(fp)
 20030cc:	10800044 	addi	r2,r2,1
 20030d0:	e0bffe15 	stw	r2,-8(fp)
 20030d4:	20030540 	call	2003054 <UART_SendChar>
 20030d8:	e0bffe17 	ldw	r2,-8(fp)
 20030dc:	10800003 	ldbu	r2,0(r2)
 20030e0:	10803fcc 	andi	r2,r2,255
 20030e4:	1080201c 	xori	r2,r2,128
 20030e8:	10bfe004 	addi	r2,r2,-128
 20030ec:	1004c03a 	cmpne	r2,r2,zero
 20030f0:	103ff01e 	bne	r2,zero,20030b4 <UART_SendString+0x20>
 20030f4:	e037883a 	mov	sp,fp
 20030f8:	dfc00117 	ldw	ra,4(sp)
 20030fc:	df000017 	ldw	fp,0(sp)
 2003100:	dec00204 	addi	sp,sp,8
 2003104:	f800283a 	ret

02003108 <UART_SendInt>:
 2003108:	defff704 	addi	sp,sp,-36
 200310c:	dfc00815 	stw	ra,32(sp)
 2003110:	df000715 	stw	fp,28(sp)
 2003114:	df000704 	addi	fp,sp,28
 2003118:	e13fff15 	stw	r4,-4(fp)
 200311c:	e03ffb15 	stw	zero,-20(fp)
 2003120:	e13fff17 	ldw	r4,-4(fp)
 2003124:	01400284 	movi	r5,10
 2003128:	2009e280 	call	2009e28 <__divsi3>
 200312c:	10c002a4 	muli	r3,r2,10
 2003130:	e0bfff17 	ldw	r2,-4(fp)
 2003134:	10c5c83a 	sub	r2,r2,r3
 2003138:	e0bffa15 	stw	r2,-24(fp)
 200313c:	e13fff17 	ldw	r4,-4(fp)
 2003140:	01400284 	movi	r5,10
 2003144:	2009e280 	call	2009e28 <__divsi3>
 2003148:	e0bfff15 	stw	r2,-4(fp)
 200314c:	e0bffa17 	ldw	r2,-24(fp)
 2003150:	10800c04 	addi	r2,r2,48
 2003154:	e0bffa15 	stw	r2,-24(fp)
 2003158:	e13ffb17 	ldw	r4,-20(fp)
 200315c:	e0bffa17 	ldw	r2,-24(fp)
 2003160:	1007883a 	mov	r3,r2
 2003164:	e0bffc04 	addi	r2,fp,-16
 2003168:	1105883a 	add	r2,r2,r4
 200316c:	10c00005 	stb	r3,0(r2)
 2003170:	e0bffb17 	ldw	r2,-20(fp)
 2003174:	10800044 	addi	r2,r2,1
 2003178:	e0bffb15 	stw	r2,-20(fp)
 200317c:	e0bfff17 	ldw	r2,-4(fp)
 2003180:	1004c03a 	cmpne	r2,r2,zero
 2003184:	103fe61e 	bne	r2,zero,2003120 <UART_SendInt+0x18>
 2003188:	e0bffb17 	ldw	r2,-20(fp)
 200318c:	10bfffc4 	addi	r2,r2,-1
 2003190:	e0bff915 	stw	r2,-28(fp)
 2003194:	00000b06 	br	20031c4 <UART_SendInt+0xbc>
 2003198:	e0fff917 	ldw	r3,-28(fp)
 200319c:	e0bffc04 	addi	r2,fp,-16
 20031a0:	10c5883a 	add	r2,r2,r3
 20031a4:	10800003 	ldbu	r2,0(r2)
 20031a8:	11003fcc 	andi	r4,r2,255
 20031ac:	2100201c 	xori	r4,r4,128
 20031b0:	213fe004 	addi	r4,r4,-128
 20031b4:	e0bff917 	ldw	r2,-28(fp)
 20031b8:	10bfffc4 	addi	r2,r2,-1
 20031bc:	e0bff915 	stw	r2,-28(fp)
 20031c0:	20030540 	call	2003054 <UART_SendChar>
 20031c4:	e0fff917 	ldw	r3,-28(fp)
 20031c8:	e0bffc04 	addi	r2,fp,-16
 20031cc:	10c5883a 	add	r2,r2,r3
 20031d0:	10800003 	ldbu	r2,0(r2)
 20031d4:	10803fcc 	andi	r2,r2,255
 20031d8:	1080201c 	xori	r2,r2,128
 20031dc:	10bfe004 	addi	r2,r2,-128
 20031e0:	1004c03a 	cmpne	r2,r2,zero
 20031e4:	103fec1e 	bne	r2,zero,2003198 <UART_SendInt+0x90>
 20031e8:	e037883a 	mov	sp,fp
 20031ec:	dfc00117 	ldw	ra,4(sp)
 20031f0:	df000017 	ldw	fp,0(sp)
 20031f4:	dec00204 	addi	sp,sp,8
 20031f8:	f800283a 	ret

020031fc <a_2decimales>:
 20031fc:	defffa04 	addi	sp,sp,-24
 2003200:	dfc00515 	stw	ra,20(sp)
 2003204:	df000415 	stw	fp,16(sp)
 2003208:	df000404 	addi	fp,sp,16
 200320c:	e13fff15 	stw	r4,-4(fp)
 2003210:	e13fff17 	ldw	r4,-4(fp)
 2003214:	01401904 	movi	r5,100
 2003218:	2009e280 	call	2009e28 <__divsi3>
 200321c:	e0bffe15 	stw	r2,-8(fp)
 2003220:	e13fff17 	ldw	r4,-4(fp)
 2003224:	01401904 	movi	r5,100
 2003228:	2009e880 	call	2009e88 <__modsi3>
 200322c:	1009883a 	mov	r4,r2
 2003230:	01400284 	movi	r5,10
 2003234:	2009e280 	call	2009e28 <__divsi3>
 2003238:	e0bffd15 	stw	r2,-12(fp)
 200323c:	e13fff17 	ldw	r4,-4(fp)
 2003240:	01400284 	movi	r5,10
 2003244:	2009e880 	call	2009e88 <__modsi3>
 2003248:	e0bffc15 	stw	r2,-16(fp)
 200324c:	e13ffe17 	ldw	r4,-8(fp)
 2003250:	20031080 	call	2003108 <UART_SendInt>
 2003254:	01000b04 	movi	r4,44
 2003258:	20030540 	call	2003054 <UART_SendChar>
 200325c:	e13ffd17 	ldw	r4,-12(fp)
 2003260:	20031080 	call	2003108 <UART_SendInt>
 2003264:	e13ffc17 	ldw	r4,-16(fp)
 2003268:	20031080 	call	2003108 <UART_SendInt>
 200326c:	e037883a 	mov	sp,fp
 2003270:	dfc00117 	ldw	ra,4(sp)
 2003274:	df000017 	ldw	fp,0(sp)
 2003278:	dec00204 	addi	sp,sp,8
 200327c:	f800283a 	ret

02003280 <SendTrama>:
 2003280:	defffa04 	addi	sp,sp,-24
 2003284:	dfc00515 	stw	ra,20(sp)
 2003288:	df000415 	stw	fp,16(sp)
 200328c:	df000404 	addi	fp,sp,16
 2003290:	e13ffe15 	stw	r4,-8(fp)
 2003294:	e17fff15 	stw	r5,-4(fp)
 2003298:	e03ffc15 	stw	zero,-16(fp)
 200329c:	00001106 	br	20032e4 <SendTrama+0x64>
 20032a0:	e17ffc17 	ldw	r5,-16(fp)
 20032a4:	e0bffc17 	ldw	r2,-16(fp)
 20032a8:	1085883a 	add	r2,r2,r2
 20032ac:	1085883a 	add	r2,r2,r2
 20032b0:	1007883a 	mov	r3,r2
 20032b4:	e0bffe17 	ldw	r2,-8(fp)
 20032b8:	1885883a 	add	r2,r3,r2
 20032bc:	11000017 	ldw	r4,0(r2)
 20032c0:	00c08074 	movhi	r3,513
 20032c4:	18c34204 	addi	r3,r3,3336
 20032c8:	2945883a 	add	r2,r5,r5
 20032cc:	1085883a 	add	r2,r2,r2
 20032d0:	10c5883a 	add	r2,r2,r3
 20032d4:	11000015 	stw	r4,0(r2)
 20032d8:	e0bffc17 	ldw	r2,-16(fp)
 20032dc:	10800044 	addi	r2,r2,1
 20032e0:	e0bffc15 	stw	r2,-16(fp)
 20032e4:	e0fffc17 	ldw	r3,-16(fp)
 20032e8:	e0bfff17 	ldw	r2,-4(fp)
 20032ec:	18bfec16 	blt	r3,r2,20032a0 <SendTrama+0x20>
 20032f0:	01001604 	movi	r4,88
 20032f4:	20030540 	call	2003054 <UART_SendChar>
 20032f8:	e03ffd15 	stw	zero,-12(fp)
 20032fc:	00001206 	br	2003348 <SendTrama+0xc8>
 2003300:	e0fffd17 	ldw	r3,-12(fp)
 2003304:	00808074 	movhi	r2,513
 2003308:	10834204 	addi	r2,r2,3336
 200330c:	10c5883a 	add	r2,r2,r3
 2003310:	10800003 	ldbu	r2,0(r2)
 2003314:	10803fcc 	andi	r2,r2,255
 2003318:	1080201c 	xori	r2,r2,128
 200331c:	10bfe004 	addi	r2,r2,-128
 2003320:	10ffc014 	ori	r3,r2,65280
 2003324:	00810034 	movhi	r2,1024
 2003328:	10887404 	addi	r2,r2,8656
 200332c:	10c00035 	stwio	r3,0(r2)
 2003330:	00810034 	movhi	r2,1024
 2003334:	10887404 	addi	r2,r2,8656
 2003338:	10000035 	stwio	zero,0(r2)
 200333c:	e0bffd17 	ldw	r2,-12(fp)
 2003340:	10800044 	addi	r2,r2,1
 2003344:	e0bffd15 	stw	r2,-12(fp)
 2003348:	e0fffd17 	ldw	r3,-12(fp)
 200334c:	e0bfff17 	ldw	r2,-4(fp)
 2003350:	1085883a 	add	r2,r2,r2
 2003354:	1085883a 	add	r2,r2,r2
 2003358:	10bfffc4 	addi	r2,r2,-1
 200335c:	10ffe82e 	bgeu	r2,r3,2003300 <SendTrama+0x80>
 2003360:	01001684 	movi	r4,90
 2003364:	20030540 	call	2003054 <UART_SendChar>
 2003368:	e037883a 	mov	sp,fp
 200336c:	dfc00117 	ldw	ra,4(sp)
 2003370:	df000017 	ldw	fp,0(sp)
 2003374:	dec00204 	addi	sp,sp,8
 2003378:	f800283a 	ret

0200337c <isr_handler_timer>:
 200337c:	defffd04 	addi	sp,sp,-12
 2003380:	df000215 	stw	fp,8(sp)
 2003384:	df000204 	addi	fp,sp,8
 2003388:	e13ffe15 	stw	r4,-8(fp)
 200338c:	e17fff15 	stw	r5,-4(fp)
 2003390:	00800044 	movi	r2,1
 2003394:	d0a0a015 	stw	r2,-32128(gp)
 2003398:	00810034 	movhi	r2,1024
 200339c:	10880004 	addi	r2,r2,8192
 20033a0:	10000035 	stwio	zero,0(r2)
 20033a4:	e037883a 	mov	sp,fp
 20033a8:	df000017 	ldw	fp,0(sp)
 20033ac:	dec00104 	addi	sp,sp,4
 20033b0:	f800283a 	ret

020033b4 <isr_handler_TimerONOF>:
 20033b4:	defff804 	addi	sp,sp,-32
 20033b8:	dfc00715 	stw	ra,28(sp)
 20033bc:	df000615 	stw	fp,24(sp)
 20033c0:	df000604 	addi	fp,sp,24
 20033c4:	e13ffa15 	stw	r4,-24(fp)
 20033c8:	e17ffb15 	stw	r5,-20(fp)
 20033cc:	d0a09217 	ldw	r2,-32184(gp)
 20033d0:	e03fff05 	stb	zero,-4(fp)
 20033d4:	1009883a 	mov	r4,r2
 20033d8:	014facf4 	movhi	r5,16051
 20033dc:	296e30c4 	addi	r5,r5,-18237
 20033e0:	2008b080 	call	2008b08 <__gtsf2>
 20033e4:	10800048 	cmpgei	r2,r2,1
 20033e8:	1000011e 	bne	r2,zero,20033f0 <isr_handler_TimerONOF+0x3c>
 20033ec:	00000206 	br	20033f8 <isr_handler_TimerONOF+0x44>
 20033f0:	00800044 	movi	r2,1
 20033f4:	e0bfff05 	stb	r2,-4(fp)
 20033f8:	e0ffff03 	ldbu	r3,-4(fp)
 20033fc:	1880005c 	xori	r2,r3,1
 2003400:	10803fcc 	andi	r2,r2,255
 2003404:	1004c03a 	cmpne	r2,r2,zero
 2003408:	10003e1e 	bne	r2,zero,2003504 <isr_handler_TimerONOF+0x150>
 200340c:	d0a09117 	ldw	r2,-32188(gp)
 2003410:	e03ffe05 	stb	zero,-8(fp)
 2003414:	1009883a 	mov	r4,r2
 2003418:	016facf4 	movhi	r5,48819
 200341c:	296e30c4 	addi	r5,r5,-18237
 2003420:	2008bf80 	call	2008bf8 <__ltsf2>
 2003424:	1004803a 	cmplt	r2,r2,zero
 2003428:	1000011e 	bne	r2,zero,2003430 <isr_handler_TimerONOF+0x7c>
 200342c:	00000206 	br	2003438 <isr_handler_TimerONOF+0x84>
 2003430:	00800044 	movi	r2,1
 2003434:	e0bffe05 	stb	r2,-8(fp)
 2003438:	e0fffe03 	ldbu	r3,-8(fp)
 200343c:	1880005c 	xori	r2,r3,1
 2003440:	10803fcc 	andi	r2,r2,255
 2003444:	1004c03a 	cmpne	r2,r2,zero
 2003448:	10002e1e 	bne	r2,zero,2003504 <isr_handler_TimerONOF+0x150>
 200344c:	d0a09417 	ldw	r2,-32176(gp)
 2003450:	e03ffd05 	stb	zero,-12(fp)
 2003454:	1009883a 	mov	r4,r2
 2003458:	014fc034 	movhi	r5,16128
 200345c:	2008bf80 	call	2008bf8 <__ltsf2>
 2003460:	1004803a 	cmplt	r2,r2,zero
 2003464:	1000011e 	bne	r2,zero,200346c <isr_handler_TimerONOF+0xb8>
 2003468:	00000206 	br	2003474 <isr_handler_TimerONOF+0xc0>
 200346c:	00800044 	movi	r2,1
 2003470:	e0bffd05 	stb	r2,-12(fp)
 2003474:	e0fffd03 	ldbu	r3,-12(fp)
 2003478:	1880005c 	xori	r2,r3,1
 200347c:	10803fcc 	andi	r2,r2,255
 2003480:	1004c03a 	cmpne	r2,r2,zero
 2003484:	10001f1e 	bne	r2,zero,2003504 <isr_handler_TimerONOF+0x150>
 2003488:	d0a09717 	ldw	r2,-32164(gp)
 200348c:	e03ffc05 	stb	zero,-16(fp)
 2003490:	1009883a 	mov	r4,r2
 2003494:	017001b4 	movhi	r5,49158
 2003498:	2942a484 	addi	r5,r5,2706
 200349c:	2008bf80 	call	2008bf8 <__ltsf2>
 20034a0:	1004803a 	cmplt	r2,r2,zero
 20034a4:	1000011e 	bne	r2,zero,20034ac <isr_handler_TimerONOF+0xf8>
 20034a8:	00000206 	br	20034b4 <isr_handler_TimerONOF+0x100>
 20034ac:	00800044 	movi	r2,1
 20034b0:	e0bffc05 	stb	r2,-16(fp)
 20034b4:	e0fffc03 	ldbu	r3,-16(fp)
 20034b8:	1880005c 	xori	r2,r3,1
 20034bc:	10803fcc 	andi	r2,r2,255
 20034c0:	1004c03a 	cmpne	r2,r2,zero
 20034c4:	10000f1e 	bne	r2,zero,2003504 <isr_handler_TimerONOF+0x150>
 20034c8:	d0a0a217 	ldw	r2,-32120(gp)
 20034cc:	10800044 	addi	r2,r2,1
 20034d0:	d0a0a215 	stw	r2,-32120(gp)
 20034d4:	d0a0a217 	ldw	r2,-32120(gp)
 20034d8:	10800910 	cmplti	r2,r2,36
 20034dc:	1000101e 	bne	r2,zero,2003520 <isr_handler_TimerONOF+0x16c>
 20034e0:	d020a215 	stw	zero,-32120(gp)
 20034e4:	d0a00c17 	ldw	r2,-32720(gp)
 20034e8:	10800050 	cmplti	r2,r2,1
 20034ec:	1000021e 	bne	r2,zero,20034f8 <isr_handler_TimerONOF+0x144>
 20034f0:	d0200c15 	stw	zero,-32720(gp)
 20034f4:	00000a06 	br	2003520 <isr_handler_TimerONOF+0x16c>
 20034f8:	00800044 	movi	r2,1
 20034fc:	d0a00c15 	stw	r2,-32720(gp)
 2003500:	00000706 	br	2003520 <isr_handler_TimerONOF+0x16c>
 2003504:	d0a0a217 	ldw	r2,-32120(gp)
 2003508:	10bfffc4 	addi	r2,r2,-1
 200350c:	d0a0a215 	stw	r2,-32120(gp)
 2003510:	d0a0a217 	ldw	r2,-32120(gp)
 2003514:	1004403a 	cmpge	r2,r2,zero
 2003518:	1000011e 	bne	r2,zero,2003520 <isr_handler_TimerONOF+0x16c>
 200351c:	d020a215 	stw	zero,-32120(gp)
 2003520:	00810034 	movhi	r2,1024
 2003524:	10882004 	addi	r2,r2,8320
 2003528:	10000035 	stwio	zero,0(r2)
 200352c:	e037883a 	mov	sp,fp
 2003530:	dfc00117 	ldw	ra,4(sp)
 2003534:	df000017 	ldw	fp,0(sp)
 2003538:	dec00204 	addi	sp,sp,8
 200353c:	f800283a 	ret

02003540 <main>:
 2003540:	deffec04 	addi	sp,sp,-80
 2003544:	dfc01315 	stw	ra,76(sp)
 2003548:	df001215 	stw	fp,72(sp)
 200354c:	df001204 	addi	fp,sp,72
 2003550:	d0e00917 	ldw	r3,-32732(gp)
 2003554:	d0a00a17 	ldw	r2,-32728(gp)
 2003558:	1120003c 	xorhi	r4,r2,32768
 200355c:	d1600b17 	ldw	r5,-32724(gp)
 2003560:	d1a00917 	ldw	r6,-32732(gp)
 2003564:	d1e00a17 	ldw	r7,-32728(gp)
 2003568:	d0a00b17 	ldw	r2,-32724(gp)
 200356c:	1220003c 	xorhi	r8,r2,32768
 2003570:	d2600917 	ldw	r9,-32732(gp)
 2003574:	d2a00a17 	ldw	r10,-32728(gp)
 2003578:	d2e00b17 	ldw	r11,-32724(gp)
 200357c:	d3200917 	ldw	r12,-32732(gp)
 2003580:	d0a00a17 	ldw	r2,-32728(gp)
 2003584:	1360003c 	xorhi	r13,r2,32768
 2003588:	d0a00b17 	ldw	r2,-32724(gp)
 200358c:	10a0003c 	xorhi	r2,r2,32768
 2003590:	e0ffef15 	stw	r3,-68(fp)
 2003594:	e03ff015 	stw	zero,-64(fp)
 2003598:	e13ff115 	stw	r4,-60(fp)
 200359c:	e17ff215 	stw	r5,-56(fp)
 20035a0:	e1bff315 	stw	r6,-52(fp)
 20035a4:	e1fff415 	stw	r7,-48(fp)
 20035a8:	e03ff515 	stw	zero,-44(fp)
 20035ac:	e23ff615 	stw	r8,-40(fp)
 20035b0:	e27ff715 	stw	r9,-36(fp)
 20035b4:	e03ff815 	stw	zero,-32(fp)
 20035b8:	e2bff915 	stw	r10,-28(fp)
 20035bc:	e2fffa15 	stw	r11,-24(fp)
 20035c0:	e33ffb15 	stw	r12,-20(fp)
 20035c4:	e37ffc15 	stw	r13,-16(fp)
 20035c8:	e03ffd15 	stw	zero,-12(fp)
 20035cc:	e0bffe15 	stw	r2,-8(fp)
 20035d0:	00c10034 	movhi	r3,1024
 20035d4:	18c80104 	addi	r3,r3,8196
 20035d8:	008001c4 	movi	r2,7
 20035dc:	18800035 	stwio	r2,0(r3)
 20035e0:	01000044 	movi	r4,1
 20035e4:	000b883a 	mov	r5,zero
 20035e8:	01808034 	movhi	r6,512
 20035ec:	318cdf04 	addi	r6,r6,13180
 20035f0:	200a8300 	call	200a830 <alt_irq_register>
 20035f4:	00c10034 	movhi	r3,1024
 20035f8:	18c82104 	addi	r3,r3,8324
 20035fc:	008001c4 	movi	r2,7
 2003600:	18800035 	stwio	r2,0(r3)
 2003604:	01000144 	movi	r4,5
 2003608:	000b883a 	mov	r5,zero
 200360c:	01808034 	movhi	r6,512
 2003610:	318ced04 	addi	r6,r6,13236
 2003614:	200a8300 	call	200a830 <alt_irq_register>
 2003618:	20038280 	call	2003828 <Config_PIDs>
 200361c:	00800104 	movi	r2,4
 2003620:	e0bfee15 	stw	r2,-72(fp)
 2003624:	00c10034 	movhi	r3,1024
 2003628:	18c85404 	addi	r3,r3,8528
 200362c:	00806404 	movi	r2,400
 2003630:	18800035 	stwio	r2,0(r3)
 2003634:	00c10034 	movhi	r3,1024
 2003638:	18c85804 	addi	r3,r3,8544
 200363c:	00806404 	movi	r2,400
 2003640:	18800035 	stwio	r2,0(r3)
 2003644:	00c10034 	movhi	r3,1024
 2003648:	18c85c04 	addi	r3,r3,8560
 200364c:	00806404 	movi	r2,400
 2003650:	18800035 	stwio	r2,0(r3)
 2003654:	00c10034 	movhi	r3,1024
 2003658:	18c86004 	addi	r3,r3,8576
 200365c:	00806404 	movi	r2,400
 2003660:	18800035 	stwio	r2,0(r3)
 2003664:	00001e06 	br	20036e0 <main+0x1a0>
 2003668:	d0a0a017 	ldw	r2,-32128(gp)
 200366c:	1005003a 	cmpeq	r2,r2,zero
 2003670:	10001b1e 	bne	r2,zero,20036e0 <main+0x1a0>
 2003674:	d020a015 	stw	zero,-32128(gp)
 2003678:	d0a08f17 	ldw	r2,-32196(gp)
 200367c:	10800044 	addi	r2,r2,1
 2003680:	d0a08f15 	stw	r2,-32196(gp)
 2003684:	d0a0a117 	ldw	r2,-32124(gp)
 2003688:	1007883a 	mov	r3,r2
 200368c:	00810034 	movhi	r2,1024
 2003690:	10885404 	addi	r2,r2,8528
 2003694:	10c00035 	stwio	r3,0(r2)
 2003698:	d0a0a117 	ldw	r2,-32124(gp)
 200369c:	1007883a 	mov	r3,r2
 20036a0:	00810034 	movhi	r2,1024
 20036a4:	10885804 	addi	r2,r2,8544
 20036a8:	10c00035 	stwio	r3,0(r2)
 20036ac:	d0a0a117 	ldw	r2,-32124(gp)
 20036b0:	1007883a 	mov	r3,r2
 20036b4:	00810034 	movhi	r2,1024
 20036b8:	10885c04 	addi	r2,r2,8560
 20036bc:	10c00035 	stwio	r3,0(r2)
 20036c0:	d0a0a117 	ldw	r2,-32124(gp)
 20036c4:	1007883a 	mov	r3,r2
 20036c8:	00810034 	movhi	r2,1024
 20036cc:	10886004 	addi	r2,r2,8576
 20036d0:	10c00035 	stwio	r3,0(r2)
 20036d4:	d0a0a117 	ldw	r2,-32124(gp)
 20036d8:	10800144 	addi	r2,r2,5
 20036dc:	d0a0a115 	stw	r2,-32124(gp)
 20036e0:	d0a08f17 	ldw	r2,-32196(gp)
 20036e4:	10807d10 	cmplti	r2,r2,500
 20036e8:	103fdf1e 	bne	r2,zero,2003668 <main+0x128>
 20036ec:	d0208f15 	stw	zero,-32196(gp)
 20036f0:	00000006 	br	20036f4 <main+0x1b4>
 20036f4:	d0a0a017 	ldw	r2,-32128(gp)
 20036f8:	1005003a 	cmpeq	r2,r2,zero
 20036fc:	103ffd1e 	bne	r2,zero,20036f4 <main+0x1b4>
 2003700:	d020a015 	stw	zero,-32128(gp)
 2003704:	20001fc0 	call	20001fc <FiltroKalmanExtendido>
 2003708:	20040340 	call	2004034 <SetPoints>
 200370c:	d0a0a317 	ldw	r2,-32116(gp)
 2003710:	e0bfff15 	stw	r2,-4(fp)
 2003714:	e0ffff17 	ldw	r3,-4(fp)
 2003718:	1805003a 	cmpeq	r2,r3,zero
 200371c:	1000041e 	bne	r2,zero,2003730 <main+0x1f0>
 2003720:	e0ffff17 	ldw	r3,-4(fp)
 2003724:	18800060 	cmpeqi	r2,r3,1
 2003728:	1000171e 	bne	r2,zero,2003788 <main+0x248>
 200372c:	00001c06 	br	20037a0 <main+0x260>
 2003730:	d0a00c17 	ldw	r2,-32720(gp)
 2003734:	10800048 	cmpgei	r2,r2,1
 2003738:	1000021e 	bne	r2,zero,2003744 <main+0x204>
 200373c:	00800044 	movi	r2,1
 2003740:	d0a0a315 	stw	r2,-32116(gp)
 2003744:	00c10034 	movhi	r3,1024
 2003748:	18c85404 	addi	r3,r3,8528
 200374c:	00864004 	movi	r2,6400
 2003750:	18800035 	stwio	r2,0(r3)
 2003754:	00c10034 	movhi	r3,1024
 2003758:	18c85804 	addi	r3,r3,8544
 200375c:	00864004 	movi	r2,6400
 2003760:	18800035 	stwio	r2,0(r3)
 2003764:	00c10034 	movhi	r3,1024
 2003768:	18c85c04 	addi	r3,r3,8560
 200376c:	00864004 	movi	r2,6400
 2003770:	18800035 	stwio	r2,0(r3)
 2003774:	00c10034 	movhi	r3,1024
 2003778:	18c86004 	addi	r3,r3,8576
 200377c:	00864004 	movi	r2,6400
 2003780:	18800035 	stwio	r2,0(r3)
 2003784:	00000606 	br	20037a0 <main+0x260>
 2003788:	d0a00c17 	ldw	r2,-32720(gp)
 200378c:	1005003a 	cmpeq	r2,r2,zero
 2003790:	1000011e 	bne	r2,zero,2003798 <main+0x258>
 2003794:	d020a315 	stw	zero,-32116(gp)
 2003798:	e13fef04 	addi	r4,fp,-68
 200379c:	2003b380 	call	2003b38 <AlgoritmoControl>
 20037a0:	e0bfee17 	ldw	r2,-72(fp)
 20037a4:	10800110 	cmplti	r2,r2,4
 20037a8:	1000061e 	bne	r2,zero,20037c4 <main+0x284>
 20037ac:	e03fee15 	stw	zero,-72(fp)
 20037b0:	20043880 	call	2004388 <Data_to_GCS>
 20037b4:	d1600217 	ldw	r5,-32760(gp)
 20037b8:	01008074 	movhi	r4,513
 20037bc:	21035604 	addi	r4,r4,3416
 20037c0:	20032800 	call	2003280 <SendTrama>
 20037c4:	e0bfee17 	ldw	r2,-72(fp)
 20037c8:	10800044 	addi	r2,r2,1
 20037cc:	e0bfee15 	stw	r2,-72(fp)
 20037d0:	d0a08f17 	ldw	r2,-32196(gp)
 20037d4:	10800044 	addi	r2,r2,1
 20037d8:	d0a08f15 	stw	r2,-32196(gp)
 20037dc:	003fc506 	br	20036f4 <main+0x1b4>

020037e0 <init_uart>:
 20037e0:	defffd04 	addi	sp,sp,-12
 20037e4:	dfc00215 	stw	ra,8(sp)
 20037e8:	df000115 	stw	fp,4(sp)
 20037ec:	df000104 	addi	fp,sp,4
 20037f0:	00c10034 	movhi	r3,1024
 20037f4:	18c81b04 	addi	r3,r3,8300
 20037f8:	00802004 	movi	r2,128
 20037fc:	18800035 	stwio	r2,0(r3)
 2003800:	01000104 	movi	r4,4
 2003804:	e17fff04 	addi	r5,fp,-4
 2003808:	01808034 	movhi	r6,512
 200380c:	3191cb04 	addi	r6,r6,18220
 2003810:	200a8300 	call	200a830 <alt_irq_register>
 2003814:	e037883a 	mov	sp,fp
 2003818:	dfc00117 	ldw	ra,4(sp)
 200381c:	df000017 	ldw	fp,0(sp)
 2003820:	dec00204 	addi	sp,sp,8
 2003824:	f800283a 	ret

02003828 <Config_PIDs>:
 2003828:	defffe04 	addi	sp,sp,-8
 200382c:	dfc00115 	stw	ra,4(sp)
 2003830:	df000015 	stw	fp,0(sp)
 2003834:	d839883a 	mov	fp,sp
 2003838:	00c08074 	movhi	r3,513
 200383c:	18c39304 	addi	r3,r3,3660
 2003840:	00800044 	movi	r2,1
 2003844:	18800b15 	stw	r2,44(r3)
 2003848:	00c08074 	movhi	r3,513
 200384c:	18c39304 	addi	r3,r3,3660
 2003850:	00800044 	movi	r2,1
 2003854:	18800c15 	stw	r2,48(r3)
 2003858:	00c08074 	movhi	r3,513
 200385c:	18c39304 	addi	r3,r3,3660
 2003860:	00800044 	movi	r2,1
 2003864:	18800d15 	stw	r2,52(r3)
 2003868:	00c08074 	movhi	r3,513
 200386c:	18c37904 	addi	r3,r3,3556
 2003870:	00800044 	movi	r2,1
 2003874:	18800b15 	stw	r2,44(r3)
 2003878:	00c08074 	movhi	r3,513
 200387c:	18c37904 	addi	r3,r3,3556
 2003880:	00800044 	movi	r2,1
 2003884:	18800c15 	stw	r2,48(r3)
 2003888:	00c08074 	movhi	r3,513
 200388c:	18c37904 	addi	r3,r3,3556
 2003890:	00800044 	movi	r2,1
 2003894:	18800d15 	stw	r2,52(r3)
 2003898:	00c08074 	movhi	r3,513
 200389c:	18c36304 	addi	r3,r3,3468
 20038a0:	00800044 	movi	r2,1
 20038a4:	18800b15 	stw	r2,44(r3)
 20038a8:	00c08074 	movhi	r3,513
 20038ac:	18c36304 	addi	r3,r3,3468
 20038b0:	00800044 	movi	r2,1
 20038b4:	18800c15 	stw	r2,48(r3)
 20038b8:	00c08074 	movhi	r3,513
 20038bc:	18c36304 	addi	r3,r3,3468
 20038c0:	00800044 	movi	r2,1
 20038c4:	18800d15 	stw	r2,52(r3)
 20038c8:	00c08074 	movhi	r3,513
 20038cc:	18c39304 	addi	r3,r3,3660
 20038d0:	00800044 	movi	r2,1
 20038d4:	18800a15 	stw	r2,40(r3)
 20038d8:	00c08074 	movhi	r3,513
 20038dc:	18c37904 	addi	r3,r3,3556
 20038e0:	00800044 	movi	r2,1
 20038e4:	18800a15 	stw	r2,40(r3)
 20038e8:	00c08074 	movhi	r3,513
 20038ec:	18c36304 	addi	r3,r3,3468
 20038f0:	00800044 	movi	r2,1
 20038f4:	18800a15 	stw	r2,40(r3)
 20038f8:	00c08074 	movhi	r3,513
 20038fc:	18c39304 	addi	r3,r3,3660
 2003900:	008fe034 	movhi	r2,16256
 2003904:	18800315 	stw	r2,12(r3)
 2003908:	00c08074 	movhi	r3,513
 200390c:	18c37904 	addi	r3,r3,3556
 2003910:	008fe034 	movhi	r2,16256
 2003914:	18800315 	stw	r2,12(r3)
 2003918:	00c08074 	movhi	r3,513
 200391c:	18c36304 	addi	r3,r3,3468
 2003920:	008f7374 	movhi	r2,15821
 2003924:	10b33344 	addi	r2,r2,-13107
 2003928:	18800315 	stw	r2,12(r3)
 200392c:	00c08074 	movhi	r3,513
 2003930:	18c39304 	addi	r3,r3,3660
 2003934:	008fe034 	movhi	r2,16256
 2003938:	18800415 	stw	r2,16(r3)
 200393c:	00c08074 	movhi	r3,513
 2003940:	18c39304 	addi	r3,r3,3660
 2003944:	00afe034 	movhi	r2,49024
 2003948:	18800515 	stw	r2,20(r3)
 200394c:	00c08074 	movhi	r3,513
 2003950:	18c37904 	addi	r3,r3,3556
 2003954:	008fe034 	movhi	r2,16256
 2003958:	18800415 	stw	r2,16(r3)
 200395c:	00c08074 	movhi	r3,513
 2003960:	18c37904 	addi	r3,r3,3556
 2003964:	00afe034 	movhi	r2,49024
 2003968:	18800515 	stw	r2,20(r3)
 200396c:	00c08074 	movhi	r3,513
 2003970:	18c36304 	addi	r3,r3,3468
 2003974:	008fe034 	movhi	r2,16256
 2003978:	18800415 	stw	r2,16(r3)
 200397c:	00c08074 	movhi	r3,513
 2003980:	18c36304 	addi	r3,r3,3468
 2003984:	00afe034 	movhi	r2,49024
 2003988:	18800515 	stw	r2,20(r3)
 200398c:	00c08074 	movhi	r3,513
 2003990:	18c39304 	addi	r3,r3,3660
 2003994:	008ef974 	movhi	r2,15333
 2003998:	10981084 	addi	r2,r2,24642
 200399c:	18800915 	stw	r2,36(r3)
 20039a0:	00c08074 	movhi	r3,513
 20039a4:	18c37904 	addi	r3,r3,3556
 20039a8:	008ef974 	movhi	r2,15333
 20039ac:	10981084 	addi	r2,r2,24642
 20039b0:	18800915 	stw	r2,36(r3)
 20039b4:	00c08074 	movhi	r3,513
 20039b8:	18c36304 	addi	r3,r3,3468
 20039bc:	008ef974 	movhi	r2,15333
 20039c0:	10981084 	addi	r2,r2,24642
 20039c4:	18800915 	stw	r2,36(r3)
 20039c8:	00c08074 	movhi	r3,513
 20039cc:	18c39304 	addi	r3,r3,3660
 20039d0:	008fe034 	movhi	r2,16256
 20039d4:	18800715 	stw	r2,28(r3)
 20039d8:	00c08074 	movhi	r3,513
 20039dc:	18c39304 	addi	r3,r3,3660
 20039e0:	008fe034 	movhi	r2,16256
 20039e4:	18800815 	stw	r2,32(r3)
 20039e8:	00c08074 	movhi	r3,513
 20039ec:	18c37904 	addi	r3,r3,3556
 20039f0:	008fe034 	movhi	r2,16256
 20039f4:	18800715 	stw	r2,28(r3)
 20039f8:	00c08074 	movhi	r3,513
 20039fc:	18c37904 	addi	r3,r3,3556
 2003a00:	008fe034 	movhi	r2,16256
 2003a04:	18800815 	stw	r2,32(r3)
 2003a08:	00c08074 	movhi	r3,513
 2003a0c:	18c36304 	addi	r3,r3,3468
 2003a10:	008fe034 	movhi	r2,16256
 2003a14:	18800715 	stw	r2,28(r3)
 2003a18:	00c08074 	movhi	r3,513
 2003a1c:	18c36304 	addi	r3,r3,3468
 2003a20:	008fe034 	movhi	r2,16256
 2003a24:	18800815 	stw	r2,32(r3)
 2003a28:	01008074 	movhi	r4,513
 2003a2c:	21039304 	addi	r4,r4,3660
 2003a30:	2002b480 	call	2002b48 <qPID_Init>
 2003a34:	01008074 	movhi	r4,513
 2003a38:	21037904 	addi	r4,r4,3556
 2003a3c:	2002b480 	call	2002b48 <qPID_Init>
 2003a40:	01008074 	movhi	r4,513
 2003a44:	21036304 	addi	r4,r4,3468
 2003a48:	2002b480 	call	2002b48 <qPID_Init>
 2003a4c:	00c08074 	movhi	r3,513
 2003a50:	18c39304 	addi	r3,r3,3660
 2003a54:	008f8534 	movhi	r2,15892
 2003a58:	109eb844 	addi	r2,r2,31457
 2003a5c:	18800015 	stw	r2,0(r3)
 2003a60:	00c08074 	movhi	r3,513
 2003a64:	18c39304 	addi	r3,r3,3660
 2003a68:	009023f4 	movhi	r2,16527
 2003a6c:	10970a44 	addi	r2,r2,23593
 2003a70:	18800115 	stw	r2,4(r3)
 2003a74:	00c08074 	movhi	r3,513
 2003a78:	18c39304 	addi	r3,r3,3660
 2003a7c:	008f81f4 	movhi	r2,15879
 2003a80:	1097dc04 	addi	r2,r2,24432
 2003a84:	18800215 	stw	r2,8(r3)
 2003a88:	00c08074 	movhi	r3,513
 2003a8c:	18c39304 	addi	r3,r3,3660
 2003a90:	00906834 	movhi	r2,16800
 2003a94:	18800615 	stw	r2,24(r3)
 2003a98:	00c08074 	movhi	r3,513
 2003a9c:	18c37904 	addi	r3,r3,3556
 2003aa0:	008f83f4 	movhi	r2,15887
 2003aa4:	10970a44 	addi	r2,r2,23593
 2003aa8:	18800015 	stw	r2,0(r3)
 2003aac:	00c08074 	movhi	r3,513
 2003ab0:	18c37904 	addi	r3,r3,3556
 2003ab4:	00903e74 	movhi	r2,16633
 2003ab8:	10a8f5c4 	addi	r2,r2,-23593
 2003abc:	18800115 	stw	r2,4(r3)
 2003ac0:	00c08074 	movhi	r3,513
 2003ac4:	18c37904 	addi	r3,r3,3556
 2003ac8:	008f5374 	movhi	r2,15693
 2003acc:	10b33344 	addi	r2,r2,-13107
 2003ad0:	18800215 	stw	r2,8(r3)
 2003ad4:	00c08074 	movhi	r3,513
 2003ad8:	18c37904 	addi	r3,r3,3556
 2003adc:	00906834 	movhi	r2,16800
 2003ae0:	18800615 	stw	r2,24(r3)
 2003ae4:	00c08074 	movhi	r3,513
 2003ae8:	18c36304 	addi	r3,r3,3468
 2003aec:	00900ef4 	movhi	r2,16443
 2003af0:	10bc6a84 	addi	r2,r2,-3670
 2003af4:	18800015 	stw	r2,0(r3)
 2003af8:	00c08074 	movhi	r3,513
 2003afc:	18c36304 	addi	r3,r3,3468
 2003b00:	00902034 	movhi	r2,16512
 2003b04:	18800115 	stw	r2,4(r3)
 2003b08:	00808074 	movhi	r2,513
 2003b0c:	10836304 	addi	r2,r2,3468
 2003b10:	10000215 	stw	zero,8(r2)
 2003b14:	00c08074 	movhi	r3,513
 2003b18:	18c36304 	addi	r3,r3,3468
 2003b1c:	00904834 	movhi	r2,16672
 2003b20:	18800615 	stw	r2,24(r3)
 2003b24:	e037883a 	mov	sp,fp
 2003b28:	dfc00117 	ldw	ra,4(sp)
 2003b2c:	df000017 	ldw	fp,0(sp)
 2003b30:	dec00204 	addi	sp,sp,8
 2003b34:	f800283a 	ret

02003b38 <AlgoritmoControl>:
 2003b38:	defffb04 	addi	sp,sp,-20
 2003b3c:	dfc00415 	stw	ra,16(sp)
 2003b40:	df000315 	stw	fp,12(sp)
 2003b44:	df000304 	addi	fp,sp,12
 2003b48:	e13fff15 	stw	r4,-4(fp)
 2003b4c:	e03ffe15 	stw	zero,-8(fp)
 2003b50:	e03ffd15 	stw	zero,-12(fp)
 2003b54:	d0e09117 	ldw	r3,-32188(gp)
 2003b58:	d0a05317 	ldw	r2,-32436(gp)
 2003b5c:	1887ffb2 	custom	254,r3,r3,r2
 2003b60:	00808074 	movhi	r2,513
 2003b64:	10833404 	addi	r2,r2,3280
 2003b68:	10c00015 	stw	r3,0(r2)
 2003b6c:	00808074 	movhi	r2,513
 2003b70:	10833404 	addi	r2,r2,3280
 2003b74:	10c00017 	ldw	r3,0(r2)
 2003b78:	d0a00317 	ldw	r2,-32756(gp)
 2003b7c:	1887ff32 	custom	252,r3,r3,r2
 2003b80:	d0a09e17 	ldw	r2,-32136(gp)
 2003b84:	1887ff72 	custom	253,r3,r3,r2
 2003b88:	00808074 	movhi	r2,513
 2003b8c:	10836004 	addi	r2,r2,3456
 2003b90:	10c00015 	stw	r3,0(r2)
 2003b94:	00808074 	movhi	r2,513
 2003b98:	10833704 	addi	r2,r2,3292
 2003b9c:	11000017 	ldw	r4,0(r2)
 2003ba0:	00808074 	movhi	r2,513
 2003ba4:	10833404 	addi	r2,r2,3280
 2003ba8:	10c00017 	ldw	r3,0(r2)
 2003bac:	d0a00817 	ldw	r2,-32736(gp)
 2003bb0:	1885ff32 	custom	252,r2,r3,r2
 2003bb4:	2087ff72 	custom	253,r3,r4,r2
 2003bb8:	00808074 	movhi	r2,513
 2003bbc:	10833704 	addi	r2,r2,3292
 2003bc0:	10c00015 	stw	r3,0(r2)
 2003bc4:	00808074 	movhi	r2,513
 2003bc8:	10833704 	addi	r2,r2,3292
 2003bcc:	10c00017 	ldw	r3,0(r2)
 2003bd0:	d0a00717 	ldw	r2,-32740(gp)
 2003bd4:	1885ff32 	custom	252,r2,r3,r2
 2003bd8:	d0a09e15 	stw	r2,-32136(gp)
 2003bdc:	00808074 	movhi	r2,513
 2003be0:	10836004 	addi	r2,r2,3456
 2003be4:	10800017 	ldw	r2,0(r2)
 2003be8:	d0a09515 	stw	r2,-32172(gp)
 2003bec:	d0e09217 	ldw	r3,-32184(gp)
 2003bf0:	d0a08517 	ldw	r2,-32236(gp)
 2003bf4:	1887ffb2 	custom	254,r3,r3,r2
 2003bf8:	00808074 	movhi	r2,513
 2003bfc:	10833404 	addi	r2,r2,3280
 2003c00:	10c00115 	stw	r3,4(r2)
 2003c04:	00808074 	movhi	r2,513
 2003c08:	10833404 	addi	r2,r2,3280
 2003c0c:	10c00117 	ldw	r3,4(r2)
 2003c10:	d0a00417 	ldw	r2,-32752(gp)
 2003c14:	1887ff32 	custom	252,r3,r3,r2
 2003c18:	d0a09d17 	ldw	r2,-32140(gp)
 2003c1c:	1887ff72 	custom	253,r3,r3,r2
 2003c20:	00808074 	movhi	r2,513
 2003c24:	10836004 	addi	r2,r2,3456
 2003c28:	10c00115 	stw	r3,4(r2)
 2003c2c:	00808074 	movhi	r2,513
 2003c30:	10833704 	addi	r2,r2,3292
 2003c34:	11000117 	ldw	r4,4(r2)
 2003c38:	00808074 	movhi	r2,513
 2003c3c:	10833404 	addi	r2,r2,3280
 2003c40:	10c00117 	ldw	r3,4(r2)
 2003c44:	d0a00817 	ldw	r2,-32736(gp)
 2003c48:	1885ff32 	custom	252,r2,r3,r2
 2003c4c:	2087ff72 	custom	253,r3,r4,r2
 2003c50:	00808074 	movhi	r2,513
 2003c54:	10833704 	addi	r2,r2,3292
 2003c58:	10c00115 	stw	r3,4(r2)
 2003c5c:	00808074 	movhi	r2,513
 2003c60:	10833704 	addi	r2,r2,3292
 2003c64:	10c00117 	ldw	r3,4(r2)
 2003c68:	d0a00617 	ldw	r2,-32744(gp)
 2003c6c:	1885ff32 	custom	252,r2,r3,r2
 2003c70:	d0a09d15 	stw	r2,-32140(gp)
 2003c74:	00808074 	movhi	r2,513
 2003c78:	10836004 	addi	r2,r2,3456
 2003c7c:	10800117 	ldw	r2,4(r2)
 2003c80:	d0a09615 	stw	r2,-32168(gp)
 2003c84:	d0e09417 	ldw	r3,-32176(gp)
 2003c88:	00808074 	movhi	r2,513
 2003c8c:	10838f04 	addi	r2,r2,3644
 2003c90:	10c00015 	stw	r3,0(r2)
 2003c94:	d0a09517 	ldw	r2,-32172(gp)
 2003c98:	d0e03417 	ldw	r3,-32560(gp)
 2003c9c:	01008074 	movhi	r4,513
 2003ca0:	21039304 	addi	r4,r4,3660
 2003ca4:	100b883a 	mov	r5,r2
 2003ca8:	180d883a 	mov	r6,r3
 2003cac:	000f883a 	mov	r7,zero
 2003cb0:	2002b880 	call	2002b88 <qPID_Process_>
 2003cb4:	1007883a 	mov	r3,r2
 2003cb8:	00808074 	movhi	r2,513
 2003cbc:	10838f04 	addi	r2,r2,3644
 2003cc0:	10c00115 	stw	r3,4(r2)
 2003cc4:	d0a09617 	ldw	r2,-32168(gp)
 2003cc8:	d0e07d17 	ldw	r3,-32268(gp)
 2003ccc:	01008074 	movhi	r4,513
 2003cd0:	21037904 	addi	r4,r4,3556
 2003cd4:	100b883a 	mov	r5,r2
 2003cd8:	180d883a 	mov	r6,r3
 2003cdc:	000f883a 	mov	r7,zero
 2003ce0:	2002b880 	call	2002b88 <qPID_Process_>
 2003ce4:	1007883a 	mov	r3,r2
 2003ce8:	00808074 	movhi	r2,513
 2003cec:	10838f04 	addi	r2,r2,3644
 2003cf0:	10c00215 	stw	r3,8(r2)
 2003cf4:	d0a09717 	ldw	r2,-32164(gp)
 2003cf8:	d0e02517 	ldw	r3,-32620(gp)
 2003cfc:	01008074 	movhi	r4,513
 2003d00:	21036304 	addi	r4,r4,3468
 2003d04:	100b883a 	mov	r5,r2
 2003d08:	180d883a 	mov	r6,r3
 2003d0c:	000f883a 	mov	r7,zero
 2003d10:	2002b880 	call	2002b88 <qPID_Process_>
 2003d14:	1007883a 	mov	r3,r2
 2003d18:	00808074 	movhi	r2,513
 2003d1c:	10838f04 	addi	r2,r2,3644
 2003d20:	10c00315 	stw	r3,12(r2)
 2003d24:	e03ffe15 	stw	zero,-8(fp)
 2003d28:	00003506 	br	2003e00 <AlgoritmoControl+0x2c8>
 2003d2c:	e17ffe17 	ldw	r5,-8(fp)
 2003d30:	e0bffe17 	ldw	r2,-8(fp)
 2003d34:	1004913a 	slli	r2,r2,4
 2003d38:	1007883a 	mov	r3,r2
 2003d3c:	e0bfff17 	ldw	r2,-4(fp)
 2003d40:	1885883a 	add	r2,r3,r2
 2003d44:	10c00017 	ldw	r3,0(r2)
 2003d48:	00808074 	movhi	r2,513
 2003d4c:	10838f04 	addi	r2,r2,3644
 2003d50:	10800017 	ldw	r2,0(r2)
 2003d54:	1889ff32 	custom	252,r4,r3,r2
 2003d58:	e0bffe17 	ldw	r2,-8(fp)
 2003d5c:	1004913a 	slli	r2,r2,4
 2003d60:	1007883a 	mov	r3,r2
 2003d64:	e0bfff17 	ldw	r2,-4(fp)
 2003d68:	1885883a 	add	r2,r3,r2
 2003d6c:	10c00117 	ldw	r3,4(r2)
 2003d70:	00808074 	movhi	r2,513
 2003d74:	10838f04 	addi	r2,r2,3644
 2003d78:	10800117 	ldw	r2,4(r2)
 2003d7c:	1885ff32 	custom	252,r2,r3,r2
 2003d80:	2089ff72 	custom	253,r4,r4,r2
 2003d84:	e0bffe17 	ldw	r2,-8(fp)
 2003d88:	1004913a 	slli	r2,r2,4
 2003d8c:	1007883a 	mov	r3,r2
 2003d90:	e0bfff17 	ldw	r2,-4(fp)
 2003d94:	1885883a 	add	r2,r3,r2
 2003d98:	10c00217 	ldw	r3,8(r2)
 2003d9c:	00808074 	movhi	r2,513
 2003da0:	10838f04 	addi	r2,r2,3644
 2003da4:	10800217 	ldw	r2,8(r2)
 2003da8:	1885ff32 	custom	252,r2,r3,r2
 2003dac:	2089ff72 	custom	253,r4,r4,r2
 2003db0:	e0bffe17 	ldw	r2,-8(fp)
 2003db4:	1004913a 	slli	r2,r2,4
 2003db8:	1007883a 	mov	r3,r2
 2003dbc:	e0bfff17 	ldw	r2,-4(fp)
 2003dc0:	1885883a 	add	r2,r3,r2
 2003dc4:	10c00317 	ldw	r3,12(r2)
 2003dc8:	00808074 	movhi	r2,513
 2003dcc:	10838f04 	addi	r2,r2,3644
 2003dd0:	10800317 	ldw	r2,12(r2)
 2003dd4:	1885ff32 	custom	252,r2,r3,r2
 2003dd8:	2089ff72 	custom	253,r4,r4,r2
 2003ddc:	00c08074 	movhi	r3,513
 2003de0:	18c37504 	addi	r3,r3,3540
 2003de4:	2945883a 	add	r2,r5,r5
 2003de8:	1085883a 	add	r2,r2,r2
 2003dec:	10c5883a 	add	r2,r2,r3
 2003df0:	11000015 	stw	r4,0(r2)
 2003df4:	e0bffe17 	ldw	r2,-8(fp)
 2003df8:	10800044 	addi	r2,r2,1
 2003dfc:	e0bffe15 	stw	r2,-8(fp)
 2003e00:	e0bffe17 	ldw	r2,-8(fp)
 2003e04:	10800110 	cmplti	r2,r2,4
 2003e08:	103fc81e 	bne	r2,zero,2003d2c <AlgoritmoControl+0x1f4>
 2003e0c:	00808074 	movhi	r2,513
 2003e10:	10837504 	addi	r2,r2,3540
 2003e14:	10c00017 	ldw	r3,0(r2)
 2003e18:	00916bf4 	movhi	r2,17839
 2003e1c:	1887ff32 	custom	252,r3,r3,r2
 2003e20:	00917574 	movhi	r2,17877
 2003e24:	10a00004 	addi	r2,r2,-32768
 2003e28:	1887ff72 	custom	253,r3,r3,r2
 2003e2c:	00808074 	movhi	r2,513
 2003e30:	10838b04 	addi	r2,r2,3628
 2003e34:	10c00015 	stw	r3,0(r2)
 2003e38:	00808074 	movhi	r2,513
 2003e3c:	10837504 	addi	r2,r2,3540
 2003e40:	10c00117 	ldw	r3,4(r2)
 2003e44:	00916bf4 	movhi	r2,17839
 2003e48:	1887ff32 	custom	252,r3,r3,r2
 2003e4c:	00917574 	movhi	r2,17877
 2003e50:	10a00004 	addi	r2,r2,-32768
 2003e54:	1887ff72 	custom	253,r3,r3,r2
 2003e58:	00808074 	movhi	r2,513
 2003e5c:	10838b04 	addi	r2,r2,3628
 2003e60:	10c00115 	stw	r3,4(r2)
 2003e64:	00808074 	movhi	r2,513
 2003e68:	10837504 	addi	r2,r2,3540
 2003e6c:	10c00217 	ldw	r3,8(r2)
 2003e70:	00916bf4 	movhi	r2,17839
 2003e74:	1887ff32 	custom	252,r3,r3,r2
 2003e78:	00917574 	movhi	r2,17877
 2003e7c:	10a00004 	addi	r2,r2,-32768
 2003e80:	1887ff72 	custom	253,r3,r3,r2
 2003e84:	00808074 	movhi	r2,513
 2003e88:	10838b04 	addi	r2,r2,3628
 2003e8c:	10c00215 	stw	r3,8(r2)
 2003e90:	00808074 	movhi	r2,513
 2003e94:	10837504 	addi	r2,r2,3540
 2003e98:	10c00317 	ldw	r3,12(r2)
 2003e9c:	00916bf4 	movhi	r2,17839
 2003ea0:	1887ff32 	custom	252,r3,r3,r2
 2003ea4:	00917574 	movhi	r2,17877
 2003ea8:	10a00004 	addi	r2,r2,-32768
 2003eac:	1887ff72 	custom	253,r3,r3,r2
 2003eb0:	00808074 	movhi	r2,513
 2003eb4:	10838b04 	addi	r2,r2,3628
 2003eb8:	10c00315 	stw	r3,12(r2)
 2003ebc:	e03ffd15 	stw	zero,-12(fp)
 2003ec0:	00003006 	br	2003f84 <AlgoritmoControl+0x44c>
 2003ec4:	e0bffd17 	ldw	r2,-12(fp)
 2003ec8:	00c08074 	movhi	r3,513
 2003ecc:	18c38b04 	addi	r3,r3,3628
 2003ed0:	1085883a 	add	r2,r2,r2
 2003ed4:	1085883a 	add	r2,r2,r2
 2003ed8:	10c5883a 	add	r2,r2,r3
 2003edc:	10800017 	ldw	r2,0(r2)
 2003ee0:	1009883a 	mov	r4,r2
 2003ee4:	01517234 	movhi	r5,17864
 2003ee8:	2008bf80 	call	2008bf8 <__ltsf2>
 2003eec:	1004803a 	cmplt	r2,r2,zero
 2003ef0:	1000011e 	bne	r2,zero,2003ef8 <AlgoritmoControl+0x3c0>
 2003ef4:	00000906 	br	2003f1c <AlgoritmoControl+0x3e4>
 2003ef8:	e0bffd17 	ldw	r2,-12(fp)
 2003efc:	00c08074 	movhi	r3,513
 2003f00:	18c38b04 	addi	r3,r3,3628
 2003f04:	1085883a 	add	r2,r2,r2
 2003f08:	1085883a 	add	r2,r2,r2
 2003f0c:	10c7883a 	add	r3,r2,r3
 2003f10:	00917234 	movhi	r2,17864
 2003f14:	18800015 	stw	r2,0(r3)
 2003f18:	00001706 	br	2003f78 <AlgoritmoControl+0x440>
 2003f1c:	e0bffd17 	ldw	r2,-12(fp)
 2003f20:	00c08074 	movhi	r3,513
 2003f24:	18c38b04 	addi	r3,r3,3628
 2003f28:	1085883a 	add	r2,r2,r2
 2003f2c:	1085883a 	add	r2,r2,r2
 2003f30:	10c5883a 	add	r2,r2,r3
 2003f34:	10800017 	ldw	r2,0(r2)
 2003f38:	1009883a 	mov	r4,r2
 2003f3c:	015193b4 	movhi	r5,17998
 2003f40:	29500004 	addi	r5,r5,16384
 2003f44:	2008b080 	call	2008b08 <__gtsf2>
 2003f48:	10800048 	cmpgei	r2,r2,1
 2003f4c:	1000011e 	bne	r2,zero,2003f54 <AlgoritmoControl+0x41c>
 2003f50:	00000906 	br	2003f78 <AlgoritmoControl+0x440>
 2003f54:	e0bffd17 	ldw	r2,-12(fp)
 2003f58:	00c08074 	movhi	r3,513
 2003f5c:	18c38b04 	addi	r3,r3,3628
 2003f60:	1085883a 	add	r2,r2,r2
 2003f64:	1085883a 	add	r2,r2,r2
 2003f68:	10c7883a 	add	r3,r2,r3
 2003f6c:	009193b4 	movhi	r2,17998
 2003f70:	10900004 	addi	r2,r2,16384
 2003f74:	18800015 	stw	r2,0(r3)
 2003f78:	e0bffd17 	ldw	r2,-12(fp)
 2003f7c:	10800044 	addi	r2,r2,1
 2003f80:	e0bffd15 	stw	r2,-12(fp)
 2003f84:	e0bffd17 	ldw	r2,-12(fp)
 2003f88:	10800110 	cmplti	r2,r2,4
 2003f8c:	103fcd1e 	bne	r2,zero,2003ec4 <AlgoritmoControl+0x38c>
 2003f90:	00808074 	movhi	r2,513
 2003f94:	10838b04 	addi	r2,r2,3628
 2003f98:	10800017 	ldw	r2,0(r2)
 2003f9c:	1009883a 	mov	r4,r2
 2003fa0:	2008d080 	call	2008d08 <__fixsfsi>
 2003fa4:	1007883a 	mov	r3,r2
 2003fa8:	00810034 	movhi	r2,1024
 2003fac:	10885404 	addi	r2,r2,8528
 2003fb0:	10c00035 	stwio	r3,0(r2)
 2003fb4:	00808074 	movhi	r2,513
 2003fb8:	10838b04 	addi	r2,r2,3628
 2003fbc:	10800117 	ldw	r2,4(r2)
 2003fc0:	1009883a 	mov	r4,r2
 2003fc4:	2008d080 	call	2008d08 <__fixsfsi>
 2003fc8:	1007883a 	mov	r3,r2
 2003fcc:	00810034 	movhi	r2,1024
 2003fd0:	10885804 	addi	r2,r2,8544
 2003fd4:	10c00035 	stwio	r3,0(r2)
 2003fd8:	00808074 	movhi	r2,513
 2003fdc:	10838b04 	addi	r2,r2,3628
 2003fe0:	10800217 	ldw	r2,8(r2)
 2003fe4:	1009883a 	mov	r4,r2
 2003fe8:	2008d080 	call	2008d08 <__fixsfsi>
 2003fec:	1007883a 	mov	r3,r2
 2003ff0:	00810034 	movhi	r2,1024
 2003ff4:	10885c04 	addi	r2,r2,8560
 2003ff8:	10c00035 	stwio	r3,0(r2)
 2003ffc:	00808074 	movhi	r2,513
 2004000:	10838b04 	addi	r2,r2,3628
 2004004:	10800317 	ldw	r2,12(r2)
 2004008:	1009883a 	mov	r4,r2
 200400c:	2008d080 	call	2008d08 <__fixsfsi>
 2004010:	1007883a 	mov	r3,r2
 2004014:	00810034 	movhi	r2,1024
 2004018:	10886004 	addi	r2,r2,8576
 200401c:	10c00035 	stwio	r3,0(r2)
 2004020:	e037883a 	mov	sp,fp
 2004024:	dfc00117 	ldw	ra,4(sp)
 2004028:	df000017 	ldw	fp,0(sp)
 200402c:	dec00204 	addi	sp,sp,8
 2004030:	f800283a 	ret

02004034 <SetPoints>:
 2004034:	defffc04 	addi	sp,sp,-16
 2004038:	dfc00315 	stw	ra,12(sp)
 200403c:	df000215 	stw	fp,8(sp)
 2004040:	df000204 	addi	fp,sp,8
 2004044:	00810034 	movhi	r2,1024
 2004048:	10886404 	addi	r2,r2,8592
 200404c:	10800037 	ldwio	r2,0(r2)
 2004050:	d0a09b0d 	sth	r2,-32148(gp)
 2004054:	00810034 	movhi	r2,1024
 2004058:	10886804 	addi	r2,r2,8608
 200405c:	10800037 	ldwio	r2,0(r2)
 2004060:	d0a09b8d 	sth	r2,-32146(gp)
 2004064:	00810034 	movhi	r2,1024
 2004068:	10886c04 	addi	r2,r2,8624
 200406c:	10800037 	ldwio	r2,0(r2)
 2004070:	d0a09c0d 	sth	r2,-32144(gp)
 2004074:	00810034 	movhi	r2,1024
 2004078:	10887004 	addi	r2,r2,8640
 200407c:	10800037 	ldwio	r2,0(r2)
 2004080:	d0a09c8d 	sth	r2,-32142(gp)
 2004084:	d0a09b0b 	ldhu	r2,-32148(gp)
 2004088:	10bfffcc 	andi	r2,r2,65535
 200408c:	10820d30 	cmpltui	r2,r2,2100
 2004090:	1000041e 	bne	r2,zero,20040a4 <SetPoints+0x70>
 2004094:	d0a09b0b 	ldhu	r2,-32148(gp)
 2004098:	10bfffcc 	andi	r2,r2,65535
 200409c:	1083c2f0 	cmpltui	r2,r2,3851
 20040a0:	1000021e 	bne	r2,zero,20040ac <SetPoints+0x78>
 20040a4:	0082e584 	movi	r2,2966
 20040a8:	d0a09b0d 	sth	r2,-32148(gp)
 20040ac:	d0a09c0b 	ldhu	r2,-32144(gp)
 20040b0:	10bfffcc 	andi	r2,r2,65535
 20040b4:	10820d30 	cmpltui	r2,r2,2100
 20040b8:	1000041e 	bne	r2,zero,20040cc <SetPoints+0x98>
 20040bc:	d0a09c0b 	ldhu	r2,-32144(gp)
 20040c0:	10bfffcc 	andi	r2,r2,65535
 20040c4:	1083c2f0 	cmpltui	r2,r2,3851
 20040c8:	1000021e 	bne	r2,zero,20040d4 <SetPoints+0xa0>
 20040cc:	0082e684 	movi	r2,2970
 20040d0:	d0a09c0d 	sth	r2,-32144(gp)
 20040d4:	d0a09c8b 	ldhu	r2,-32142(gp)
 20040d8:	10bfffcc 	andi	r2,r2,65535
 20040dc:	10820d30 	cmpltui	r2,r2,2100
 20040e0:	10000c1e 	bne	r2,zero,2004114 <SetPoints+0xe0>
 20040e4:	d0a09c8b 	ldhu	r2,-32142(gp)
 20040e8:	10bfffcc 	andi	r2,r2,65535
 20040ec:	1083c2e8 	cmpgeui	r2,r2,3851
 20040f0:	1000081e 	bne	r2,zero,2004114 <SetPoints+0xe0>
 20040f4:	d0a09c8b 	ldhu	r2,-32142(gp)
 20040f8:	10bfffcc 	andi	r2,r2,65535
 20040fc:	1082da70 	cmpltui	r2,r2,2921
 2004100:	1000061e 	bne	r2,zero,200411c <SetPoints+0xe8>
 2004104:	d0a09c8b 	ldhu	r2,-32142(gp)
 2004108:	10bfffcc 	andi	r2,r2,65535
 200410c:	1082e928 	cmpgeui	r2,r2,2980
 2004110:	1000021e 	bne	r2,zero,200411c <SetPoints+0xe8>
 2004114:	0082e2c4 	movi	r2,2955
 2004118:	d0a09c8d 	sth	r2,-32142(gp)
 200411c:	d0a09b8b 	ldhu	r2,-32146(gp)
 2004120:	113fffcc 	andi	r4,r2,65535
 2004124:	2008c700 	call	2008c70 <__floatsisf>
 2004128:	1007883a 	mov	r3,r2
 200412c:	008e6fb4 	movhi	r2,14782
 2004130:	108f0c44 	addi	r2,r2,15409
 2004134:	1887ff32 	custom	252,r3,r3,r2
 2004138:	008fb074 	movhi	r2,16065
 200413c:	10a99d44 	addi	r2,r2,-22923
 2004140:	1885ffb2 	custom	254,r2,r3,r2
 2004144:	e0bfff15 	stw	r2,-4(fp)
 2004148:	e0ffff17 	ldw	r3,-4(fp)
 200414c:	0090d234 	movhi	r2,17224
 2004150:	1885ff32 	custom	252,r2,r3,r2
 2004154:	1009883a 	mov	r4,r2
 2004158:	2008d080 	call	2008d08 <__fixsfsi>
 200415c:	e0bffe15 	stw	r2,-8(fp)
 2004160:	d0e09017 	ldw	r3,-32192(gp)
 2004164:	e0bffe17 	ldw	r2,-8(fp)
 2004168:	1887883a 	add	r3,r3,r2
 200416c:	1804d7fa 	srli	r2,r3,31
 2004170:	10c5883a 	add	r2,r2,r3
 2004174:	1005d07a 	srai	r2,r2,1
 2004178:	1009883a 	mov	r4,r2
 200417c:	2008c700 	call	2008c70 <__floatsisf>
 2004180:	1009883a 	mov	r4,r2
 2004184:	0150d234 	movhi	r5,17224
 2004188:	20089940 	call	2008994 <__divsf3>
 200418c:	d0a09415 	stw	r2,-32176(gp)
 2004190:	d0e09417 	ldw	r3,-32176(gp)
 2004194:	0090d234 	movhi	r2,17224
 2004198:	1885ff32 	custom	252,r2,r3,r2
 200419c:	1009883a 	mov	r4,r2
 20041a0:	2008d080 	call	2008d08 <__fixsfsi>
 20041a4:	d0a09015 	stw	r2,-32192(gp)
 20041a8:	d0e09417 	ldw	r3,-32176(gp)
 20041ac:	008ee934 	movhi	r2,15268
 20041b0:	10b5c284 	addi	r2,r2,-10486
 20041b4:	1885ff72 	custom	253,r2,r3,r2
 20041b8:	d0a09415 	stw	r2,-32176(gp)
 20041bc:	d0a09b8b 	ldhu	r2,-32146(gp)
 20041c0:	10bfffcc 	andi	r2,r2,65535
 20041c4:	10825bf0 	cmpltui	r2,r2,2415
 20041c8:	1000041e 	bne	r2,zero,20041dc <SetPoints+0x1a8>
 20041cc:	d0a09b8b 	ldhu	r2,-32146(gp)
 20041d0:	10bfffcc 	andi	r2,r2,65535
 20041d4:	1083c2f0 	cmpltui	r2,r2,3851
 20041d8:	1000151e 	bne	r2,zero,2004230 <SetPoints+0x1fc>
 20041dc:	00afa034 	movhi	r2,48768
 20041e0:	d0a09415 	stw	r2,-32176(gp)
 20041e4:	00808074 	movhi	r2,513
 20041e8:	10837904 	addi	r2,r2,3556
 20041ec:	10000d15 	stw	zero,52(r2)
 20041f0:	00808074 	movhi	r2,513
 20041f4:	10839304 	addi	r2,r2,3660
 20041f8:	10000d15 	stw	zero,52(r2)
 20041fc:	00808074 	movhi	r2,513
 2004200:	10836304 	addi	r2,r2,3468
 2004204:	10000d15 	stw	zero,52(r2)
 2004208:	00808074 	movhi	r2,513
 200420c:	10833704 	addi	r2,r2,3292
 2004210:	10000015 	stw	zero,0(r2)
 2004214:	00808074 	movhi	r2,513
 2004218:	10833704 	addi	r2,r2,3292
 200421c:	10000115 	stw	zero,4(r2)
 2004220:	00808074 	movhi	r2,513
 2004224:	10833704 	addi	r2,r2,3292
 2004228:	10000215 	stw	zero,8(r2)
 200422c:	00000c06 	br	2004260 <SetPoints+0x22c>
 2004230:	00c08074 	movhi	r3,513
 2004234:	18c37904 	addi	r3,r3,3556
 2004238:	00800044 	movi	r2,1
 200423c:	18800d15 	stw	r2,52(r3)
 2004240:	00c08074 	movhi	r3,513
 2004244:	18c39304 	addi	r3,r3,3660
 2004248:	00800044 	movi	r2,1
 200424c:	18800d15 	stw	r2,52(r3)
 2004250:	00c08074 	movhi	r3,513
 2004254:	18c36304 	addi	r3,r3,3468
 2004258:	00800044 	movi	r2,1
 200425c:	18800d15 	stw	r2,52(r3)
 2004260:	d0a09b0b 	ldhu	r2,-32148(gp)
 2004264:	113fffcc 	andi	r4,r2,65535
 2004268:	2008c700 	call	2008c70 <__floatsisf>
 200426c:	1007883a 	mov	r3,r2
 2004270:	008f3d74 	movhi	r2,15605
 2004274:	10bc3604 	addi	r2,r2,-3880
 2004278:	1887ff32 	custom	252,r3,r3,r2
 200427c:	0090ac74 	movhi	r2,17073
 2004280:	109779c4 	addi	r2,r2,24039
 2004284:	1885ffb2 	custom	254,r2,r3,r2
 2004288:	1009883a 	mov	r4,r2
 200428c:	2004b000 	call	2004b00 <roundf>
 2004290:	1007883a 	mov	r3,r2
 2004294:	008fc034 	movhi	r2,16128
 2004298:	1885ff72 	custom	253,r2,r3,r2
 200429c:	d0a09115 	stw	r2,-32188(gp)
 20042a0:	d0a09c0b 	ldhu	r2,-32144(gp)
 20042a4:	113fffcc 	andi	r4,r2,65535
 20042a8:	2008c700 	call	2008c70 <__floatsisf>
 20042ac:	1007883a 	mov	r3,r2
 20042b0:	008f3d34 	movhi	r2,15604
 20042b4:	1087c844 	addi	r2,r2,7969
 20042b8:	1887ff32 	custom	252,r3,r3,r2
 20042bc:	0090ac74 	movhi	r2,17073
 20042c0:	1080c484 	addi	r2,r2,786
 20042c4:	1885ffb2 	custom	254,r2,r3,r2
 20042c8:	1009883a 	mov	r4,r2
 20042cc:	2004b000 	call	2004b00 <roundf>
 20042d0:	1007883a 	mov	r3,r2
 20042d4:	00afe034 	movhi	r2,49024
 20042d8:	10c5ffb2 	custom	254,r2,r2,r3
 20042dc:	d0a09215 	stw	r2,-32184(gp)
 20042e0:	d0a09c8b 	ldhu	r2,-32142(gp)
 20042e4:	113fffcc 	andi	r4,r2,65535
 20042e8:	2008c700 	call	2008c70 <__floatsisf>
 20042ec:	1007883a 	mov	r3,r2
 20042f0:	008f8df4 	movhi	r2,15927
 20042f4:	1085d644 	addi	r2,r2,5977
 20042f8:	1887ff32 	custom	252,r3,r3,r2
 20042fc:	00910134 	movhi	r2,17412
 2004300:	1085aa04 	addi	r2,r2,5800
 2004304:	1885ffb2 	custom	254,r2,r3,r2
 2004308:	1009883a 	mov	r4,r2
 200430c:	2004b000 	call	2004b00 <roundf>
 2004310:	d0a09715 	stw	r2,-32164(gp)
 2004314:	d0e09117 	ldw	r3,-32188(gp)
 2004318:	00901274 	movhi	r2,16457
 200431c:	1083f6c4 	addi	r2,r2,4059
 2004320:	1885ff32 	custom	252,r2,r3,r2
 2004324:	1009883a 	mov	r4,r2
 2004328:	0150cd34 	movhi	r5,17204
 200432c:	20089940 	call	2008994 <__divsf3>
 2004330:	d0a09115 	stw	r2,-32188(gp)
 2004334:	d0e09217 	ldw	r3,-32184(gp)
 2004338:	00901274 	movhi	r2,16457
 200433c:	1083f6c4 	addi	r2,r2,4059
 2004340:	1885ff32 	custom	252,r2,r3,r2
 2004344:	1009883a 	mov	r4,r2
 2004348:	0150cd34 	movhi	r5,17204
 200434c:	20089940 	call	2008994 <__divsf3>
 2004350:	d0a09215 	stw	r2,-32184(gp)
 2004354:	d0e09717 	ldw	r3,-32164(gp)
 2004358:	00901274 	movhi	r2,16457
 200435c:	1083f6c4 	addi	r2,r2,4059
 2004360:	1885ff32 	custom	252,r2,r3,r2
 2004364:	1009883a 	mov	r4,r2
 2004368:	0150cd34 	movhi	r5,17204
 200436c:	20089940 	call	2008994 <__divsf3>
 2004370:	d0a09715 	stw	r2,-32164(gp)
 2004374:	e037883a 	mov	sp,fp
 2004378:	dfc00117 	ldw	ra,4(sp)
 200437c:	df000017 	ldw	fp,0(sp)
 2004380:	dec00204 	addi	sp,sp,8
 2004384:	f800283a 	ret

02004388 <Data_to_GCS>:
 2004388:	defffe04 	addi	sp,sp,-8
 200438c:	dfc00115 	stw	ra,4(sp)
 2004390:	df000015 	stw	fp,0(sp)
 2004394:	d839883a 	mov	fp,sp
 2004398:	d0e06f17 	ldw	r3,-32324(gp)
 200439c:	00808074 	movhi	r2,513
 20043a0:	10835604 	addi	r2,r2,3416
 20043a4:	10c00015 	stw	r3,0(r2)
 20043a8:	d0e06e17 	ldw	r3,-32328(gp)
 20043ac:	00808074 	movhi	r2,513
 20043b0:	10835604 	addi	r2,r2,3416
 20043b4:	10c00115 	stw	r3,4(r2)
 20043b8:	d0e08317 	ldw	r3,-32244(gp)
 20043bc:	00808074 	movhi	r2,513
 20043c0:	10835604 	addi	r2,r2,3416
 20043c4:	10c00215 	stw	r3,8(r2)
 20043c8:	d0e03417 	ldw	r3,-32560(gp)
 20043cc:	0090cd34 	movhi	r2,17204
 20043d0:	1885ff32 	custom	252,r2,r3,r2
 20043d4:	1009883a 	mov	r4,r2
 20043d8:	01501274 	movhi	r5,16457
 20043dc:	2943f6c4 	addi	r5,r5,4059
 20043e0:	20089940 	call	2008994 <__divsf3>
 20043e4:	1007883a 	mov	r3,r2
 20043e8:	00808074 	movhi	r2,513
 20043ec:	10835604 	addi	r2,r2,3416
 20043f0:	10c00315 	stw	r3,12(r2)
 20043f4:	d0e07d17 	ldw	r3,-32268(gp)
 20043f8:	0090cd34 	movhi	r2,17204
 20043fc:	1885ff32 	custom	252,r2,r3,r2
 2004400:	1009883a 	mov	r4,r2
 2004404:	01501274 	movhi	r5,16457
 2004408:	2943f6c4 	addi	r5,r5,4059
 200440c:	20089940 	call	2008994 <__divsf3>
 2004410:	1007883a 	mov	r3,r2
 2004414:	00808074 	movhi	r2,513
 2004418:	10835604 	addi	r2,r2,3416
 200441c:	10c00415 	stw	r3,16(r2)
 2004420:	d0e02517 	ldw	r3,-32620(gp)
 2004424:	0090cd34 	movhi	r2,17204
 2004428:	1885ff32 	custom	252,r2,r3,r2
 200442c:	1009883a 	mov	r4,r2
 2004430:	01501274 	movhi	r5,16457
 2004434:	2943f6c4 	addi	r5,r5,4059
 2004438:	20089940 	call	2008994 <__divsf3>
 200443c:	1007883a 	mov	r3,r2
 2004440:	00808074 	movhi	r2,513
 2004444:	10835604 	addi	r2,r2,3416
 2004448:	10c00515 	stw	r3,20(r2)
 200444c:	d0e09117 	ldw	r3,-32188(gp)
 2004450:	0090cd34 	movhi	r2,17204
 2004454:	1885ff32 	custom	252,r2,r3,r2
 2004458:	1009883a 	mov	r4,r2
 200445c:	01501274 	movhi	r5,16457
 2004460:	2943f6c4 	addi	r5,r5,4059
 2004464:	20089940 	call	2008994 <__divsf3>
 2004468:	1007883a 	mov	r3,r2
 200446c:	00808074 	movhi	r2,513
 2004470:	10835604 	addi	r2,r2,3416
 2004474:	10c00615 	stw	r3,24(r2)
 2004478:	d0e09217 	ldw	r3,-32184(gp)
 200447c:	0090cd34 	movhi	r2,17204
 2004480:	1885ff32 	custom	252,r2,r3,r2
 2004484:	1009883a 	mov	r4,r2
 2004488:	01501274 	movhi	r5,16457
 200448c:	2943f6c4 	addi	r5,r5,4059
 2004490:	20089940 	call	2008994 <__divsf3>
 2004494:	1007883a 	mov	r3,r2
 2004498:	00808074 	movhi	r2,513
 200449c:	10835604 	addi	r2,r2,3416
 20044a0:	10c00715 	stw	r3,28(r2)
 20044a4:	d0e09717 	ldw	r3,-32164(gp)
 20044a8:	0090cd34 	movhi	r2,17204
 20044ac:	1885ff32 	custom	252,r2,r3,r2
 20044b0:	1009883a 	mov	r4,r2
 20044b4:	01501274 	movhi	r5,16457
 20044b8:	2943f6c4 	addi	r5,r5,4059
 20044bc:	20089940 	call	2008994 <__divsf3>
 20044c0:	1007883a 	mov	r3,r2
 20044c4:	00808074 	movhi	r2,513
 20044c8:	10835604 	addi	r2,r2,3416
 20044cc:	10c00815 	stw	r3,32(r2)
 20044d0:	d1208f17 	ldw	r4,-32196(gp)
 20044d4:	2008c700 	call	2008c70 <__floatsisf>
 20044d8:	1009883a 	mov	r4,r2
 20044dc:	0150b234 	movhi	r5,17096
 20044e0:	20089940 	call	2008994 <__divsf3>
 20044e4:	1007883a 	mov	r3,r2
 20044e8:	00808074 	movhi	r2,513
 20044ec:	10835604 	addi	r2,r2,3416
 20044f0:	10c00915 	stw	r3,36(r2)
 20044f4:	e037883a 	mov	sp,fp
 20044f8:	dfc00117 	ldw	ra,4(sp)
 20044fc:	df000017 	ldw	fp,0(sp)
 2004500:	dec00204 	addi	sp,sp,8
 2004504:	f800283a 	ret

02004508 <SetPIDs>:
 2004508:	defffe04 	addi	sp,sp,-8
 200450c:	df000115 	stw	fp,4(sp)
 2004510:	df000104 	addi	fp,sp,4
 2004514:	d0a00117 	ldw	r2,-32764(gp)
 2004518:	e0bfff15 	stw	r2,-4(fp)
 200451c:	e0ffff17 	ldw	r3,-4(fp)
 2004520:	18800228 	cmpgeui	r2,r3,8
 2004524:	10007b1e 	bne	r2,zero,2004714 <SetPIDs+0x20c>
 2004528:	e13fff17 	ldw	r4,-4(fp)
 200452c:	e13fff17 	ldw	r4,-4(fp)
 2004530:	2105883a 	add	r2,r4,r4
 2004534:	1087883a 	add	r3,r2,r2
 2004538:	00808034 	movhi	r2,512
 200453c:	10915304 	addi	r2,r2,17740
 2004540:	1885883a 	add	r2,r3,r2
 2004544:	10800017 	ldw	r2,0(r2)
 2004548:	1000683a 	jmp	r2
 200454c:	0200456c 	andhi	r8,zero,277
 2004550:	020045b8 	rdprs	r8,zero,278
 2004554:	02004604 	movi	r8,280
 2004558:	02004650 	cmplti	r8,zero,281
 200455c:	0200469c 	xori	r8,zero,282
 2004560:	020046c0 	call	20046c <__alt_mem_sdram-0x1dffb94>
 2004564:	020046e4 	muli	r8,zero,283
 2004568:	02004708 	cmpgei	r8,zero,284
 200456c:	00808074 	movhi	r2,513
 2004570:	10833a04 	addi	r2,r2,3304
 2004574:	10c00117 	ldw	r3,4(r2)
 2004578:	00808074 	movhi	r2,513
 200457c:	10839304 	addi	r2,r2,3660
 2004580:	10c00015 	stw	r3,0(r2)
 2004584:	00808074 	movhi	r2,513
 2004588:	10833a04 	addi	r2,r2,3304
 200458c:	10c00217 	ldw	r3,8(r2)
 2004590:	00808074 	movhi	r2,513
 2004594:	10839304 	addi	r2,r2,3660
 2004598:	10c00115 	stw	r3,4(r2)
 200459c:	00808074 	movhi	r2,513
 20045a0:	10833a04 	addi	r2,r2,3304
 20045a4:	10c00317 	ldw	r3,12(r2)
 20045a8:	00808074 	movhi	r2,513
 20045ac:	10839304 	addi	r2,r2,3660
 20045b0:	10c00215 	stw	r3,8(r2)
 20045b4:	00005906 	br	200471c <SetPIDs+0x214>
 20045b8:	00808074 	movhi	r2,513
 20045bc:	10833a04 	addi	r2,r2,3304
 20045c0:	10c00117 	ldw	r3,4(r2)
 20045c4:	00808074 	movhi	r2,513
 20045c8:	10839304 	addi	r2,r2,3660
 20045cc:	10c00015 	stw	r3,0(r2)
 20045d0:	00808074 	movhi	r2,513
 20045d4:	10833a04 	addi	r2,r2,3304
 20045d8:	10c00217 	ldw	r3,8(r2)
 20045dc:	00808074 	movhi	r2,513
 20045e0:	10839304 	addi	r2,r2,3660
 20045e4:	10c00115 	stw	r3,4(r2)
 20045e8:	00808074 	movhi	r2,513
 20045ec:	10833a04 	addi	r2,r2,3304
 20045f0:	10c00317 	ldw	r3,12(r2)
 20045f4:	00808074 	movhi	r2,513
 20045f8:	10839304 	addi	r2,r2,3660
 20045fc:	10c00215 	stw	r3,8(r2)
 2004600:	00004606 	br	200471c <SetPIDs+0x214>
 2004604:	00808074 	movhi	r2,513
 2004608:	10833a04 	addi	r2,r2,3304
 200460c:	10c00117 	ldw	r3,4(r2)
 2004610:	00808074 	movhi	r2,513
 2004614:	10837904 	addi	r2,r2,3556
 2004618:	10c00015 	stw	r3,0(r2)
 200461c:	00808074 	movhi	r2,513
 2004620:	10833a04 	addi	r2,r2,3304
 2004624:	10c00217 	ldw	r3,8(r2)
 2004628:	00808074 	movhi	r2,513
 200462c:	10837904 	addi	r2,r2,3556
 2004630:	10c00115 	stw	r3,4(r2)
 2004634:	00808074 	movhi	r2,513
 2004638:	10833a04 	addi	r2,r2,3304
 200463c:	10c00317 	ldw	r3,12(r2)
 2004640:	00808074 	movhi	r2,513
 2004644:	10837904 	addi	r2,r2,3556
 2004648:	10c00215 	stw	r3,8(r2)
 200464c:	00003306 	br	200471c <SetPIDs+0x214>
 2004650:	00808074 	movhi	r2,513
 2004654:	10833a04 	addi	r2,r2,3304
 2004658:	10c00117 	ldw	r3,4(r2)
 200465c:	00808074 	movhi	r2,513
 2004660:	10836304 	addi	r2,r2,3468
 2004664:	10c00015 	stw	r3,0(r2)
 2004668:	00808074 	movhi	r2,513
 200466c:	10833a04 	addi	r2,r2,3304
 2004670:	10c00217 	ldw	r3,8(r2)
 2004674:	00808074 	movhi	r2,513
 2004678:	10836304 	addi	r2,r2,3468
 200467c:	10c00115 	stw	r3,4(r2)
 2004680:	00808074 	movhi	r2,513
 2004684:	10833a04 	addi	r2,r2,3304
 2004688:	10c00317 	ldw	r3,12(r2)
 200468c:	00808074 	movhi	r2,513
 2004690:	10836304 	addi	r2,r2,3468
 2004694:	10c00215 	stw	r3,8(r2)
 2004698:	00002006 	br	200471c <SetPIDs+0x214>
 200469c:	00808074 	movhi	r2,513
 20046a0:	10833a04 	addi	r2,r2,3304
 20046a4:	10800117 	ldw	r2,4(r2)
 20046a8:	d0a00315 	stw	r2,-32756(gp)
 20046ac:	00808074 	movhi	r2,513
 20046b0:	10833a04 	addi	r2,r2,3304
 20046b4:	10800217 	ldw	r2,8(r2)
 20046b8:	d0a00715 	stw	r2,-32740(gp)
 20046bc:	00001706 	br	200471c <SetPIDs+0x214>
 20046c0:	00808074 	movhi	r2,513
 20046c4:	10833a04 	addi	r2,r2,3304
 20046c8:	10800117 	ldw	r2,4(r2)
 20046cc:	d0a00315 	stw	r2,-32756(gp)
 20046d0:	00808074 	movhi	r2,513
 20046d4:	10833a04 	addi	r2,r2,3304
 20046d8:	10800217 	ldw	r2,8(r2)
 20046dc:	d0a00715 	stw	r2,-32740(gp)
 20046e0:	00000e06 	br	200471c <SetPIDs+0x214>
 20046e4:	00808074 	movhi	r2,513
 20046e8:	10833a04 	addi	r2,r2,3304
 20046ec:	10800117 	ldw	r2,4(r2)
 20046f0:	d0a00415 	stw	r2,-32752(gp)
 20046f4:	00808074 	movhi	r2,513
 20046f8:	10833a04 	addi	r2,r2,3304
 20046fc:	10800217 	ldw	r2,8(r2)
 2004700:	d0a00615 	stw	r2,-32744(gp)
 2004704:	00000506 	br	200471c <SetPIDs+0x214>
 2004708:	00800044 	movi	r2,1
 200470c:	d0a08d15 	stw	r2,-32204(gp)
 2004710:	00000206 	br	200471c <SetPIDs+0x214>
 2004714:	00800044 	movi	r2,1
 2004718:	d0a08e15 	stw	r2,-32200(gp)
 200471c:	e037883a 	mov	sp,fp
 2004720:	df000017 	ldw	fp,0(sp)
 2004724:	dec00104 	addi	sp,sp,4
 2004728:	f800283a 	ret

0200472c <handle_uart_interrupts>:
 200472c:	defffc04 	addi	sp,sp,-16
 2004730:	df000315 	stw	fp,12(sp)
 2004734:	df000304 	addi	fp,sp,12
 2004738:	e13ffe15 	stw	r4,-8(fp)
 200473c:	e17fff15 	stw	r5,-4(fp)
 2004740:	00810034 	movhi	r2,1024
 2004744:	10881a04 	addi	r2,r2,8296
 2004748:	10800037 	ldwio	r2,0(r2)
 200474c:	e0bffd15 	stw	r2,-12(fp)
 2004750:	e0bffd17 	ldw	r2,-12(fp)
 2004754:	1080200c 	andi	r2,r2,128
 2004758:	1005003a 	cmpeq	r2,r2,zero
 200475c:	10002c1e 	bne	r2,zero,2004810 <handle_uart_interrupts+0xe4>
 2004760:	00810034 	movhi	r2,1024
 2004764:	10881804 	addi	r2,r2,8288
 2004768:	10800037 	ldwio	r2,0(r2)
 200476c:	10801698 	cmpnei	r2,r2,90
 2004770:	10000b1e 	bne	r2,zero,20047a0 <handle_uart_interrupts+0x74>
 2004774:	d0a09a17 	ldw	r2,-32152(gp)
 2004778:	10800058 	cmpnei	r2,r2,1
 200477c:	1000081e 	bne	r2,zero,20047a0 <handle_uart_interrupts+0x74>
 2004780:	d0209915 	stw	zero,-32156(gp)
 2004784:	d0209a15 	stw	zero,-32152(gp)
 2004788:	d0e0a417 	ldw	r3,-32112(gp)
 200478c:	d0a00017 	ldw	r2,-32768(gp)
 2004790:	1880021e 	bne	r3,r2,200479c <handle_uart_interrupts+0x70>
 2004794:	00800044 	movi	r2,1
 2004798:	d0a09815 	stw	r2,-32160(gp)
 200479c:	d020a415 	stw	zero,-32112(gp)
 20047a0:	d0a09917 	ldw	r2,-32156(gp)
 20047a4:	1005003a 	cmpeq	r2,r2,zero
 20047a8:	10000c1e 	bne	r2,zero,20047dc <handle_uart_interrupts+0xb0>
 20047ac:	d120a417 	ldw	r4,-32112(gp)
 20047b0:	00810034 	movhi	r2,1024
 20047b4:	10881804 	addi	r2,r2,8288
 20047b8:	10800037 	ldwio	r2,0(r2)
 20047bc:	1007883a 	mov	r3,r2
 20047c0:	00808074 	movhi	r2,513
 20047c4:	10833a04 	addi	r2,r2,3304
 20047c8:	1105883a 	add	r2,r2,r4
 20047cc:	10c00005 	stb	r3,0(r2)
 20047d0:	d0a0a417 	ldw	r2,-32112(gp)
 20047d4:	10800044 	addi	r2,r2,1
 20047d8:	d0a0a415 	stw	r2,-32112(gp)
 20047dc:	00810034 	movhi	r2,1024
 20047e0:	10881804 	addi	r2,r2,8288
 20047e4:	10800037 	ldwio	r2,0(r2)
 20047e8:	10801618 	cmpnei	r2,r2,88
 20047ec:	1000081e 	bne	r2,zero,2004810 <handle_uart_interrupts+0xe4>
 20047f0:	d0a09917 	ldw	r2,-32156(gp)
 20047f4:	1004c03a 	cmpne	r2,r2,zero
 20047f8:	1000051e 	bne	r2,zero,2004810 <handle_uart_interrupts+0xe4>
 20047fc:	00800044 	movi	r2,1
 2004800:	d0a09915 	stw	r2,-32156(gp)
 2004804:	00800044 	movi	r2,1
 2004808:	d0a09a15 	stw	r2,-32152(gp)
 200480c:	d020a415 	stw	zero,-32112(gp)
 2004810:	00810034 	movhi	r2,1024
 2004814:	10881a04 	addi	r2,r2,8296
 2004818:	10000035 	stwio	zero,0(r2)
 200481c:	e037883a 	mov	sp,fp
 2004820:	df000017 	ldw	fp,0(sp)
 2004824:	dec00104 	addi	sp,sp,4
 2004828:	f800283a 	ret

0200482c <cos>:
 200482c:	00a00034 	movhi	r2,32768
 2004830:	10bfffc4 	addi	r2,r2,-1
 2004834:	defffa04 	addi	sp,sp,-24
 2004838:	114c703a 	and	r6,r2,r5
 200483c:	008ffa74 	movhi	r2,16361
 2004840:	10887ec4 	addi	r2,r2,8699
 2004844:	dfc00515 	stw	ra,20(sp)
 2004848:	2011883a 	mov	r8,r4
 200484c:	1180210e 	bge	r2,r6,20048d4 <cos+0xa8>
 2004850:	009ffc34 	movhi	r2,32752
 2004854:	10bfffc4 	addi	r2,r2,-1
 2004858:	11800a0e 	bge	r2,r6,2004884 <cos+0x58>
 200485c:	280f883a 	mov	r7,r5
 2004860:	400d883a 	mov	r6,r8
 2004864:	20092000 	call	2009200 <__subdf3>
 2004868:	100d883a 	mov	r6,r2
 200486c:	180f883a 	mov	r7,r3
 2004870:	3005883a 	mov	r2,r6
 2004874:	3807883a 	mov	r3,r7
 2004878:	dfc00517 	ldw	ra,20(sp)
 200487c:	dec00604 	addi	sp,sp,24
 2004880:	f800283a 	ret
 2004884:	d9800104 	addi	r6,sp,4
 2004888:	2005a0c0 	call	2005a0c <__ieee754_rem_pio2>
 200488c:	10c000cc 	andi	r3,r2,3
 2004890:	01000044 	movi	r4,1
 2004894:	19001926 	beq	r3,r4,20048fc <cos+0xd0>
 2004898:	00800084 	movi	r2,2
 200489c:	18803126 	beq	r3,r2,2004964 <cos+0x138>
 20048a0:	1800231e 	bne	r3,zero,2004930 <cos+0x104>
 20048a4:	d8800117 	ldw	r2,4(sp)
 20048a8:	da000317 	ldw	r8,12(sp)
 20048ac:	d8c00217 	ldw	r3,8(sp)
 20048b0:	da400417 	ldw	r9,16(sp)
 20048b4:	400d883a 	mov	r6,r8
 20048b8:	180b883a 	mov	r5,r3
 20048bc:	480f883a 	mov	r7,r9
 20048c0:	1009883a 	mov	r4,r2
 20048c4:	20064fc0 	call	20064fc <__kernel_cos>
 20048c8:	100d883a 	mov	r6,r2
 20048cc:	180f883a 	mov	r7,r3
 20048d0:	003fe706 	br	2004870 <cos+0x44>
 20048d4:	000d883a 	mov	r6,zero
 20048d8:	000f883a 	mov	r7,zero
 20048dc:	20064fc0 	call	20064fc <__kernel_cos>
 20048e0:	100d883a 	mov	r6,r2
 20048e4:	180f883a 	mov	r7,r3
 20048e8:	3005883a 	mov	r2,r6
 20048ec:	3807883a 	mov	r3,r7
 20048f0:	dfc00517 	ldw	ra,20(sp)
 20048f4:	dec00604 	addi	sp,sp,24
 20048f8:	f800283a 	ret
 20048fc:	d8800117 	ldw	r2,4(sp)
 2004900:	da000317 	ldw	r8,12(sp)
 2004904:	d8c00217 	ldw	r3,8(sp)
 2004908:	da400417 	ldw	r9,16(sp)
 200490c:	d9000015 	stw	r4,0(sp)
 2004910:	400d883a 	mov	r6,r8
 2004914:	480f883a 	mov	r7,r9
 2004918:	180b883a 	mov	r5,r3
 200491c:	1009883a 	mov	r4,r2
 2004920:	20078a40 	call	20078a4 <__kernel_sin>
 2004924:	100d883a 	mov	r6,r2
 2004928:	19e0003c 	xorhi	r7,r3,32768
 200492c:	003fd006 	br	2004870 <cos+0x44>
 2004930:	d8800117 	ldw	r2,4(sp)
 2004934:	da000317 	ldw	r8,12(sp)
 2004938:	d8c00217 	ldw	r3,8(sp)
 200493c:	da400417 	ldw	r9,16(sp)
 2004940:	d9000015 	stw	r4,0(sp)
 2004944:	400d883a 	mov	r6,r8
 2004948:	480f883a 	mov	r7,r9
 200494c:	180b883a 	mov	r5,r3
 2004950:	1009883a 	mov	r4,r2
 2004954:	20078a40 	call	20078a4 <__kernel_sin>
 2004958:	100d883a 	mov	r6,r2
 200495c:	180f883a 	mov	r7,r3
 2004960:	003fc306 	br	2004870 <cos+0x44>
 2004964:	d8800117 	ldw	r2,4(sp)
 2004968:	da000317 	ldw	r8,12(sp)
 200496c:	d8c00217 	ldw	r3,8(sp)
 2004970:	da400417 	ldw	r9,16(sp)
 2004974:	400d883a 	mov	r6,r8
 2004978:	180b883a 	mov	r5,r3
 200497c:	480f883a 	mov	r7,r9
 2004980:	1009883a 	mov	r4,r2
 2004984:	20064fc0 	call	20064fc <__kernel_cos>
 2004988:	100d883a 	mov	r6,r2
 200498c:	19e0003c 	xorhi	r7,r3,32768
 2004990:	003fb706 	br	2004870 <cos+0x44>

02004994 <sin>:
 2004994:	00a00034 	movhi	r2,32768
 2004998:	10bfffc4 	addi	r2,r2,-1
 200499c:	defffa04 	addi	sp,sp,-24
 20049a0:	114c703a 	and	r6,r2,r5
 20049a4:	008ffa74 	movhi	r2,16361
 20049a8:	10887ec4 	addi	r2,r2,8699
 20049ac:	dfc00515 	stw	ra,20(sp)
 20049b0:	2011883a 	mov	r8,r4
 20049b4:	1180220e 	bge	r2,r6,2004a40 <sin+0xac>
 20049b8:	009ffc34 	movhi	r2,32752
 20049bc:	10bfffc4 	addi	r2,r2,-1
 20049c0:	11800a0e 	bge	r2,r6,20049ec <sin+0x58>
 20049c4:	280f883a 	mov	r7,r5
 20049c8:	400d883a 	mov	r6,r8
 20049cc:	20092000 	call	2009200 <__subdf3>
 20049d0:	100d883a 	mov	r6,r2
 20049d4:	180f883a 	mov	r7,r3
 20049d8:	3005883a 	mov	r2,r6
 20049dc:	3807883a 	mov	r3,r7
 20049e0:	dfc00517 	ldw	ra,20(sp)
 20049e4:	dec00604 	addi	sp,sp,24
 20049e8:	f800283a 	ret
 20049ec:	d9800104 	addi	r6,sp,4
 20049f0:	2005a0c0 	call	2005a0c <__ieee754_rem_pio2>
 20049f4:	10c000cc 	andi	r3,r2,3
 20049f8:	01000044 	movi	r4,1
 20049fc:	19001b26 	beq	r3,r4,2004a6c <sin+0xd8>
 2004a00:	00800084 	movi	r2,2
 2004a04:	18803126 	beq	r3,r2,2004acc <sin+0x138>
 2004a08:	1800241e 	bne	r3,zero,2004a9c <sin+0x108>
 2004a0c:	d8800117 	ldw	r2,4(sp)
 2004a10:	da000317 	ldw	r8,12(sp)
 2004a14:	d8c00217 	ldw	r3,8(sp)
 2004a18:	da400417 	ldw	r9,16(sp)
 2004a1c:	d9000015 	stw	r4,0(sp)
 2004a20:	400d883a 	mov	r6,r8
 2004a24:	480f883a 	mov	r7,r9
 2004a28:	180b883a 	mov	r5,r3
 2004a2c:	1009883a 	mov	r4,r2
 2004a30:	20078a40 	call	20078a4 <__kernel_sin>
 2004a34:	100d883a 	mov	r6,r2
 2004a38:	180f883a 	mov	r7,r3
 2004a3c:	003fe606 	br	20049d8 <sin+0x44>
 2004a40:	000d883a 	mov	r6,zero
 2004a44:	000f883a 	mov	r7,zero
 2004a48:	d8000015 	stw	zero,0(sp)
 2004a4c:	20078a40 	call	20078a4 <__kernel_sin>
 2004a50:	100d883a 	mov	r6,r2
 2004a54:	180f883a 	mov	r7,r3
 2004a58:	3005883a 	mov	r2,r6
 2004a5c:	3807883a 	mov	r3,r7
 2004a60:	dfc00517 	ldw	ra,20(sp)
 2004a64:	dec00604 	addi	sp,sp,24
 2004a68:	f800283a 	ret
 2004a6c:	d8800117 	ldw	r2,4(sp)
 2004a70:	da000317 	ldw	r8,12(sp)
 2004a74:	d8c00217 	ldw	r3,8(sp)
 2004a78:	da400417 	ldw	r9,16(sp)
 2004a7c:	400d883a 	mov	r6,r8
 2004a80:	180b883a 	mov	r5,r3
 2004a84:	480f883a 	mov	r7,r9
 2004a88:	1009883a 	mov	r4,r2
 2004a8c:	20064fc0 	call	20064fc <__kernel_cos>
 2004a90:	100d883a 	mov	r6,r2
 2004a94:	180f883a 	mov	r7,r3
 2004a98:	003fcf06 	br	20049d8 <sin+0x44>
 2004a9c:	d8800117 	ldw	r2,4(sp)
 2004aa0:	da000317 	ldw	r8,12(sp)
 2004aa4:	d8c00217 	ldw	r3,8(sp)
 2004aa8:	da400417 	ldw	r9,16(sp)
 2004aac:	400d883a 	mov	r6,r8
 2004ab0:	180b883a 	mov	r5,r3
 2004ab4:	480f883a 	mov	r7,r9
 2004ab8:	1009883a 	mov	r4,r2
 2004abc:	20064fc0 	call	20064fc <__kernel_cos>
 2004ac0:	100d883a 	mov	r6,r2
 2004ac4:	19e0003c 	xorhi	r7,r3,32768
 2004ac8:	003fc306 	br	20049d8 <sin+0x44>
 2004acc:	d8800117 	ldw	r2,4(sp)
 2004ad0:	da000317 	ldw	r8,12(sp)
 2004ad4:	d8c00217 	ldw	r3,8(sp)
 2004ad8:	da400417 	ldw	r9,16(sp)
 2004adc:	d9000015 	stw	r4,0(sp)
 2004ae0:	400d883a 	mov	r6,r8
 2004ae4:	480f883a 	mov	r7,r9
 2004ae8:	180b883a 	mov	r5,r3
 2004aec:	1009883a 	mov	r4,r2
 2004af0:	20078a40 	call	20078a4 <__kernel_sin>
 2004af4:	100d883a 	mov	r6,r2
 2004af8:	19e0003c 	xorhi	r7,r3,32768
 2004afc:	003fb606 	br	20049d8 <sin+0x44>

02004b00 <roundf>:
 2004b00:	209fe02c 	andhi	r2,r4,32640
 2004b04:	1004d5fa 	srli	r2,r2,23
 2004b08:	deffff04 	addi	sp,sp,-4
 2004b0c:	00c00584 	movi	r3,22
 2004b10:	11bfe044 	addi	r6,r2,-127
 2004b14:	dfc00015 	stw	ra,0(sp)
 2004b18:	200f883a 	mov	r7,r4
 2004b1c:	19801016 	blt	r3,r6,2004b60 <roundf+0x60>
 2004b20:	00802034 	movhi	r2,128
 2004b24:	10bfffc4 	addi	r2,r2,-1
 2004b28:	1189d83a 	sra	r4,r2,r6
 2004b2c:	30001516 	blt	r6,zero,2004b84 <roundf+0x84>
 2004b30:	00801034 	movhi	r2,64
 2004b34:	1185d83a 	sra	r2,r2,r6
 2004b38:	0106303a 	nor	r3,zero,r4
 2004b3c:	3908703a 	and	r4,r7,r4
 2004b40:	3885883a 	add	r2,r7,r2
 2004b44:	10c6703a 	and	r3,r2,r3
 2004b48:	20000126 	beq	r4,zero,2004b50 <roundf+0x50>
 2004b4c:	180f883a 	mov	r7,r3
 2004b50:	3805883a 	mov	r2,r7
 2004b54:	dfc00017 	ldw	ra,0(sp)
 2004b58:	dec00104 	addi	sp,sp,4
 2004b5c:	f800283a 	ret
 2004b60:	00802004 	movi	r2,128
 2004b64:	200b883a 	mov	r5,r4
 2004b68:	30bff91e 	bne	r6,r2,2004b50 <roundf+0x50>
 2004b6c:	20089300 	call	2008930 <__addsf3>
 2004b70:	100f883a 	mov	r7,r2
 2004b74:	3805883a 	mov	r2,r7
 2004b78:	dfc00017 	ldw	ra,0(sp)
 2004b7c:	dec00104 	addi	sp,sp,4
 2004b80:	f800283a 	ret
 2004b84:	00bfffc4 	movi	r2,-1
 2004b88:	38e0002c 	andhi	r3,r7,32768
 2004b8c:	30bfef1e 	bne	r6,r2,2004b4c <roundf+0x4c>
 2004b90:	18cfe034 	orhi	r3,r3,16256
 2004b94:	180f883a 	mov	r7,r3
 2004b98:	003fed06 	br	2004b50 <roundf+0x50>

02004b9c <asin>:
 2004b9c:	defff104 	addi	sp,sp,-60
 2004ba0:	dd000d15 	stw	r20,52(sp)
 2004ba4:	05008074 	movhi	r20,513
 2004ba8:	a500f104 	addi	r20,r20,964
 2004bac:	dcc00c15 	stw	r19,48(sp)
 2004bb0:	dc800b15 	stw	r18,44(sp)
 2004bb4:	dc400a15 	stw	r17,40(sp)
 2004bb8:	dc000915 	stw	r16,36(sp)
 2004bbc:	2025883a 	mov	r18,r4
 2004bc0:	dfc00e15 	stw	ra,56(sp)
 2004bc4:	2827883a 	mov	r19,r5
 2004bc8:	2004e000 	call	2004e00 <__ieee754_asin>
 2004bcc:	a1000017 	ldw	r4,0(r20)
 2004bd0:	1021883a 	mov	r16,r2
 2004bd4:	00bfffc4 	movi	r2,-1
 2004bd8:	1823883a 	mov	r17,r3
 2004bdc:	20800426 	beq	r4,r2,2004bf0 <asin+0x54>
 2004be0:	9009883a 	mov	r4,r18
 2004be4:	980b883a 	mov	r5,r19
 2004be8:	20084900 	call	2008490 <__isnand>
 2004bec:	10000a26 	beq	r2,zero,2004c18 <asin+0x7c>
 2004bf0:	8005883a 	mov	r2,r16
 2004bf4:	8807883a 	mov	r3,r17
 2004bf8:	dfc00e17 	ldw	ra,56(sp)
 2004bfc:	dd000d17 	ldw	r20,52(sp)
 2004c00:	dcc00c17 	ldw	r19,48(sp)
 2004c04:	dc800b17 	ldw	r18,44(sp)
 2004c08:	dc400a17 	ldw	r17,40(sp)
 2004c0c:	dc000917 	ldw	r16,36(sp)
 2004c10:	dec00f04 	addi	sp,sp,60
 2004c14:	f800283a 	ret
 2004c18:	9009883a 	mov	r4,r18
 2004c1c:	980b883a 	mov	r5,r19
 2004c20:	20082540 	call	2008254 <fabs>
 2004c24:	0011883a 	mov	r8,zero
 2004c28:	024ffc34 	movhi	r9,16368
 2004c2c:	180b883a 	mov	r5,r3
 2004c30:	480f883a 	mov	r7,r9
 2004c34:	1009883a 	mov	r4,r2
 2004c38:	400d883a 	mov	r6,r8
 2004c3c:	20099980 	call	2009998 <__gtdf2>
 2004c40:	00bfeb0e 	bge	zero,r2,2004bf0 <asin+0x54>
 2004c44:	00800044 	movi	r2,1
 2004c48:	00c08074 	movhi	r3,513
 2004c4c:	18f9a704 	addi	r3,r3,-6500
 2004c50:	01008074 	movhi	r4,513
 2004c54:	2139a804 	addi	r4,r4,-6496
 2004c58:	d8800015 	stw	r2,0(sp)
 2004c5c:	d8c00115 	stw	r3,4(sp)
 2004c60:	dcc00315 	stw	r19,12(sp)
 2004c64:	d8000815 	stw	zero,32(sp)
 2004c68:	dc800415 	stw	r18,16(sp)
 2004c6c:	dcc00515 	stw	r19,20(sp)
 2004c70:	dc800215 	stw	r18,8(sp)
 2004c74:	20084c80 	call	20084c8 <nan>
 2004c78:	a1800017 	ldw	r6,0(r20)
 2004c7c:	d8800615 	stw	r2,24(sp)
 2004c80:	00800084 	movi	r2,2
 2004c84:	d8c00715 	stw	r3,28(sp)
 2004c88:	30800826 	beq	r6,r2,2004cac <asin+0x110>
 2004c8c:	d809883a 	mov	r4,sp
 2004c90:	20084c00 	call	20084c0 <matherr>
 2004c94:	10000526 	beq	r2,zero,2004cac <asin+0x110>
 2004c98:	d8800817 	ldw	r2,32(sp)
 2004c9c:	1000071e 	bne	r2,zero,2004cbc <asin+0x120>
 2004ca0:	dc000617 	ldw	r16,24(sp)
 2004ca4:	dc400717 	ldw	r17,28(sp)
 2004ca8:	003fd106 	br	2004bf0 <asin+0x54>
 2004cac:	200a8200 	call	200a820 <__errno>
 2004cb0:	00c00844 	movi	r3,33
 2004cb4:	10c00015 	stw	r3,0(r2)
 2004cb8:	003ff706 	br	2004c98 <asin+0xfc>
 2004cbc:	200a8200 	call	200a820 <__errno>
 2004cc0:	d8c00817 	ldw	r3,32(sp)
 2004cc4:	10c00015 	stw	r3,0(r2)
 2004cc8:	003ff506 	br	2004ca0 <asin+0x104>

02004ccc <atan2>:
 2004ccc:	20056bc1 	jmpi	20056bc <__ieee754_atan2>

02004cd0 <sqrt>:
 2004cd0:	defff104 	addi	sp,sp,-60
 2004cd4:	dd000d15 	stw	r20,52(sp)
 2004cd8:	05008074 	movhi	r20,513
 2004cdc:	a500f104 	addi	r20,r20,964
 2004ce0:	dcc00c15 	stw	r19,48(sp)
 2004ce4:	dc800b15 	stw	r18,44(sp)
 2004ce8:	dc400a15 	stw	r17,40(sp)
 2004cec:	dc000915 	stw	r16,36(sp)
 2004cf0:	2025883a 	mov	r18,r4
 2004cf4:	dfc00e15 	stw	ra,56(sp)
 2004cf8:	2827883a 	mov	r19,r5
 2004cfc:	20062340 	call	2006234 <__ieee754_sqrt>
 2004d00:	a1000017 	ldw	r4,0(r20)
 2004d04:	1021883a 	mov	r16,r2
 2004d08:	00bfffc4 	movi	r2,-1
 2004d0c:	1823883a 	mov	r17,r3
 2004d10:	20800a26 	beq	r4,r2,2004d3c <sqrt+0x6c>
 2004d14:	9009883a 	mov	r4,r18
 2004d18:	980b883a 	mov	r5,r19
 2004d1c:	20084900 	call	2008490 <__isnand>
 2004d20:	1000061e 	bne	r2,zero,2004d3c <sqrt+0x6c>
 2004d24:	000d883a 	mov	r6,zero
 2004d28:	000f883a 	mov	r7,zero
 2004d2c:	9009883a 	mov	r4,r18
 2004d30:	980b883a 	mov	r5,r19
 2004d34:	2009aa80 	call	2009aa8 <__ltdf2>
 2004d38:	10000a16 	blt	r2,zero,2004d64 <sqrt+0x94>
 2004d3c:	8005883a 	mov	r2,r16
 2004d40:	8807883a 	mov	r3,r17
 2004d44:	dfc00e17 	ldw	ra,56(sp)
 2004d48:	dd000d17 	ldw	r20,52(sp)
 2004d4c:	dcc00c17 	ldw	r19,48(sp)
 2004d50:	dc800b17 	ldw	r18,44(sp)
 2004d54:	dc400a17 	ldw	r17,40(sp)
 2004d58:	dc000917 	ldw	r16,36(sp)
 2004d5c:	dec00f04 	addi	sp,sp,60
 2004d60:	f800283a 	ret
 2004d64:	a4000017 	ldw	r16,0(r20)
 2004d68:	00800044 	movi	r2,1
 2004d6c:	00c08074 	movhi	r3,513
 2004d70:	18f9a904 	addi	r3,r3,-6492
 2004d74:	d8800015 	stw	r2,0(sp)
 2004d78:	d8c00115 	stw	r3,4(sp)
 2004d7c:	dcc00315 	stw	r19,12(sp)
 2004d80:	d8000815 	stw	zero,32(sp)
 2004d84:	dc800415 	stw	r18,16(sp)
 2004d88:	dcc00515 	stw	r19,20(sp)
 2004d8c:	dc800215 	stw	r18,8(sp)
 2004d90:	80000a1e 	bne	r16,zero,2004dbc <sqrt+0xec>
 2004d94:	d8000615 	stw	zero,24(sp)
 2004d98:	d8000715 	stw	zero,28(sp)
 2004d9c:	d809883a 	mov	r4,sp
 2004da0:	20084c00 	call	20084c0 <matherr>
 2004da4:	10000e26 	beq	r2,zero,2004de0 <sqrt+0x110>
 2004da8:	d8800817 	ldw	r2,32(sp)
 2004dac:	1000101e 	bne	r2,zero,2004df0 <sqrt+0x120>
 2004db0:	dc000617 	ldw	r16,24(sp)
 2004db4:	dc400717 	ldw	r17,28(sp)
 2004db8:	003fe006 	br	2004d3c <sqrt+0x6c>
 2004dbc:	0009883a 	mov	r4,zero
 2004dc0:	000d883a 	mov	r6,zero
 2004dc4:	000b883a 	mov	r5,zero
 2004dc8:	000f883a 	mov	r7,zero
 2004dcc:	20096b80 	call	20096b8 <__divdf3>
 2004dd0:	d8800615 	stw	r2,24(sp)
 2004dd4:	00800084 	movi	r2,2
 2004dd8:	d8c00715 	stw	r3,28(sp)
 2004ddc:	80bfef1e 	bne	r16,r2,2004d9c <sqrt+0xcc>
 2004de0:	200a8200 	call	200a820 <__errno>
 2004de4:	00c00844 	movi	r3,33
 2004de8:	10c00015 	stw	r3,0(r2)
 2004dec:	003fee06 	br	2004da8 <sqrt+0xd8>
 2004df0:	200a8200 	call	200a820 <__errno>
 2004df4:	d8c00817 	ldw	r3,32(sp)
 2004df8:	10c00015 	stw	r3,0(r2)
 2004dfc:	003fec06 	br	2004db0 <sqrt+0xe0>

02004e00 <__ieee754_asin>:
 2004e00:	defff004 	addi	sp,sp,-64
 2004e04:	00a00034 	movhi	r2,32768
 2004e08:	10bfffc4 	addi	r2,r2,-1
 2004e0c:	dd000a15 	stw	r20,40(sp)
 2004e10:	28a8703a 	and	r20,r5,r2
 2004e14:	008ffc34 	movhi	r2,16368
 2004e18:	10bfffc4 	addi	r2,r2,-1
 2004e1c:	df000e15 	stw	fp,56(sp)
 2004e20:	ddc00d15 	stw	r23,52(sp)
 2004e24:	dd800c15 	stw	r22,48(sp)
 2004e28:	dfc00f15 	stw	ra,60(sp)
 2004e2c:	dd400b15 	stw	r21,44(sp)
 2004e30:	dcc00915 	stw	r19,36(sp)
 2004e34:	dc800815 	stw	r18,32(sp)
 2004e38:	dc400715 	stw	r17,28(sp)
 2004e3c:	dc000615 	stw	r16,24(sp)
 2004e40:	202d883a 	mov	r22,r4
 2004e44:	282f883a 	mov	r23,r5
 2004e48:	2839883a 	mov	fp,r5
 2004e4c:	15002d0e 	bge	r2,r20,2004f04 <__ieee754_asin+0x104>
 2004e50:	01300434 	movhi	r4,49168
 2004e54:	a109883a 	add	r4,r20,r4
 2004e58:	2588b03a 	or	r4,r4,r22
 2004e5c:	2000ce1e 	bne	r4,zero,2005198 <__ieee754_asin+0x398>
 2004e60:	00951134 	movhi	r2,21572
 2004e64:	108b4604 	addi	r2,r2,11544
 2004e68:	00cffe74 	movhi	r3,16377
 2004e6c:	18c87ec4 	addi	r3,r3,8699
 2004e70:	180f883a 	mov	r7,r3
 2004e74:	b009883a 	mov	r4,r22
 2004e78:	100d883a 	mov	r6,r2
 2004e7c:	20092f40 	call	20092f4 <__muldf3>
 2004e80:	020cc534 	movhi	r8,13076
 2004e84:	421701c4 	addi	r8,r8,23559
 2004e88:	024f24b4 	movhi	r9,15506
 2004e8c:	4a698984 	addi	r9,r9,-23002
 2004e90:	b80b883a 	mov	r5,r23
 2004e94:	480f883a 	mov	r7,r9
 2004e98:	b009883a 	mov	r4,r22
 2004e9c:	400d883a 	mov	r6,r8
 2004ea0:	1021883a 	mov	r16,r2
 2004ea4:	1823883a 	mov	r17,r3
 2004ea8:	20092f40 	call	20092f4 <__muldf3>
 2004eac:	1011883a 	mov	r8,r2
 2004eb0:	880b883a 	mov	r5,r17
 2004eb4:	180f883a 	mov	r7,r3
 2004eb8:	8009883a 	mov	r4,r16
 2004ebc:	400d883a 	mov	r6,r8
 2004ec0:	20092800 	call	2009280 <__adddf3>
 2004ec4:	102d883a 	mov	r22,r2
 2004ec8:	182f883a 	mov	r23,r3
 2004ecc:	b005883a 	mov	r2,r22
 2004ed0:	b807883a 	mov	r3,r23
 2004ed4:	dfc00f17 	ldw	ra,60(sp)
 2004ed8:	df000e17 	ldw	fp,56(sp)
 2004edc:	ddc00d17 	ldw	r23,52(sp)
 2004ee0:	dd800c17 	ldw	r22,48(sp)
 2004ee4:	dd400b17 	ldw	r21,44(sp)
 2004ee8:	dd000a17 	ldw	r20,40(sp)
 2004eec:	dcc00917 	ldw	r19,36(sp)
 2004ef0:	dc800817 	ldw	r18,32(sp)
 2004ef4:	dc400717 	ldw	r17,28(sp)
 2004ef8:	dc000617 	ldw	r16,24(sp)
 2004efc:	dec01004 	addi	sp,sp,64
 2004f00:	f800283a 	ret
 2004f04:	008ff834 	movhi	r2,16352
 2004f08:	10bfffc4 	addi	r2,r2,-1
 2004f0c:	1500bd16 	blt	r2,r20,2005204 <__ieee754_asin+0x404>
 2004f10:	008f9034 	movhi	r2,15936
 2004f14:	10bfffc4 	addi	r2,r2,-1
 2004f18:	1500ab0e 	bge	r2,r20,20051c8 <__ieee754_asin+0x3c8>
 2004f1c:	280f883a 	mov	r7,r5
 2004f20:	b00d883a 	mov	r6,r22
 2004f24:	20092f40 	call	20092f4 <__muldf3>
 2004f28:	1021883a 	mov	r16,r2
 2004f2c:	1823883a 	mov	r17,r3
 2004f30:	00837fb4 	movhi	r2,3582
 2004f34:	10bdc244 	addi	r2,r2,-2295
 2004f38:	00cfc0b4 	movhi	r3,16130
 2004f3c:	18cf7844 	addi	r3,r3,15841
 2004f40:	180f883a 	mov	r7,r3
 2004f44:	8009883a 	mov	r4,r16
 2004f48:	880b883a 	mov	r5,r17
 2004f4c:	100d883a 	mov	r6,r2
 2004f50:	20092f40 	call	20092f4 <__muldf3>
 2004f54:	021d40b4 	movhi	r8,29954
 2004f58:	422ca204 	addi	r8,r8,-19832
 2004f5c:	024fd2b4 	movhi	r9,16202
 2004f60:	4a7bf804 	addi	r9,r9,-4128
 2004f64:	480f883a 	mov	r7,r9
 2004f68:	400d883a 	mov	r6,r8
 2004f6c:	180b883a 	mov	r5,r3
 2004f70:	1009883a 	mov	r4,r2
 2004f74:	20092800 	call	2009280 <__adddf3>
 2004f78:	180f883a 	mov	r7,r3
 2004f7c:	8009883a 	mov	r4,r16
 2004f80:	880b883a 	mov	r5,r17
 2004f84:	100d883a 	mov	r6,r2
 2004f88:	20092f40 	call	20092f4 <__muldf3>
 2004f8c:	022d5a74 	movhi	r8,46441
 2004f90:	4223cec4 	addi	r8,r8,-28869
 2004f94:	024fe974 	movhi	r9,16293
 2004f98:	4a608a04 	addi	r9,r9,-32216
 2004f9c:	480f883a 	mov	r7,r9
 2004fa0:	400d883a 	mov	r6,r8
 2004fa4:	180b883a 	mov	r5,r3
 2004fa8:	1009883a 	mov	r4,r2
 2004fac:	20092000 	call	2009200 <__subdf3>
 2004fb0:	180f883a 	mov	r7,r3
 2004fb4:	8009883a 	mov	r4,r16
 2004fb8:	880b883a 	mov	r5,r17
 2004fbc:	100d883a 	mov	r6,r2
 2004fc0:	20092f40 	call	20092f4 <__muldf3>
 2004fc4:	0203a234 	movhi	r8,3720
 2004fc8:	42111544 	addi	r8,r8,17493
 2004fcc:	024ff2b4 	movhi	r9,16330
 2004fd0:	4a705544 	addi	r9,r9,-16043
 2004fd4:	480f883a 	mov	r7,r9
 2004fd8:	400d883a 	mov	r6,r8
 2004fdc:	180b883a 	mov	r5,r3
 2004fe0:	1009883a 	mov	r4,r2
 2004fe4:	20092800 	call	2009280 <__adddf3>
 2004fe8:	180f883a 	mov	r7,r3
 2004fec:	8009883a 	mov	r4,r16
 2004ff0:	880b883a 	mov	r5,r17
 2004ff4:	100d883a 	mov	r6,r2
 2004ff8:	20092f40 	call	20092f4 <__muldf3>
 2004ffc:	0200faf4 	movhi	r8,1003
 2005000:	421bdf44 	addi	r8,r8,28541
 2005004:	024ff574 	movhi	r9,16341
 2005008:	4a758484 	addi	r9,r9,-10734
 200500c:	480f883a 	mov	r7,r9
 2005010:	400d883a 	mov	r6,r8
 2005014:	180b883a 	mov	r5,r3
 2005018:	1009883a 	mov	r4,r2
 200501c:	20092000 	call	2009200 <__subdf3>
 2005020:	180f883a 	mov	r7,r3
 2005024:	8009883a 	mov	r4,r16
 2005028:	880b883a 	mov	r5,r17
 200502c:	100d883a 	mov	r6,r2
 2005030:	20092f40 	call	20092f4 <__muldf3>
 2005034:	02155574 	movhi	r8,21845
 2005038:	42155544 	addi	r8,r8,21845
 200503c:	024ff174 	movhi	r9,16325
 2005040:	4a555544 	addi	r9,r9,21845
 2005044:	480f883a 	mov	r7,r9
 2005048:	400d883a 	mov	r6,r8
 200504c:	180b883a 	mov	r5,r3
 2005050:	1009883a 	mov	r4,r2
 2005054:	20092800 	call	2009280 <__adddf3>
 2005058:	180f883a 	mov	r7,r3
 200505c:	8009883a 	mov	r4,r16
 2005060:	880b883a 	mov	r5,r17
 2005064:	100d883a 	mov	r6,r2
 2005068:	20092f40 	call	20092f4 <__muldf3>
 200506c:	022c4bf4 	movhi	r8,45359
 2005070:	4224a084 	addi	r8,r8,-28030
 2005074:	024fed34 	movhi	r9,16308
 2005078:	4a6e3144 	addi	r9,r9,-18235
 200507c:	480f883a 	mov	r7,r9
 2005080:	400d883a 	mov	r6,r8
 2005084:	8009883a 	mov	r4,r16
 2005088:	880b883a 	mov	r5,r17
 200508c:	1029883a 	mov	r20,r2
 2005090:	182b883a 	mov	r21,r3
 2005094:	20092f40 	call	20092f4 <__muldf3>
 2005098:	0206e374 	movhi	r8,7053
 200509c:	42005644 	addi	r8,r8,345
 20050a0:	024ff9b4 	movhi	r9,16358
 20050a4:	4a419b04 	addi	r9,r9,1644
 20050a8:	480f883a 	mov	r7,r9
 20050ac:	400d883a 	mov	r6,r8
 20050b0:	180b883a 	mov	r5,r3
 20050b4:	1009883a 	mov	r4,r2
 20050b8:	20092000 	call	2009200 <__subdf3>
 20050bc:	180f883a 	mov	r7,r3
 20050c0:	8009883a 	mov	r4,r16
 20050c4:	880b883a 	mov	r5,r17
 20050c8:	100d883a 	mov	r6,r2
 20050cc:	20092f40 	call	20092f4 <__muldf3>
 20050d0:	022716b4 	movhi	r8,40026
 20050d4:	4222b204 	addi	r8,r8,-30008
 20050d8:	02500034 	movhi	r9,16384
 20050dc:	4a4ab944 	addi	r9,r9,10981
 20050e0:	480f883a 	mov	r7,r9
 20050e4:	400d883a 	mov	r6,r8
 20050e8:	180b883a 	mov	r5,r3
 20050ec:	1009883a 	mov	r4,r2
 20050f0:	20092800 	call	2009280 <__adddf3>
 20050f4:	180f883a 	mov	r7,r3
 20050f8:	8009883a 	mov	r4,r16
 20050fc:	880b883a 	mov	r5,r17
 2005100:	100d883a 	mov	r6,r2
 2005104:	20092f40 	call	20092f4 <__muldf3>
 2005108:	020722b4 	movhi	r8,7306
 200510c:	420b52c4 	addi	r8,r8,11595
 2005110:	025000f4 	movhi	r9,16387
 2005114:	4a4e89c4 	addi	r9,r9,14887
 2005118:	480f883a 	mov	r7,r9
 200511c:	400d883a 	mov	r6,r8
 2005120:	180b883a 	mov	r5,r3
 2005124:	1009883a 	mov	r4,r2
 2005128:	20092000 	call	2009200 <__subdf3>
 200512c:	180f883a 	mov	r7,r3
 2005130:	8009883a 	mov	r4,r16
 2005134:	880b883a 	mov	r5,r17
 2005138:	100d883a 	mov	r6,r2
 200513c:	20092f40 	call	20092f4 <__muldf3>
 2005140:	0011883a 	mov	r8,zero
 2005144:	024ffc34 	movhi	r9,16368
 2005148:	400d883a 	mov	r6,r8
 200514c:	480f883a 	mov	r7,r9
 2005150:	180b883a 	mov	r5,r3
 2005154:	1009883a 	mov	r4,r2
 2005158:	20092800 	call	2009280 <__adddf3>
 200515c:	180f883a 	mov	r7,r3
 2005160:	a80b883a 	mov	r5,r21
 2005164:	a009883a 	mov	r4,r20
 2005168:	100d883a 	mov	r6,r2
 200516c:	20096b80 	call	20096b8 <__divdf3>
 2005170:	180f883a 	mov	r7,r3
 2005174:	b009883a 	mov	r4,r22
 2005178:	b80b883a 	mov	r5,r23
 200517c:	100d883a 	mov	r6,r2
 2005180:	20092f40 	call	20092f4 <__muldf3>
 2005184:	1011883a 	mov	r8,r2
 2005188:	b80b883a 	mov	r5,r23
 200518c:	180f883a 	mov	r7,r3
 2005190:	b009883a 	mov	r4,r22
 2005194:	003f4906 	br	2004ebc <__ieee754_asin+0xbc>
 2005198:	280f883a 	mov	r7,r5
 200519c:	b009883a 	mov	r4,r22
 20051a0:	b00d883a 	mov	r6,r22
 20051a4:	20092000 	call	2009200 <__subdf3>
 20051a8:	1009883a 	mov	r4,r2
 20051ac:	180b883a 	mov	r5,r3
 20051b0:	100d883a 	mov	r6,r2
 20051b4:	180f883a 	mov	r7,r3
 20051b8:	20096b80 	call	20096b8 <__divdf3>
 20051bc:	102d883a 	mov	r22,r2
 20051c0:	182f883a 	mov	r23,r3
 20051c4:	003f4106 	br	2004ecc <__ieee754_asin+0xcc>
 20051c8:	00a20034 	movhi	r2,34816
 20051cc:	109d6704 	addi	r2,r2,30108
 20051d0:	00df8e34 	movhi	r3,32312
 20051d4:	18f90f04 	addi	r3,r3,-7108
 20051d8:	180f883a 	mov	r7,r3
 20051dc:	100d883a 	mov	r6,r2
 20051e0:	20092800 	call	2009280 <__adddf3>
 20051e4:	0011883a 	mov	r8,zero
 20051e8:	024ffc34 	movhi	r9,16368
 20051ec:	180b883a 	mov	r5,r3
 20051f0:	480f883a 	mov	r7,r9
 20051f4:	1009883a 	mov	r4,r2
 20051f8:	400d883a 	mov	r6,r8
 20051fc:	20099980 	call	2009998 <__gtdf2>
 2005200:	00bf3216 	blt	zero,r2,2004ecc <__ieee754_asin+0xcc>
 2005204:	b80b883a 	mov	r5,r23
 2005208:	b009883a 	mov	r4,r22
 200520c:	20082540 	call	2008254 <fabs>
 2005210:	044ffc34 	movhi	r17,16368
 2005214:	0021883a 	mov	r16,zero
 2005218:	180f883a 	mov	r7,r3
 200521c:	8009883a 	mov	r4,r16
 2005220:	880b883a 	mov	r5,r17
 2005224:	100d883a 	mov	r6,r2
 2005228:	20092000 	call	2009200 <__subdf3>
 200522c:	0011883a 	mov	r8,zero
 2005230:	024ff834 	movhi	r9,16352
 2005234:	480f883a 	mov	r7,r9
 2005238:	400d883a 	mov	r6,r8
 200523c:	180b883a 	mov	r5,r3
 2005240:	1009883a 	mov	r4,r2
 2005244:	20092f40 	call	20092f4 <__muldf3>
 2005248:	d8c00515 	stw	r3,20(sp)
 200524c:	d8800015 	stw	r2,0(sp)
 2005250:	d9000017 	ldw	r4,0(sp)
 2005254:	d9400517 	ldw	r5,20(sp)
 2005258:	d8800415 	stw	r2,16(sp)
 200525c:	d8c00115 	stw	r3,4(sp)
 2005260:	00837fb4 	movhi	r2,3582
 2005264:	10bdc244 	addi	r2,r2,-2295
 2005268:	00cfc0b4 	movhi	r3,16130
 200526c:	18cf7844 	addi	r3,r3,15841
 2005270:	180f883a 	mov	r7,r3
 2005274:	100d883a 	mov	r6,r2
 2005278:	20092f40 	call	20092f4 <__muldf3>
 200527c:	021d40b4 	movhi	r8,29954
 2005280:	422ca204 	addi	r8,r8,-19832
 2005284:	024fd2b4 	movhi	r9,16202
 2005288:	4a7bf804 	addi	r9,r9,-4128
 200528c:	480f883a 	mov	r7,r9
 2005290:	400d883a 	mov	r6,r8
 2005294:	180b883a 	mov	r5,r3
 2005298:	1009883a 	mov	r4,r2
 200529c:	20092800 	call	2009280 <__adddf3>
 20052a0:	d9000017 	ldw	r4,0(sp)
 20052a4:	d9400517 	ldw	r5,20(sp)
 20052a8:	180f883a 	mov	r7,r3
 20052ac:	100d883a 	mov	r6,r2
 20052b0:	20092f40 	call	20092f4 <__muldf3>
 20052b4:	022d5a74 	movhi	r8,46441
 20052b8:	4223cec4 	addi	r8,r8,-28869
 20052bc:	024fe974 	movhi	r9,16293
 20052c0:	4a608a04 	addi	r9,r9,-32216
 20052c4:	480f883a 	mov	r7,r9
 20052c8:	400d883a 	mov	r6,r8
 20052cc:	180b883a 	mov	r5,r3
 20052d0:	1009883a 	mov	r4,r2
 20052d4:	20092000 	call	2009200 <__subdf3>
 20052d8:	d9000017 	ldw	r4,0(sp)
 20052dc:	d9400517 	ldw	r5,20(sp)
 20052e0:	180f883a 	mov	r7,r3
 20052e4:	100d883a 	mov	r6,r2
 20052e8:	20092f40 	call	20092f4 <__muldf3>
 20052ec:	0203a234 	movhi	r8,3720
 20052f0:	42111544 	addi	r8,r8,17493
 20052f4:	024ff2b4 	movhi	r9,16330
 20052f8:	4a705544 	addi	r9,r9,-16043
 20052fc:	480f883a 	mov	r7,r9
 2005300:	400d883a 	mov	r6,r8
 2005304:	180b883a 	mov	r5,r3
 2005308:	1009883a 	mov	r4,r2
 200530c:	20092800 	call	2009280 <__adddf3>
 2005310:	d9000017 	ldw	r4,0(sp)
 2005314:	d9400517 	ldw	r5,20(sp)
 2005318:	180f883a 	mov	r7,r3
 200531c:	100d883a 	mov	r6,r2
 2005320:	20092f40 	call	20092f4 <__muldf3>
 2005324:	0200faf4 	movhi	r8,1003
 2005328:	421bdf44 	addi	r8,r8,28541
 200532c:	024ff574 	movhi	r9,16341
 2005330:	4a758484 	addi	r9,r9,-10734
 2005334:	480f883a 	mov	r7,r9
 2005338:	400d883a 	mov	r6,r8
 200533c:	180b883a 	mov	r5,r3
 2005340:	1009883a 	mov	r4,r2
 2005344:	20092000 	call	2009200 <__subdf3>
 2005348:	d9000017 	ldw	r4,0(sp)
 200534c:	d9400517 	ldw	r5,20(sp)
 2005350:	180f883a 	mov	r7,r3
 2005354:	100d883a 	mov	r6,r2
 2005358:	20092f40 	call	20092f4 <__muldf3>
 200535c:	02155574 	movhi	r8,21845
 2005360:	42155544 	addi	r8,r8,21845
 2005364:	024ff174 	movhi	r9,16325
 2005368:	4a555544 	addi	r9,r9,21845
 200536c:	480f883a 	mov	r7,r9
 2005370:	400d883a 	mov	r6,r8
 2005374:	180b883a 	mov	r5,r3
 2005378:	1009883a 	mov	r4,r2
 200537c:	20092800 	call	2009280 <__adddf3>
 2005380:	d9000017 	ldw	r4,0(sp)
 2005384:	d9400517 	ldw	r5,20(sp)
 2005388:	180f883a 	mov	r7,r3
 200538c:	100d883a 	mov	r6,r2
 2005390:	20092f40 	call	20092f4 <__muldf3>
 2005394:	d9000017 	ldw	r4,0(sp)
 2005398:	d9400517 	ldw	r5,20(sp)
 200539c:	022c4bf4 	movhi	r8,45359
 20053a0:	4224a084 	addi	r8,r8,-28030
 20053a4:	024fed34 	movhi	r9,16308
 20053a8:	4a6e3144 	addi	r9,r9,-18235
 20053ac:	480f883a 	mov	r7,r9
 20053b0:	400d883a 	mov	r6,r8
 20053b4:	1025883a 	mov	r18,r2
 20053b8:	1827883a 	mov	r19,r3
 20053bc:	20092f40 	call	20092f4 <__muldf3>
 20053c0:	0206e374 	movhi	r8,7053
 20053c4:	42005644 	addi	r8,r8,345
 20053c8:	024ff9b4 	movhi	r9,16358
 20053cc:	4a419b04 	addi	r9,r9,1644
 20053d0:	480f883a 	mov	r7,r9
 20053d4:	400d883a 	mov	r6,r8
 20053d8:	180b883a 	mov	r5,r3
 20053dc:	1009883a 	mov	r4,r2
 20053e0:	20092000 	call	2009200 <__subdf3>
 20053e4:	d9000017 	ldw	r4,0(sp)
 20053e8:	d9400517 	ldw	r5,20(sp)
 20053ec:	180f883a 	mov	r7,r3
 20053f0:	100d883a 	mov	r6,r2
 20053f4:	20092f40 	call	20092f4 <__muldf3>
 20053f8:	022716b4 	movhi	r8,40026
 20053fc:	4222b204 	addi	r8,r8,-30008
 2005400:	02500034 	movhi	r9,16384
 2005404:	4a4ab944 	addi	r9,r9,10981
 2005408:	480f883a 	mov	r7,r9
 200540c:	400d883a 	mov	r6,r8
 2005410:	180b883a 	mov	r5,r3
 2005414:	1009883a 	mov	r4,r2
 2005418:	20092800 	call	2009280 <__adddf3>
 200541c:	d9000017 	ldw	r4,0(sp)
 2005420:	d9400517 	ldw	r5,20(sp)
 2005424:	180f883a 	mov	r7,r3
 2005428:	100d883a 	mov	r6,r2
 200542c:	20092f40 	call	20092f4 <__muldf3>
 2005430:	020722b4 	movhi	r8,7306
 2005434:	420b52c4 	addi	r8,r8,11595
 2005438:	025000f4 	movhi	r9,16387
 200543c:	4a4e89c4 	addi	r9,r9,14887
 2005440:	480f883a 	mov	r7,r9
 2005444:	400d883a 	mov	r6,r8
 2005448:	180b883a 	mov	r5,r3
 200544c:	1009883a 	mov	r4,r2
 2005450:	20092000 	call	2009200 <__subdf3>
 2005454:	d9000017 	ldw	r4,0(sp)
 2005458:	d9400517 	ldw	r5,20(sp)
 200545c:	180f883a 	mov	r7,r3
 2005460:	100d883a 	mov	r6,r2
 2005464:	20092f40 	call	20092f4 <__muldf3>
 2005468:	180b883a 	mov	r5,r3
 200546c:	000d883a 	mov	r6,zero
 2005470:	880f883a 	mov	r7,r17
 2005474:	1009883a 	mov	r4,r2
 2005478:	20092800 	call	2009280 <__adddf3>
 200547c:	d9000017 	ldw	r4,0(sp)
 2005480:	d9400517 	ldw	r5,20(sp)
 2005484:	102d883a 	mov	r22,r2
 2005488:	182f883a 	mov	r23,r3
 200548c:	20062340 	call	2006234 <__ieee754_sqrt>
 2005490:	d8800215 	stw	r2,8(sp)
 2005494:	008ffbf4 	movhi	r2,16367
 2005498:	108ccc84 	addi	r2,r2,13106
 200549c:	9009883a 	mov	r4,r18
 20054a0:	b00d883a 	mov	r6,r22
 20054a4:	d8c00315 	stw	r3,12(sp)
 20054a8:	980b883a 	mov	r5,r19
 20054ac:	b80f883a 	mov	r7,r23
 20054b0:	1500260e 	bge	r2,r20,200554c <__ieee754_asin+0x74c>
 20054b4:	20096b80 	call	20096b8 <__divdf3>
 20054b8:	d9000217 	ldw	r4,8(sp)
 20054bc:	d9400317 	ldw	r5,12(sp)
 20054c0:	180f883a 	mov	r7,r3
 20054c4:	100d883a 	mov	r6,r2
 20054c8:	20092f40 	call	20092f4 <__muldf3>
 20054cc:	d9400317 	ldw	r5,12(sp)
 20054d0:	d9000217 	ldw	r4,8(sp)
 20054d4:	180f883a 	mov	r7,r3
 20054d8:	100d883a 	mov	r6,r2
 20054dc:	20092800 	call	2009280 <__adddf3>
 20054e0:	180f883a 	mov	r7,r3
 20054e4:	1009883a 	mov	r4,r2
 20054e8:	180b883a 	mov	r5,r3
 20054ec:	100d883a 	mov	r6,r2
 20054f0:	20092800 	call	2009280 <__adddf3>
 20054f4:	020cc534 	movhi	r8,13076
 20054f8:	421701c4 	addi	r8,r8,23559
 20054fc:	024f24b4 	movhi	r9,15506
 2005500:	4a698984 	addi	r9,r9,-23002
 2005504:	480f883a 	mov	r7,r9
 2005508:	400d883a 	mov	r6,r8
 200550c:	180b883a 	mov	r5,r3
 2005510:	1009883a 	mov	r4,r2
 2005514:	20092000 	call	2009200 <__subdf3>
 2005518:	02151134 	movhi	r8,21572
 200551c:	420b4604 	addi	r8,r8,11544
 2005520:	024ffe74 	movhi	r9,16377
 2005524:	4a487ec4 	addi	r9,r9,8699
 2005528:	480b883a 	mov	r5,r9
 200552c:	180f883a 	mov	r7,r3
 2005530:	4009883a 	mov	r4,r8
 2005534:	100d883a 	mov	r6,r2
 2005538:	20092000 	call	2009200 <__subdf3>
 200553c:	07005c0e 	bge	zero,fp,20056b0 <__ieee754_asin+0x8b0>
 2005540:	102d883a 	mov	r22,r2
 2005544:	182f883a 	mov	r23,r3
 2005548:	003e6006 	br	2004ecc <__ieee754_asin+0xcc>
 200554c:	980b883a 	mov	r5,r19
 2005550:	b80f883a 	mov	r7,r23
 2005554:	20096b80 	call	20096b8 <__divdf3>
 2005558:	d9000217 	ldw	r4,8(sp)
 200555c:	d9400317 	ldw	r5,12(sp)
 2005560:	1021883a 	mov	r16,r2
 2005564:	200d883a 	mov	r6,r4
 2005568:	280f883a 	mov	r7,r5
 200556c:	1823883a 	mov	r17,r3
 2005570:	20092800 	call	2009280 <__adddf3>
 2005574:	d9000317 	ldw	r4,12(sp)
 2005578:	0029883a 	mov	r20,zero
 200557c:	880b883a 	mov	r5,r17
 2005580:	2027883a 	mov	r19,r4
 2005584:	180f883a 	mov	r7,r3
 2005588:	8009883a 	mov	r4,r16
 200558c:	100d883a 	mov	r6,r2
 2005590:	20092f40 	call	20092f4 <__muldf3>
 2005594:	980b883a 	mov	r5,r19
 2005598:	980f883a 	mov	r7,r19
 200559c:	a009883a 	mov	r4,r20
 20055a0:	a00d883a 	mov	r6,r20
 20055a4:	102d883a 	mov	r22,r2
 20055a8:	182f883a 	mov	r23,r3
 20055ac:	20092f40 	call	20092f4 <__muldf3>
 20055b0:	d9000017 	ldw	r4,0(sp)
 20055b4:	d9400517 	ldw	r5,20(sp)
 20055b8:	180f883a 	mov	r7,r3
 20055bc:	100d883a 	mov	r6,r2
 20055c0:	20092000 	call	2009200 <__subdf3>
 20055c4:	d9400317 	ldw	r5,12(sp)
 20055c8:	d9000217 	ldw	r4,8(sp)
 20055cc:	980f883a 	mov	r7,r19
 20055d0:	a00d883a 	mov	r6,r20
 20055d4:	1021883a 	mov	r16,r2
 20055d8:	1823883a 	mov	r17,r3
 20055dc:	20092800 	call	2009280 <__adddf3>
 20055e0:	180f883a 	mov	r7,r3
 20055e4:	880b883a 	mov	r5,r17
 20055e8:	8009883a 	mov	r4,r16
 20055ec:	100d883a 	mov	r6,r2
 20055f0:	20096b80 	call	20096b8 <__divdf3>
 20055f4:	04700034 	movhi	r17,49152
 20055f8:	0021883a 	mov	r16,zero
 20055fc:	800d883a 	mov	r6,r16
 2005600:	880f883a 	mov	r7,r17
 2005604:	180b883a 	mov	r5,r3
 2005608:	1009883a 	mov	r4,r2
 200560c:	20092f40 	call	20092f4 <__muldf3>
 2005610:	020cc534 	movhi	r8,13076
 2005614:	421701c4 	addi	r8,r8,23559
 2005618:	024f24b4 	movhi	r9,15506
 200561c:	4a698984 	addi	r9,r9,-23002
 2005620:	480f883a 	mov	r7,r9
 2005624:	400d883a 	mov	r6,r8
 2005628:	180b883a 	mov	r5,r3
 200562c:	1009883a 	mov	r4,r2
 2005630:	20092800 	call	2009280 <__adddf3>
 2005634:	180f883a 	mov	r7,r3
 2005638:	b80b883a 	mov	r5,r23
 200563c:	b009883a 	mov	r4,r22
 2005640:	100d883a 	mov	r6,r2
 2005644:	20092000 	call	2009200 <__subdf3>
 2005648:	880f883a 	mov	r7,r17
 200564c:	980b883a 	mov	r5,r19
 2005650:	000d883a 	mov	r6,zero
 2005654:	a009883a 	mov	r4,r20
 2005658:	1025883a 	mov	r18,r2
 200565c:	1827883a 	mov	r19,r3
 2005660:	04151134 	movhi	r16,21572
 2005664:	840b4604 	addi	r16,r16,11544
 2005668:	20092f40 	call	20092f4 <__muldf3>
 200566c:	044ffa74 	movhi	r17,16361
 2005670:	8c487ec4 	addi	r17,r17,8699
 2005674:	180b883a 	mov	r5,r3
 2005678:	1009883a 	mov	r4,r2
 200567c:	800d883a 	mov	r6,r16
 2005680:	880f883a 	mov	r7,r17
 2005684:	20092800 	call	2009280 <__adddf3>
 2005688:	180f883a 	mov	r7,r3
 200568c:	980b883a 	mov	r5,r19
 2005690:	9009883a 	mov	r4,r18
 2005694:	100d883a 	mov	r6,r2
 2005698:	20092000 	call	2009200 <__subdf3>
 200569c:	180f883a 	mov	r7,r3
 20056a0:	8009883a 	mov	r4,r16
 20056a4:	880b883a 	mov	r5,r17
 20056a8:	100d883a 	mov	r6,r2
 20056ac:	003fa206 	br	2005538 <__ieee754_asin+0x738>
 20056b0:	102d883a 	mov	r22,r2
 20056b4:	1de0003c 	xorhi	r23,r3,32768
 20056b8:	003e0406 	br	2004ecc <__ieee754_asin+0xcc>

020056bc <__ieee754_atan2>:
 20056bc:	3015883a 	mov	r10,r6
 20056c0:	3019883a 	mov	r12,r6
 20056c4:	018dc83a 	sub	r6,zero,r6
 20056c8:	518cb03a 	or	r6,r10,r6
 20056cc:	300cd7fa 	srli	r6,r6,31
 20056d0:	03a00034 	movhi	r14,32768
 20056d4:	73bfffc4 	addi	r14,r14,-1
 20056d8:	3b9e703a 	and	r15,r7,r14
 20056dc:	defffc04 	addi	sp,sp,-16
 20056e0:	33ccb03a 	or	r6,r6,r15
 20056e4:	035ffc34 	movhi	r13,32752
 20056e8:	dc000015 	stw	r16,0(sp)
 20056ec:	dfc00315 	stw	ra,12(sp)
 20056f0:	dc800215 	stw	r18,8(sp)
 20056f4:	dc400115 	stw	r17,4(sp)
 20056f8:	3817883a 	mov	r11,r7
 20056fc:	2011883a 	mov	r8,r4
 2005700:	2813883a 	mov	r9,r5
 2005704:	3821883a 	mov	r16,r7
 2005708:	69800736 	bltu	r13,r6,2005728 <__ieee754_atan2+0x6c>
 200570c:	0105c83a 	sub	r2,zero,r4
 2005710:	2084b03a 	or	r2,r4,r2
 2005714:	1004d7fa 	srli	r2,r2,31
 2005718:	2b8c703a 	and	r6,r5,r14
 200571c:	2823883a 	mov	r17,r5
 2005720:	1184b03a 	or	r2,r2,r6
 2005724:	68800d2e 	bgeu	r13,r2,200575c <__ieee754_atan2+0xa0>
 2005728:	4009883a 	mov	r4,r8
 200572c:	500d883a 	mov	r6,r10
 2005730:	20092800 	call	2009280 <__adddf3>
 2005734:	1011883a 	mov	r8,r2
 2005738:	1813883a 	mov	r9,r3
 200573c:	4005883a 	mov	r2,r8
 2005740:	4807883a 	mov	r3,r9
 2005744:	dfc00317 	ldw	ra,12(sp)
 2005748:	dc800217 	ldw	r18,8(sp)
 200574c:	dc400117 	ldw	r17,4(sp)
 2005750:	dc000017 	ldw	r16,0(sp)
 2005754:	dec00404 	addi	sp,sp,16
 2005758:	f800283a 	ret
 200575c:	00b00434 	movhi	r2,49168
 2005760:	3885883a 	add	r2,r7,r2
 2005764:	5084b03a 	or	r2,r10,r2
 2005768:	10001026 	beq	r2,zero,20057ac <__ieee754_atan2+0xf0>
 200576c:	3805d7ba 	srai	r2,r7,30
 2005770:	2806d7fa 	srli	r3,r5,31
 2005774:	2188b03a 	or	r4,r4,r6
 2005778:	1080008c 	andi	r2,r2,2
 200577c:	18a4b03a 	or	r18,r3,r2
 2005780:	00800084 	movi	r2,2
 2005784:	2000101e 	bne	r4,zero,20057c8 <__ieee754_atan2+0x10c>
 2005788:	90803826 	beq	r18,r2,200586c <__ieee754_atan2+0x1b0>
 200578c:	14bfeb0e 	bge	r2,r18,200573c <__ieee754_atan2+0x80>
 2005790:	008000c4 	movi	r2,3
 2005794:	90800c1e 	bne	r18,r2,20057c8 <__ieee754_atan2+0x10c>
 2005798:	02151134 	movhi	r8,21572
 200579c:	420b4604 	addi	r8,r8,11544
 20057a0:	02700274 	movhi	r9,49161
 20057a4:	4a487ec4 	addi	r9,r9,8699
 20057a8:	003fe406 	br	200573c <__ieee754_atan2+0x80>
 20057ac:	4009883a 	mov	r4,r8
 20057b0:	dfc00317 	ldw	ra,12(sp)
 20057b4:	dc800217 	ldw	r18,8(sp)
 20057b8:	dc400117 	ldw	r17,4(sp)
 20057bc:	dc000017 	ldw	r16,0(sp)
 20057c0:	dec00404 	addi	sp,sp,16
 20057c4:	2007bbc1 	jmpi	2007bbc <atan>
 20057c8:	63c4b03a 	or	r2,r12,r15
 20057cc:	10001426 	beq	r2,zero,2005820 <__ieee754_atan2+0x164>
 20057d0:	009ffc34 	movhi	r2,32752
 20057d4:	78801d26 	beq	r15,r2,200584c <__ieee754_atan2+0x190>
 20057d8:	009ffc34 	movhi	r2,32752
 20057dc:	30801026 	beq	r6,r2,2005820 <__ieee754_atan2+0x164>
 20057e0:	33c5c83a 	sub	r2,r6,r15
 20057e4:	1009d53a 	srai	r4,r2,20
 20057e8:	00c00f04 	movi	r3,60
 20057ec:	1900240e 	bge	r3,r4,2005880 <__ieee754_atan2+0x1c4>
 20057f0:	02951134 	movhi	r10,21572
 20057f4:	528b4604 	addi	r10,r10,11544
 20057f8:	02cffe74 	movhi	r11,16377
 20057fc:	5ac87ec4 	addi	r11,r11,8699
 2005800:	00800044 	movi	r2,1
 2005804:	90802d26 	beq	r18,r2,20058bc <__ieee754_atan2+0x200>
 2005808:	00800084 	movi	r2,2
 200580c:	90804426 	beq	r18,r2,2005920 <__ieee754_atan2+0x264>
 2005810:	90002e1e 	bne	r18,zero,20058cc <__ieee754_atan2+0x210>
 2005814:	5011883a 	mov	r8,r10
 2005818:	5813883a 	mov	r9,r11
 200581c:	003fc706 	br	200573c <__ieee754_atan2+0x80>
 2005820:	88000516 	blt	r17,zero,2005838 <__ieee754_atan2+0x17c>
 2005824:	02151134 	movhi	r8,21572
 2005828:	420b4604 	addi	r8,r8,11544
 200582c:	024ffe74 	movhi	r9,16377
 2005830:	4a487ec4 	addi	r9,r9,8699
 2005834:	003fc106 	br	200573c <__ieee754_atan2+0x80>
 2005838:	02151134 	movhi	r8,21572
 200583c:	420b4604 	addi	r8,r8,11544
 2005840:	026ffe74 	movhi	r9,49145
 2005844:	4a487ec4 	addi	r9,r9,8699
 2005848:	003fbc06 	br	200573c <__ieee754_atan2+0x80>
 200584c:	33c04b26 	beq	r6,r15,200597c <__ieee754_atan2+0x2c0>
 2005850:	00800044 	movi	r2,1
 2005854:	90805726 	beq	r18,r2,20059b4 <__ieee754_atan2+0x2f8>
 2005858:	14805116 	blt	r2,r18,20059a0 <__ieee754_atan2+0x2e4>
 200585c:	903fde1e 	bne	r18,zero,20057d8 <__ieee754_atan2+0x11c>
 2005860:	0011883a 	mov	r8,zero
 2005864:	0013883a 	mov	r9,zero
 2005868:	003fb406 	br	200573c <__ieee754_atan2+0x80>
 200586c:	02151134 	movhi	r8,21572
 2005870:	420b4604 	addi	r8,r8,11544
 2005874:	02500274 	movhi	r9,16393
 2005878:	4a487ec4 	addi	r9,r9,8699
 200587c:	003faf06 	br	200573c <__ieee754_atan2+0x80>
 2005880:	80003916 	blt	r16,zero,2005968 <__ieee754_atan2+0x2ac>
 2005884:	580f883a 	mov	r7,r11
 2005888:	480b883a 	mov	r5,r9
 200588c:	500d883a 	mov	r6,r10
 2005890:	4009883a 	mov	r4,r8
 2005894:	20096b80 	call	20096b8 <__divdf3>
 2005898:	180b883a 	mov	r5,r3
 200589c:	1009883a 	mov	r4,r2
 20058a0:	20082540 	call	2008254 <fabs>
 20058a4:	180b883a 	mov	r5,r3
 20058a8:	1009883a 	mov	r4,r2
 20058ac:	2007bbc0 	call	2007bbc <atan>
 20058b0:	1015883a 	mov	r10,r2
 20058b4:	1817883a 	mov	r11,r3
 20058b8:	003fd106 	br	2005800 <__ieee754_atan2+0x144>
 20058bc:	59a0003c 	xorhi	r6,r11,32768
 20058c0:	5011883a 	mov	r8,r10
 20058c4:	3013883a 	mov	r9,r6
 20058c8:	003f9c06 	br	200573c <__ieee754_atan2+0x80>
 20058cc:	008cc534 	movhi	r2,13076
 20058d0:	109701c4 	addi	r2,r2,23559
 20058d4:	00cf28b4 	movhi	r3,15522
 20058d8:	18e98984 	addi	r3,r3,-23002
 20058dc:	580b883a 	mov	r5,r11
 20058e0:	180f883a 	mov	r7,r3
 20058e4:	5009883a 	mov	r4,r10
 20058e8:	100d883a 	mov	r6,r2
 20058ec:	20092000 	call	2009200 <__subdf3>
 20058f0:	02151134 	movhi	r8,21572
 20058f4:	420b4604 	addi	r8,r8,11544
 20058f8:	02500274 	movhi	r9,16393
 20058fc:	4a487ec4 	addi	r9,r9,8699
 2005900:	180b883a 	mov	r5,r3
 2005904:	480f883a 	mov	r7,r9
 2005908:	1009883a 	mov	r4,r2
 200590c:	400d883a 	mov	r6,r8
 2005910:	20092000 	call	2009200 <__subdf3>
 2005914:	1011883a 	mov	r8,r2
 2005918:	1813883a 	mov	r9,r3
 200591c:	003f8706 	br	200573c <__ieee754_atan2+0x80>
 2005920:	008cc534 	movhi	r2,13076
 2005924:	109701c4 	addi	r2,r2,23559
 2005928:	00cf28b4 	movhi	r3,15522
 200592c:	18e98984 	addi	r3,r3,-23002
 2005930:	580b883a 	mov	r5,r11
 2005934:	180f883a 	mov	r7,r3
 2005938:	5009883a 	mov	r4,r10
 200593c:	100d883a 	mov	r6,r2
 2005940:	20092000 	call	2009200 <__subdf3>
 2005944:	02151134 	movhi	r8,21572
 2005948:	420b4604 	addi	r8,r8,11544
 200594c:	02500274 	movhi	r9,16393
 2005950:	4a487ec4 	addi	r9,r9,8699
 2005954:	480b883a 	mov	r5,r9
 2005958:	180f883a 	mov	r7,r3
 200595c:	4009883a 	mov	r4,r8
 2005960:	100d883a 	mov	r6,r2
 2005964:	003fea06 	br	2005910 <__ieee754_atan2+0x254>
 2005968:	00bff104 	movi	r2,-60
 200596c:	20bfc50e 	bge	r4,r2,2005884 <__ieee754_atan2+0x1c8>
 2005970:	0015883a 	mov	r10,zero
 2005974:	0017883a 	mov	r11,zero
 2005978:	003fa106 	br	2005800 <__ieee754_atan2+0x144>
 200597c:	00800044 	movi	r2,1
 2005980:	90801826 	beq	r18,r2,20059e4 <__ieee754_atan2+0x328>
 2005984:	14800e16 	blt	r2,r18,20059c0 <__ieee754_atan2+0x304>
 2005988:	903f931e 	bne	r18,zero,20057d8 <__ieee754_atan2+0x11c>
 200598c:	02151134 	movhi	r8,21572
 2005990:	420b4604 	addi	r8,r8,11544
 2005994:	024ffa74 	movhi	r9,16361
 2005998:	4a487ec4 	addi	r9,r9,8699
 200599c:	003f6706 	br	200573c <__ieee754_atan2+0x80>
 20059a0:	00800084 	movi	r2,2
 20059a4:	90bfb126 	beq	r18,r2,200586c <__ieee754_atan2+0x1b0>
 20059a8:	008000c4 	movi	r2,3
 20059ac:	90bf8a1e 	bne	r18,r2,20057d8 <__ieee754_atan2+0x11c>
 20059b0:	003f7906 	br	2005798 <__ieee754_atan2+0xdc>
 20059b4:	0011883a 	mov	r8,zero
 20059b8:	02600034 	movhi	r9,32768
 20059bc:	003f5f06 	br	200573c <__ieee754_atan2+0x80>
 20059c0:	00800084 	movi	r2,2
 20059c4:	90800c26 	beq	r18,r2,20059f8 <__ieee754_atan2+0x33c>
 20059c8:	008000c4 	movi	r2,3
 20059cc:	90bf821e 	bne	r18,r2,20057d8 <__ieee754_atan2+0x11c>
 20059d0:	021fccf4 	movhi	r8,32563
 20059d4:	42087484 	addi	r8,r8,8658
 20059d8:	027000f4 	movhi	r9,49155
 20059dc:	4a765f04 	addi	r9,r9,-9860
 20059e0:	003f5606 	br	200573c <__ieee754_atan2+0x80>
 20059e4:	02151134 	movhi	r8,21572
 20059e8:	420b4604 	addi	r8,r8,11544
 20059ec:	026ffa74 	movhi	r9,49129
 20059f0:	4a487ec4 	addi	r9,r9,8699
 20059f4:	003f5106 	br	200573c <__ieee754_atan2+0x80>
 20059f8:	021fccf4 	movhi	r8,32563
 20059fc:	42087484 	addi	r8,r8,8658
 2005a00:	025000f4 	movhi	r9,16387
 2005a04:	4a765f04 	addi	r9,r9,-9860
 2005a08:	003f4c06 	br	200573c <__ieee754_atan2+0x80>

02005a0c <__ieee754_rem_pio2>:
 2005a0c:	deffe304 	addi	sp,sp,-116
 2005a10:	00a00034 	movhi	r2,32768
 2005a14:	10bfffc4 	addi	r2,r2,-1
 2005a18:	dd801915 	stw	r22,100(sp)
 2005a1c:	28ac703a 	and	r22,r5,r2
 2005a20:	008ffa74 	movhi	r2,16361
 2005a24:	10887ec4 	addi	r2,r2,8699
 2005a28:	df001b15 	stw	fp,108(sp)
 2005a2c:	dfc01c15 	stw	ra,112(sp)
 2005a30:	ddc01a15 	stw	r23,104(sp)
 2005a34:	dd401815 	stw	r21,96(sp)
 2005a38:	dd001715 	stw	r20,92(sp)
 2005a3c:	dcc01615 	stw	r19,88(sp)
 2005a40:	dc801515 	stw	r18,84(sp)
 2005a44:	dc401415 	stw	r17,80(sp)
 2005a48:	dc001315 	stw	r16,76(sp)
 2005a4c:	2013883a 	mov	r9,r4
 2005a50:	d9400a15 	stw	r5,40(sp)
 2005a54:	3039883a 	mov	fp,r6
 2005a58:	15801216 	blt	r2,r22,2005aa4 <__ieee754_rem_pio2+0x98>
 2005a5c:	e1400115 	stw	r5,4(fp)
 2005a60:	30000315 	stw	zero,12(r6)
 2005a64:	e1000015 	stw	r4,0(fp)
 2005a68:	d8000b15 	stw	zero,44(sp)
 2005a6c:	30000215 	stw	zero,8(r6)
 2005a70:	d8800b17 	ldw	r2,44(sp)
 2005a74:	dfc01c17 	ldw	ra,112(sp)
 2005a78:	df001b17 	ldw	fp,108(sp)
 2005a7c:	ddc01a17 	ldw	r23,104(sp)
 2005a80:	dd801917 	ldw	r22,100(sp)
 2005a84:	dd401817 	ldw	r21,96(sp)
 2005a88:	dd001717 	ldw	r20,92(sp)
 2005a8c:	dcc01617 	ldw	r19,88(sp)
 2005a90:	dc801517 	ldw	r18,84(sp)
 2005a94:	dc401417 	ldw	r17,80(sp)
 2005a98:	dc001317 	ldw	r16,76(sp)
 2005a9c:	dec01d04 	addi	sp,sp,116
 2005aa0:	f800283a 	ret
 2005aa4:	009000f4 	movhi	r2,16387
 2005aa8:	10b65ec4 	addi	r2,r2,-9861
 2005aac:	15800f0e 	bge	r2,r22,2005aec <__ieee754_rem_pio2+0xe0>
 2005ab0:	00904e74 	movhi	r2,16697
 2005ab4:	10887ec4 	addi	r2,r2,8699
 2005ab8:	1580330e 	bge	r2,r22,2005b88 <__ieee754_rem_pio2+0x17c>
 2005abc:	009ffc34 	movhi	r2,32752
 2005ac0:	10bfffc4 	addi	r2,r2,-1
 2005ac4:	1580fe0e 	bge	r2,r22,2005ec0 <__ieee754_rem_pio2+0x4b4>
 2005ac8:	280f883a 	mov	r7,r5
 2005acc:	480d883a 	mov	r6,r9
 2005ad0:	20092000 	call	2009200 <__subdf3>
 2005ad4:	e0c00115 	stw	r3,4(fp)
 2005ad8:	d8000b15 	stw	zero,44(sp)
 2005adc:	e0800015 	stw	r2,0(fp)
 2005ae0:	e0800215 	stw	r2,8(fp)
 2005ae4:	e0c00315 	stw	r3,12(fp)
 2005ae8:	003fe106 	br	2005a70 <__ieee754_rem_pio2+0x64>
 2005aec:	d9000a17 	ldw	r4,40(sp)
 2005af0:	0100ce0e 	bge	zero,r4,2005e2c <__ieee754_rem_pio2+0x420>
 2005af4:	04151034 	movhi	r16,21568
 2005af8:	044ffe74 	movhi	r17,16377
 2005afc:	8c487ec4 	addi	r17,r17,8699
 2005b00:	4809883a 	mov	r4,r9
 2005b04:	800d883a 	mov	r6,r16
 2005b08:	880f883a 	mov	r7,r17
 2005b0c:	20092000 	call	2009200 <__subdf3>
 2005b10:	1025883a 	mov	r18,r2
 2005b14:	1827883a 	mov	r19,r3
 2005b18:	b4413c26 	beq	r22,r17,200600c <__ieee754_rem_pio2+0x600>
 2005b1c:	040698b4 	movhi	r16,6754
 2005b20:	8418cc44 	addi	r16,r16,25393
 2005b24:	044f7474 	movhi	r17,15825
 2005b28:	8c6d1844 	addi	r17,r17,-19359
 2005b2c:	1009883a 	mov	r4,r2
 2005b30:	180b883a 	mov	r5,r3
 2005b34:	800d883a 	mov	r6,r16
 2005b38:	880f883a 	mov	r7,r17
 2005b3c:	20092000 	call	2009200 <__subdf3>
 2005b40:	100d883a 	mov	r6,r2
 2005b44:	9009883a 	mov	r4,r18
 2005b48:	980b883a 	mov	r5,r19
 2005b4c:	180f883a 	mov	r7,r3
 2005b50:	e0800015 	stw	r2,0(fp)
 2005b54:	e0c00115 	stw	r3,4(fp)
 2005b58:	20092000 	call	2009200 <__subdf3>
 2005b5c:	1009883a 	mov	r4,r2
 2005b60:	800d883a 	mov	r6,r16
 2005b64:	880f883a 	mov	r7,r17
 2005b68:	180b883a 	mov	r5,r3
 2005b6c:	20092000 	call	2009200 <__subdf3>
 2005b70:	1009883a 	mov	r4,r2
 2005b74:	00800044 	movi	r2,1
 2005b78:	d8800b15 	stw	r2,44(sp)
 2005b7c:	e0c00315 	stw	r3,12(fp)
 2005b80:	e1000215 	stw	r4,8(fp)
 2005b84:	003fba06 	br	2005a70 <__ieee754_rem_pio2+0x64>
 2005b88:	20082540 	call	2008254 <fabs>
 2005b8c:	021b72b4 	movhi	r8,28106
 2005b90:	423220c4 	addi	r8,r8,-14205
 2005b94:	024ff934 	movhi	r9,16356
 2005b98:	4a57cc04 	addi	r9,r9,24368
 2005b9c:	480f883a 	mov	r7,r9
 2005ba0:	400d883a 	mov	r6,r8
 2005ba4:	1009883a 	mov	r4,r2
 2005ba8:	180b883a 	mov	r5,r3
 2005bac:	1025883a 	mov	r18,r2
 2005bb0:	1827883a 	mov	r19,r3
 2005bb4:	20092f40 	call	20092f4 <__muldf3>
 2005bb8:	0011883a 	mov	r8,zero
 2005bbc:	024ff834 	movhi	r9,16352
 2005bc0:	480f883a 	mov	r7,r9
 2005bc4:	400d883a 	mov	r6,r8
 2005bc8:	180b883a 	mov	r5,r3
 2005bcc:	1009883a 	mov	r4,r2
 2005bd0:	20092800 	call	2009280 <__adddf3>
 2005bd4:	180b883a 	mov	r5,r3
 2005bd8:	1009883a 	mov	r4,r2
 2005bdc:	2009c280 	call	2009c28 <__fixdfsi>
 2005be0:	1009883a 	mov	r4,r2
 2005be4:	d8800b15 	stw	r2,44(sp)
 2005be8:	2009b300 	call	2009b30 <__floatsidf>
 2005bec:	1823883a 	mov	r17,r3
 2005bf0:	1009883a 	mov	r4,r2
 2005bf4:	d8800c15 	stw	r2,48(sp)
 2005bf8:	00effe74 	movhi	r3,49145
 2005bfc:	18c87ec4 	addi	r3,r3,8699
 2005c00:	00951034 	movhi	r2,21568
 2005c04:	880b883a 	mov	r5,r17
 2005c08:	180f883a 	mov	r7,r3
 2005c0c:	100d883a 	mov	r6,r2
 2005c10:	dc400d15 	stw	r17,52(sp)
 2005c14:	20092f40 	call	20092f4 <__muldf3>
 2005c18:	180f883a 	mov	r7,r3
 2005c1c:	980b883a 	mov	r5,r19
 2005c20:	9009883a 	mov	r4,r18
 2005c24:	100d883a 	mov	r6,r2
 2005c28:	20092800 	call	2009280 <__adddf3>
 2005c2c:	d9000c17 	ldw	r4,48(sp)
 2005c30:	020698b4 	movhi	r8,6754
 2005c34:	4218cc44 	addi	r8,r8,25393
 2005c38:	024f7474 	movhi	r9,15825
 2005c3c:	4a6d1844 	addi	r9,r9,-19359
 2005c40:	880b883a 	mov	r5,r17
 2005c44:	480f883a 	mov	r7,r9
 2005c48:	400d883a 	mov	r6,r8
 2005c4c:	1025883a 	mov	r18,r2
 2005c50:	1827883a 	mov	r19,r3
 2005c54:	20092f40 	call	20092f4 <__muldf3>
 2005c58:	d9000b17 	ldw	r4,44(sp)
 2005c5c:	100f883a 	mov	r7,r2
 2005c60:	1811883a 	mov	r8,r3
 2005c64:	008007c4 	movi	r2,31
 2005c68:	dc800e15 	stw	r18,56(sp)
 2005c6c:	3821883a 	mov	r16,r7
 2005c70:	dcc00f15 	stw	r19,60(sp)
 2005c74:	4023883a 	mov	r17,r8
 2005c78:	11010a0e 	bge	r2,r4,20060a4 <__ieee754_rem_pio2+0x698>
 2005c7c:	d9000e17 	ldw	r4,56(sp)
 2005c80:	d9400f17 	ldw	r5,60(sp)
 2005c84:	800d883a 	mov	r6,r16
 2005c88:	880f883a 	mov	r7,r17
 2005c8c:	20092000 	call	2009200 <__subdf3>
 2005c90:	1810d53a 	srli	r8,r3,20
 2005c94:	b02dd53a 	srai	r22,r22,20
 2005c98:	1009883a 	mov	r4,r2
 2005c9c:	4201ffcc 	andi	r8,r8,2047
 2005ca0:	180b883a 	mov	r5,r3
 2005ca4:	b211c83a 	sub	r8,r22,r8
 2005ca8:	00800404 	movi	r2,16
 2005cac:	dd801015 	stw	r22,64(sp)
 2005cb0:	e1000015 	stw	r4,0(fp)
 2005cb4:	e1400115 	stw	r5,4(fp)
 2005cb8:	1200430e 	bge	r2,r8,2005dc8 <__ieee754_rem_pio2+0x3bc>
 2005cbc:	d9000c17 	ldw	r4,48(sp)
 2005cc0:	d9400d17 	ldw	r5,52(sp)
 2005cc4:	00869834 	movhi	r2,6752
 2005cc8:	00cf7474 	movhi	r3,15825
 2005ccc:	18ed1844 	addi	r3,r3,-19359
 2005cd0:	180f883a 	mov	r7,r3
 2005cd4:	100d883a 	mov	r6,r2
 2005cd8:	20092f40 	call	20092f4 <__muldf3>
 2005cdc:	d9000e17 	ldw	r4,56(sp)
 2005ce0:	d9400f17 	ldw	r5,60(sp)
 2005ce4:	100d883a 	mov	r6,r2
 2005ce8:	180f883a 	mov	r7,r3
 2005cec:	1025883a 	mov	r18,r2
 2005cf0:	1827883a 	mov	r19,r3
 2005cf4:	20092000 	call	2009200 <__subdf3>
 2005cf8:	d9000c17 	ldw	r4,48(sp)
 2005cfc:	d9400d17 	ldw	r5,52(sp)
 2005d00:	058b80f4 	movhi	r22,11779
 2005d04:	b59c1cc4 	addi	r22,r22,28787
 2005d08:	05cee8f4 	movhi	r23,15267
 2005d0c:	bdc66284 	addi	r23,r23,6538
 2005d10:	b00d883a 	mov	r6,r22
 2005d14:	b80f883a 	mov	r7,r23
 2005d18:	d8801115 	stw	r2,68(sp)
 2005d1c:	d8c01215 	stw	r3,72(sp)
 2005d20:	d8800815 	stw	r2,32(sp)
 2005d24:	20092f40 	call	20092f4 <__muldf3>
 2005d28:	d9001217 	ldw	r4,72(sp)
 2005d2c:	d9400f17 	ldw	r5,60(sp)
 2005d30:	d9800817 	ldw	r6,32(sp)
 2005d34:	d9000915 	stw	r4,36(sp)
 2005d38:	d9c01217 	ldw	r7,72(sp)
 2005d3c:	d9000e17 	ldw	r4,56(sp)
 2005d40:	1021883a 	mov	r16,r2
 2005d44:	1823883a 	mov	r17,r3
 2005d48:	20092000 	call	2009200 <__subdf3>
 2005d4c:	180b883a 	mov	r5,r3
 2005d50:	900d883a 	mov	r6,r18
 2005d54:	980f883a 	mov	r7,r19
 2005d58:	1009883a 	mov	r4,r2
 2005d5c:	20092000 	call	2009200 <__subdf3>
 2005d60:	180f883a 	mov	r7,r3
 2005d64:	880b883a 	mov	r5,r17
 2005d68:	8009883a 	mov	r4,r16
 2005d6c:	100d883a 	mov	r6,r2
 2005d70:	20092000 	call	2009200 <__subdf3>
 2005d74:	d9000817 	ldw	r4,32(sp)
 2005d78:	d9401217 	ldw	r5,72(sp)
 2005d7c:	180f883a 	mov	r7,r3
 2005d80:	100d883a 	mov	r6,r2
 2005d84:	1021883a 	mov	r16,r2
 2005d88:	1823883a 	mov	r17,r3
 2005d8c:	20092000 	call	2009200 <__subdf3>
 2005d90:	1810d53a 	srli	r8,r3,20
 2005d94:	1009883a 	mov	r4,r2
 2005d98:	d8801017 	ldw	r2,64(sp)
 2005d9c:	4201ffcc 	andi	r8,r8,2047
 2005da0:	180b883a 	mov	r5,r3
 2005da4:	1211c83a 	sub	r8,r2,r8
 2005da8:	00800c44 	movi	r2,49
 2005dac:	e1000015 	stw	r4,0(fp)
 2005db0:	e1400115 	stw	r5,4(fp)
 2005db4:	1200f016 	blt	r2,r8,2006178 <__ieee754_rem_pio2+0x76c>
 2005db8:	d8c00817 	ldw	r3,32(sp)
 2005dbc:	d9001217 	ldw	r4,72(sp)
 2005dc0:	d8c00e15 	stw	r3,56(sp)
 2005dc4:	d9000f15 	stw	r4,60(sp)
 2005dc8:	e1800017 	ldw	r6,0(fp)
 2005dcc:	e1c00117 	ldw	r7,4(fp)
 2005dd0:	d9400f17 	ldw	r5,60(sp)
 2005dd4:	d9000e17 	ldw	r4,56(sp)
 2005dd8:	20092000 	call	2009200 <__subdf3>
 2005ddc:	180b883a 	mov	r5,r3
 2005de0:	800d883a 	mov	r6,r16
 2005de4:	880f883a 	mov	r7,r17
 2005de8:	1009883a 	mov	r4,r2
 2005dec:	20092000 	call	2009200 <__subdf3>
 2005df0:	d9400a17 	ldw	r5,40(sp)
 2005df4:	e0800215 	stw	r2,8(fp)
 2005df8:	e1800204 	addi	r6,fp,8
 2005dfc:	30c00115 	stw	r3,4(r6)
 2005e00:	283f1b0e 	bge	r5,zero,2005a70 <__ieee754_rem_pio2+0x64>
 2005e04:	e0c00117 	ldw	r3,4(fp)
 2005e08:	d8800b17 	ldw	r2,44(sp)
 2005e0c:	18e0003c 	xorhi	r3,r3,32768
 2005e10:	0085c83a 	sub	r2,zero,r2
 2005e14:	e0c00115 	stw	r3,4(fp)
 2005e18:	d8800b15 	stw	r2,44(sp)
 2005e1c:	30800117 	ldw	r2,4(r6)
 2005e20:	10a0003c 	xorhi	r2,r2,32768
 2005e24:	30800115 	stw	r2,4(r6)
 2005e28:	003f1106 	br	2005a70 <__ieee754_rem_pio2+0x64>
 2005e2c:	04151034 	movhi	r16,21568
 2005e30:	044ffe74 	movhi	r17,16377
 2005e34:	8c487ec4 	addi	r17,r17,8699
 2005e38:	4809883a 	mov	r4,r9
 2005e3c:	800d883a 	mov	r6,r16
 2005e40:	880f883a 	mov	r7,r17
 2005e44:	20092800 	call	2009280 <__adddf3>
 2005e48:	1025883a 	mov	r18,r2
 2005e4c:	1827883a 	mov	r19,r3
 2005e50:	b440a326 	beq	r22,r17,20060e0 <__ieee754_rem_pio2+0x6d4>
 2005e54:	040698b4 	movhi	r16,6754
 2005e58:	8418cc44 	addi	r16,r16,25393
 2005e5c:	044f7474 	movhi	r17,15825
 2005e60:	8c6d1844 	addi	r17,r17,-19359
 2005e64:	1009883a 	mov	r4,r2
 2005e68:	180b883a 	mov	r5,r3
 2005e6c:	800d883a 	mov	r6,r16
 2005e70:	880f883a 	mov	r7,r17
 2005e74:	20092800 	call	2009280 <__adddf3>
 2005e78:	100d883a 	mov	r6,r2
 2005e7c:	9009883a 	mov	r4,r18
 2005e80:	980b883a 	mov	r5,r19
 2005e84:	180f883a 	mov	r7,r3
 2005e88:	e0800015 	stw	r2,0(fp)
 2005e8c:	e0c00115 	stw	r3,4(fp)
 2005e90:	20092000 	call	2009200 <__subdf3>
 2005e94:	1009883a 	mov	r4,r2
 2005e98:	800d883a 	mov	r6,r16
 2005e9c:	880f883a 	mov	r7,r17
 2005ea0:	180b883a 	mov	r5,r3
 2005ea4:	20092800 	call	2009280 <__adddf3>
 2005ea8:	1009883a 	mov	r4,r2
 2005eac:	00bfffc4 	movi	r2,-1
 2005eb0:	d8800b15 	stw	r2,44(sp)
 2005eb4:	e0c00315 	stw	r3,12(fp)
 2005eb8:	e1000215 	stw	r4,8(fp)
 2005ebc:	003eec06 	br	2005a70 <__ieee754_rem_pio2+0x64>
 2005ec0:	b005d53a 	srai	r2,r22,20
 2005ec4:	4821883a 	mov	r16,r9
 2005ec8:	05505c34 	movhi	r21,16752
 2005ecc:	15fefa84 	addi	r23,r2,-1046
 2005ed0:	b826953a 	slli	r19,r23,20
 2005ed4:	0029883a 	mov	r20,zero
 2005ed8:	048000c4 	movi	r18,3
 2005edc:	b4e7c83a 	sub	r19,r22,r19
 2005ee0:	980b883a 	mov	r5,r19
 2005ee4:	2009c280 	call	2009c28 <__fixdfsi>
 2005ee8:	1009883a 	mov	r4,r2
 2005eec:	2009b300 	call	2009b30 <__floatsidf>
 2005ef0:	980b883a 	mov	r5,r19
 2005ef4:	8009883a 	mov	r4,r16
 2005ef8:	180f883a 	mov	r7,r3
 2005efc:	100d883a 	mov	r6,r2
 2005f00:	d8800215 	stw	r2,8(sp)
 2005f04:	d8c00315 	stw	r3,12(sp)
 2005f08:	20092000 	call	2009200 <__subdf3>
 2005f0c:	180b883a 	mov	r5,r3
 2005f10:	a00d883a 	mov	r6,r20
 2005f14:	a80f883a 	mov	r7,r21
 2005f18:	1009883a 	mov	r4,r2
 2005f1c:	20092f40 	call	20092f4 <__muldf3>
 2005f20:	180b883a 	mov	r5,r3
 2005f24:	1009883a 	mov	r4,r2
 2005f28:	1823883a 	mov	r17,r3
 2005f2c:	1021883a 	mov	r16,r2
 2005f30:	2009c280 	call	2009c28 <__fixdfsi>
 2005f34:	1009883a 	mov	r4,r2
 2005f38:	2009b300 	call	2009b30 <__floatsidf>
 2005f3c:	880b883a 	mov	r5,r17
 2005f40:	8009883a 	mov	r4,r16
 2005f44:	180f883a 	mov	r7,r3
 2005f48:	100d883a 	mov	r6,r2
 2005f4c:	d8800415 	stw	r2,16(sp)
 2005f50:	d8c00515 	stw	r3,20(sp)
 2005f54:	20092000 	call	2009200 <__subdf3>
 2005f58:	180b883a 	mov	r5,r3
 2005f5c:	000d883a 	mov	r6,zero
 2005f60:	a80f883a 	mov	r7,r21
 2005f64:	1009883a 	mov	r4,r2
 2005f68:	20092f40 	call	20092f4 <__muldf3>
 2005f6c:	d8c00715 	stw	r3,28(sp)
 2005f70:	d8800615 	stw	r2,24(sp)
 2005f74:	00000106 	br	2005f7c <__ieee754_rem_pio2+0x570>
 2005f78:	8025883a 	mov	r18,r16
 2005f7c:	943fffc4 	addi	r16,r18,-1
 2005f80:	800890fa 	slli	r4,r16,3
 2005f84:	d9400204 	addi	r5,sp,8
 2005f88:	000d883a 	mov	r6,zero
 2005f8c:	2149883a 	add	r4,r4,r5
 2005f90:	20c00117 	ldw	r3,4(r4)
 2005f94:	20800017 	ldw	r2,0(r4)
 2005f98:	000f883a 	mov	r7,zero
 2005f9c:	180b883a 	mov	r5,r3
 2005fa0:	1009883a 	mov	r4,r2
 2005fa4:	20099100 	call	2009910 <__eqdf2>
 2005fa8:	103ff326 	beq	r2,zero,2005f78 <__ieee754_rem_pio2+0x56c>
 2005fac:	00800084 	movi	r2,2
 2005fb0:	00c08074 	movhi	r3,513
 2005fb4:	18f9cb04 	addi	r3,r3,-6356
 2005fb8:	b80d883a 	mov	r6,r23
 2005fbc:	900f883a 	mov	r7,r18
 2005fc0:	d9000204 	addi	r4,sp,8
 2005fc4:	e00b883a 	mov	r5,fp
 2005fc8:	d8800015 	stw	r2,0(sp)
 2005fcc:	d8c00115 	stw	r3,4(sp)
 2005fd0:	2006a280 	call	2006a28 <__kernel_rem_pio2>
 2005fd4:	d8800b15 	stw	r2,44(sp)
 2005fd8:	d8800a17 	ldw	r2,40(sp)
 2005fdc:	103ea40e 	bge	r2,zero,2005a70 <__ieee754_rem_pio2+0x64>
 2005fe0:	e0800117 	ldw	r2,4(fp)
 2005fe4:	d8c00b17 	ldw	r3,44(sp)
 2005fe8:	e1000204 	addi	r4,fp,8
 2005fec:	10a0003c 	xorhi	r2,r2,32768
 2005ff0:	00c7c83a 	sub	r3,zero,r3
 2005ff4:	e0800115 	stw	r2,4(fp)
 2005ff8:	d8c00b15 	stw	r3,44(sp)
 2005ffc:	20c00117 	ldw	r3,4(r4)
 2006000:	18e0003c 	xorhi	r3,r3,32768
 2006004:	20c00115 	stw	r3,4(r4)
 2006008:	003e9906 	br	2005a70 <__ieee754_rem_pio2+0x64>
 200600c:	00869834 	movhi	r2,6752
 2006010:	00cf7474 	movhi	r3,15825
 2006014:	18ed1844 	addi	r3,r3,-19359
 2006018:	9009883a 	mov	r4,r18
 200601c:	980b883a 	mov	r5,r19
 2006020:	180f883a 	mov	r7,r3
 2006024:	100d883a 	mov	r6,r2
 2006028:	20092000 	call	2009200 <__subdf3>
 200602c:	048b80f4 	movhi	r18,11779
 2006030:	949c1cc4 	addi	r18,r18,28787
 2006034:	04cee8f4 	movhi	r19,15267
 2006038:	9cc66284 	addi	r19,r19,6538
 200603c:	1009883a 	mov	r4,r2
 2006040:	180b883a 	mov	r5,r3
 2006044:	900d883a 	mov	r6,r18
 2006048:	980f883a 	mov	r7,r19
 200604c:	1021883a 	mov	r16,r2
 2006050:	1823883a 	mov	r17,r3
