
Cont.elf:     file format elf32-littlenios2
Cont.elf
architecture: nios2, flags 0x00000112:
EXEC_P, HAS_SYMS, D_PAGED
start address 0x020001b4

Program Header:
    LOAD off    0x00001020 vaddr 0x02000020 paddr 0x02000020 align 2**12
         filesz 0x000103dc memsz 0x00011104 flags rwx
    LOAD off    0x00011800 vaddr 0x04001800 paddr 0x04001800 align 2**12
         filesz 0x00000000 memsz 0x00000000 flags r-x

Sections:
Idx Name          Size      VMA       LMA       File off  Algn
  0 .entry        00000000  04001800  04001800  00011800  2**5
                  CONTENTS, ALLOC, LOAD, READONLY, CODE
  1 .exceptions   00000194  02000020  02000020  00001020  2**2
                  CONTENTS, ALLOC, LOAD, READONLY, CODE
  2 .text         0000e4e8  020001b4  020001b4  000011b4  2**2
                  CONTENTS, ALLOC, LOAD, READONLY, CODE
  3 .rodata       000003b8  0200e69c  0200e69c  0000f69c  2**2
                  CONTENTS, ALLOC, LOAD, READONLY, DATA
  4 .rwdata       000019a8  0200ea54  0200ea54  0000fa54  2**2
                  CONTENTS, ALLOC, LOAD, DATA, SMALL_DATA
  5 .bss          00000d28  020103fc  020103fc  000113fc  2**2
                  ALLOC, SMALL_DATA
  6 .comment      00000026  00000000  00000000  00011800  2**0
                  CONTENTS, READONLY
  7 .debug_aranges 00000c90  00000000  00000000  00011828  2**3
                  CONTENTS, READONLY, DEBUGGING
  8 .debug_pubnames 0000209f  00000000  00000000  000124b8  2**0
                  CONTENTS, READONLY, DEBUGGING
  9 .debug_info   00017e5c  00000000  00000000  00014557  2**0
                  CONTENTS, READONLY, DEBUGGING
 10 .debug_abbrev 00006e6f  00000000  00000000  0002c3b3  2**0
                  CONTENTS, READONLY, DEBUGGING
 11 .debug_line   000110f7  00000000  00000000  00033222  2**0
                  CONTENTS, READONLY, DEBUGGING
 12 .debug_frame  000018fc  00000000  00000000  0004431c  2**2
                  CONTENTS, READONLY, DEBUGGING
 13 .debug_str    00001a21  00000000  00000000  00045c18  2**0
                  CONTENTS, READONLY, DEBUGGING
 14 .debug_loc    00005830  00000000  00000000  00047639  2**0
                  CONTENTS, READONLY, DEBUGGING
 15 .debug_alt_sim_info 00000020  00000000  00000000  0004ce6c  2**2
                  CONTENTS, READONLY, DEBUGGING
 16 .debug_ranges 00000428  00000000  00000000  0004ce90  2**3
                  CONTENTS, READONLY, DEBUGGING
 17 .thread_model 00000003  00000000  00000000  000510cf  2**0
                  CONTENTS, READONLY
 18 .cpu          00000003  00000000  00000000  000510d2  2**0
                  CONTENTS, READONLY
 19 .simulation_enabled 00000001  00000000  00000000  000510d5  2**0
                  CONTENTS, READONLY
 20 .sysid_hash   00000004  00000000  00000000  000510d6  2**0
                  CONTENTS, READONLY
 21 .sysid_base   00000004  00000000  00000000  000510da  2**0
                  CONTENTS, READONLY
 22 .sysid_time   00000004  00000000  00000000  000510de  2**0
                  CONTENTS, READONLY
 23 .stderr_dev   00000009  00000000  00000000  000510e2  2**0
                  CONTENTS, READONLY
 24 .stdin_dev    00000009  00000000  00000000  000510eb  2**0
                  CONTENTS, READONLY
 25 .stdout_dev   00000009  00000000  00000000  000510f4  2**0
                  CONTENTS, READONLY
 26 .sopc_system_name 00000006  00000000  00000000  000510fd  2**0
                  CONTENTS, READONLY
 27 .jdi          00003f7f  00000000  00000000  00051103  2**0
                  CONTENTS, READONLY
SYMBOL TABLE:
04001800 l    d  .entry	00000000 .entry
02000020 l    d  .exceptions	00000000 .exceptions
020001b4 l    d  .text	00000000 .text
0200e69c l    d  .rodata	00000000 .rodata
0200ea54 l    d  .rwdata	00000000 .rwdata
020103fc l    d  .bss	00000000 .bss
00000000 l    d  .comment	00000000 .comment
00000000 l    d  .debug_aranges	00000000 .debug_aranges
00000000 l    d  .debug_pubnames	00000000 .debug_pubnames
00000000 l    d  .debug_info	00000000 .debug_info
00000000 l    d  .debug_abbrev	00000000 .debug_abbrev
00000000 l    d  .debug_line	00000000 .debug_line
00000000 l    d  .debug_frame	00000000 .debug_frame
00000000 l    d  .debug_str	00000000 .debug_str
00000000 l    d  .debug_loc	00000000 .debug_loc
00000000 l    d  .debug_alt_sim_info	00000000 .debug_alt_sim_info
00000000 l    d  .debug_ranges	00000000 .debug_ranges
020001f8 l       .text	00000000 alt_after_alt_main
00000000 l    df *ABS*	00000000 alt_irq_handler.c
00000000 l    df *ABS*	00000000 Kalman.c
00000000 l    df *ABS*	00000000 header.c
00000000 l    df *ABS*	00000000 main.c
00000000 l    df *ABS*	00000000 s_cos.c
00000000 l    df *ABS*	00000000 s_sin.c
00000000 l    df *ABS*	00000000 sf_round.c
00000000 l    df *ABS*	00000000 w_asin.c
00000000 l    df *ABS*	00000000 w_atan2.c
00000000 l    df *ABS*	00000000 w_sqrt.c
00000000 l    df *ABS*	00000000 e_asin.c
00000000 l    df *ABS*	00000000 e_atan2.c
00000000 l    df *ABS*	00000000 e_rem_pio2.c
0200e72c l     O .rodata	00000108 two_over_pi
0200e6ac l     O .rodata	00000080 npio2_hw
00000000 l    df *ABS*	00000000 e_sqrt.c
00000000 l    df *ABS*	00000000 k_cos.c
00000000 l    df *ABS*	00000000 k_rem_pio2.c
0200e834 l     O .rodata	00000010 init_jk
0200e844 l     O .rodata	00000040 PIo2
00000000 l    df *ABS*	00000000 k_sin.c
00000000 l    df *ABS*	00000000 s_atan.c
0200e884 l     O .rodata	00000020 atanhi
0200e8a4 l     O .rodata	00000020 atanlo
00000000 l    df *ABS*	00000000 s_fabs.c
00000000 l    df *ABS*	00000000 s_floor.c
00000000 l    df *ABS*	00000000 s_isnand.c
00000000 l    df *ABS*	00000000 s_lib_ver.c
00000000 l    df *ABS*	00000000 s_matherr.c
00000000 l    df *ABS*	00000000 s_nan.c
00000000 l    df *ABS*	00000000 s_scalbn.c
00000000 l    df *ABS*	00000000 s_copysign.c
00000000 l    df *ABS*	00000000 fp-bit.c
020086dc l     F .text	000001e4 _fpadd_parts
00000000 l    df *ABS*	00000000 fp-bit.c
00000000 l    df *ABS*	00000000 fp-bit.c
00000000 l    df *ABS*	00000000 fp-bit.c
00000000 l    df *ABS*	00000000 fp-bit.c
00000000 l    df *ABS*	00000000 fp-bit.c
00000000 l    df *ABS*	00000000 fp-bit.c
00000000 l    df *ABS*	00000000 fp-bit.c
00000000 l    df *ABS*	00000000 fp-bit.c
00000000 l    df *ABS*	00000000 dp-bit.c
02008df0 l     F .text	00000410 _fpadd_parts
00000000 l    df *ABS*	00000000 dp-bit.c
00000000 l    df *ABS*	00000000 dp-bit.c
00000000 l    df *ABS*	00000000 dp-bit.c
00000000 l    df *ABS*	00000000 dp-bit.c
00000000 l    df *ABS*	00000000 dp-bit.c
00000000 l    df *ABS*	00000000 dp-bit.c
00000000 l    df *ABS*	00000000 dp-bit.c
00000000 l    df *ABS*	00000000 dp-bit.c
00000000 l    df *ABS*	00000000 dp-bit.c
00000000 l    df *ABS*	00000000 dp-bit.c
00000000 l    df *ABS*	00000000 dp-bit.c
00000000 l    df *ABS*	00000000 lib2-divmod.c
02009dac l     F .text	0000007c udivmodsi4
00000000 l    df *ABS*	00000000 libgcc2.c
00000000 l    df *ABS*	00000000 libgcc2.c
00000000 l    df *ABS*	00000000 fp-bit.c
00000000 l    df *ABS*	00000000 fp-bit.c
00000000 l    df *ABS*	00000000 fp-bit.c
00000000 l    df *ABS*	00000000 fp-bit.c
00000000 l    df *ABS*	00000000 dp-bit.c
00000000 l    df *ABS*	00000000 dp-bit.c
00000000 l    df *ABS*	00000000 dp-bit.c
00000000 l    df *ABS*	00000000 libgcc2.c
00000000 l    df *ABS*	00000000 errno.c
00000000 l    df *ABS*	00000000 impure.c
0200eb3c l     O .rwdata	00000400 impure_data
00000000 l    df *ABS*	00000000 alt_irq_register.c
00000000 l    df *ABS*	00000000 alt_irq_vars.c
00000000 l    df *ABS*	00000000 alt_main.c
00000000 l    df *ABS*	00000000 alt_sys_init.c
0200ef3c l     O .rwdata	000000c4 epcs_flash_controller
0200f000 l     O .rwdata	00001060 jtag_uart
02010060 l     O .rwdata	000000c4 uart_gps
02010124 l     O .rwdata	000000c4 uart_xbee
0200ab38 l     F .text	00000038 alt_dev_reg
00000000 l    df *ABS*	00000000 altera_avalon_epcs_flash_controller.c
0200abfc l     F .text	000001ec alt_epcs_flash_query
0200abc4 l     F .text	00000038 alt_flash_device_register
0200ade8 l     F .text	00000108 alt_epcs_flash_memcmp
0200b274 l     F .text	00000094 alt_epcs_test_address
00000000 l    df *ABS*	00000000 altera_avalon_jtag_uart_fd.c
00000000 l    df *ABS*	00000000 altera_avalon_jtag_uart_init.c
0200b6ac l     F .text	00000228 altera_avalon_jtag_uart_irq
0200b8d4 l     F .text	000000b0 altera_avalon_jtag_uart_timeout
00000000 l    df *ABS*	00000000 altera_avalon_jtag_uart_ioctl.c
00000000 l    df *ABS*	00000000 altera_avalon_jtag_uart_read.c
00000000 l    df *ABS*	00000000 altera_avalon_jtag_uart_write.c
00000000 l    df *ABS*	00000000 altera_avalon_timer_sc.c
0200bf50 l     F .text	00000070 alt_avalon_timer_sc_irq
00000000 l    df *ABS*	00000000 altera_avalon_uart_fd.c
00000000 l    df *ABS*	00000000 altera_avalon_uart_init.c
0200c210 l     F .text	0000009c altera_avalon_uart_irq
0200c2ac l     F .text	000000e0 altera_avalon_uart_rxirq
0200c38c l     F .text	0000015c altera_avalon_uart_txirq
00000000 l    df *ABS*	00000000 altera_avalon_uart_read.c
0200c778 l     F .text	00000060 alt_get_errno
00000000 l    df *ABS*	00000000 altera_avalon_uart_write.c
0200c9a0 l     F .text	00000060 alt_get_errno
00000000 l    df *ABS*	00000000 epcs_commands.c
0200cadc l     F .text	00000038 epcs_await_wip_released
0200cb14 l     F .text	00000038 epcs_test_wip
00000000 l    df *ABS*	00000000 alt_alarm_start.c
00000000 l    df *ABS*	00000000 alt_close.c
0200d0b0 l     F .text	00000060 alt_get_errno
00000000 l    df *ABS*	00000000 alt_dev.c
0200d110 l     F .text	0000002c alt_dev_null_write
00000000 l    df *ABS*	00000000 alt_dev_llist_insert.c
0200d1f0 l     F .text	00000060 alt_get_errno
00000000 l    df *ABS*	00000000 alt_do_ctors.c
00000000 l    df *ABS*	00000000 alt_do_dtors.c
00000000 l    df *ABS*	00000000 alt_errno.c
00000000 l    df *ABS*	00000000 alt_flash_dev.c
00000000 l    df *ABS*	00000000 alt_iic.c
00000000 l    df *ABS*	00000000 alt_iic_isr_register.c
00000000 l    df *ABS*	00000000 alt_io_redirect.c
0200d6b4 l     F .text	000000c4 alt_open_fd
00000000 l    df *ABS*	00000000 alt_open.c
0200d7f0 l     F .text	000000dc alt_file_locked
0200da54 l     F .text	00000060 alt_get_errno
00000000 l    df *ABS*	00000000 alt_release_fd.c
00000000 l    df *ABS*	00000000 alt_tick.c
00000000 l    df *ABS*	00000000 altera_nios2_irq.c
00000000 l    df *ABS*	00000000 altera_avalon_spi.c
00000000 l    df *ABS*	00000000 alt_find_dev.c
00000000 l    df *ABS*	00000000 alt_find_file.c
00000000 l    df *ABS*	00000000 alt_get_fd.c
00000000 l    df *ABS*	00000000 atexit.c
00000000 l    df *ABS*	00000000 exit.c
00000000 l    df *ABS*	00000000 int_errno.c
00000000 l    df *ABS*	00000000 memcmp.c
00000000 l    df *ABS*	00000000 memcpy.c
00000000 l    df *ABS*	00000000 strlen.c
00000000 l    df *ABS*	00000000 __atexit.c
00000000 l    df *ABS*	00000000 __call_atexit.c
0200e484 l     F .text	00000004 register_fini
00000000 l    df *ABS*	00000000 alt_exit.c
0200e638 l     F .text	00000040 alt_sim_halt
0200b170 g     F .text	00000090 alt_epcs_flash_get_info
02010418 g     O .bss	00000004 cos_pitch
0200a9f0 g     F .text	0000006c alt_main
020105e0 g     O .bss	00000004 sp_altura
02010e94 g     O .bss	00000100 alt_irq
020105f4 g     O .bss	00000004 recepciona_trama_imu
02008254 g     F .text	00000018 fabs
02010b80 g     O .bss	0000001c Hftrans
02010d58 g     O .bss	00000028 tx_trama
0201041c g     O .bss	00000004 x6
02004cd0 g     F .text	00000130 sqrt
02010420 g     O .bss	00000004 GY11
02009910 g     F .text	00000088 __eqdf2
02010424 g     O .bss	00000004 wz
02010428 g     O .bss	00000002 ejez_ac
02004034 g     F .text	00000354 SetPoints
0200337c g     F .text	00000038 isr_handler_timer
02010d80 g     O .bss	0000000c sp_interno
0201042c g     O .bss	00000004 GY12
02008994 g     F .text	00000174 __divsf3
02010400 g     O .bss	00000004 j
020105e8 g     O .bss	00000004 sp_wy
02010708 g     O .bss	0000001c x
02010430 g     O .bss	00000004 AC31
020031fc g     F .text	00000084 a_2decimales
02008d08 g     F .text	00000094 __fixsfsi
02010434 g     O .bss	00000002 ejez_gi
02010394 g     O .rwdata	00000004 opcion
02009998 g     F .text	00000088 __gtdf2
0200a820 g     F .text	00000010 __errno
0200ca60 g     F .text	0000007c epcs_sector_erase
02010bf0 g     O .bss	0000001c ftrans
04001800 g     F .entry	00000000 __reset
02004508 g     F .text	00000224 SetPIDs
02010b9c g     O .bss	0000001c f
02010438 g     O .bss	00000004 MA21
02010640 g     O .bss	00000004 errno
02009d00 g     F .text	00000038 __make_dp
0200826c g     F .text	00000224 floor
0201043c g     O .bss	00000004 MA33
02010620 g     O .bss	00000004 cont_recv
02010440 g     O .bss	00000004 GY23
0200a2e0 g     F .text	0000002c __make_fp
02002664 g     F .text	000000d8 D_7x1_scale
02010ce8 g     O .bss	00000020 recvtrama
02010630 g     O .bss	00000004 alt_argv
02018390 g       *ABS*	00000000 _gp
020088c0 g     F .text	00000070 __subsf3
02010444 g     O .bss	00000004 AC33
0201061c g     O .bss	00000004 Estados_Quad
02010614 g     O .bss	00000004 initpwms
02010210 g     O .rwdata	00000180 alt_fd_list
02005a0c g     F .text	00000828 __ieee754_rem_pio2
02010448 g     O .bss	00000004 MA22
0200cc50 g     F .text	00000064 epcs_write_status_register
020103b0 g     O .rwdata	00000004 at
0200df10 g     F .text	00000094 alt_find_dev
0200e23c g     F .text	000000a0 memcpy
02010bb8 g     O .bss	0000001c K
020105fe g     O .bss	00000002 RF2
0201044c g     O .bss	00000004 AC21
02010618 g     O .bss	00000004 contsleep
02009b30 g     F .text	000000f8 __floatsidf
0200d778 g     F .text	00000078 alt_io_redirect
02009aa8 g     F .text	00000088 __ltdf2
0200e69c g       *ABS*	00000000 __DTOR_END__
020033b4 g     F .text	0000018c isr_handler_TimerONOF
0200dcb8 g     F .text	00000020 altera_nios2_irq_init
0200b308 g     F .text	00000110 alt_epcs_flash_write_block
02010cdc g     O .bss	0000000c errSum
02010450 g     O .bss	00000004 err_center_z
0200273c g     F .text	000000b8 M_7x1_scale
0200baec g     F .text	00000224 altera_avalon_jtag_uart_read
00000000  w      *UND*	00000000 malloc
02009ee8 g     F .text	00000008 __udivsi3
02004b00 g     F .text	0000009c roundf
02010c0c g     O .bss	000000c4 K_ftrans
02010454 g     O .bss	00000004 Pitch_sex
02010458 g     O .bss	00000004 W_x
0200ea54 g     O .rwdata	000000c4 Q
020103c0 g     O .rwdata	00000004 sleep
0201045c g     O .bss	00000004 M_x
0201060c g     O .bss	00000004 KI_yaw
020064fc g     F .text	0000052c __kernel_cos
02010d8c g     O .bss	00000048 PID_Wz
02010460 g     O .bss	00000004 wx
02010610 g     O .bss	00000004 flag
02010464 g     O .bss	00000004 mag_x
020103ac g     O .rwdata	00000004 I_roll
02010468 g     O .bss	00000004 AC13
0201040c g     O .bss	00000004 w
020037e0 g     F .text	00000048 init_uart
0201046c g     O .bss	00000004 AC10
02010470 g     O .bss	00000004 Pitch_rad
02010410 g     O .bss	00000004 k
020103e4 g     O .rwdata	00000004 alt_max_fd
0200a620 g     F .text	00000138 __unpack_d
02010474 g     O .bss	00000004 x5
0200a830 g     F .text	000001c0 alt_irq_register
020078a4 g     F .text	00000318 __kernel_sin
02008d9c g     F .text	00000054 __extendsfdf2
02010624 g     O .bss	00000004 temp
020105f8 g     O .bss	00000004 trama_valida
02009280 g     F .text	00000074 __adddf3
0200b200 g     F .text	00000074 alt_epcs_flash_erase_block
02010478 g     O .bss	00000004 GY32
020103c4 g     O .rwdata	00000004 __fdlib_version
020103cc g     O .rwdata	00000004 _global_impure_ptr
02011124 g       *ABS*	00000000 __bss_end
0200d5bc g     F .text	000000f8 alt_iic_isr_register
0200dbac g     F .text	0000010c alt_tick
0201047c g     O .bss	00000004 MA11
0200c148 g     F .text	000000c8 altera_avalon_uart_init
0200d574 g     F .text	00000048 alt_ic_irq_enabled
020103bc g     O .rwdata	00000004 Km
02010480 g     O .bss	00000004 AC20
0200db14 g     F .text	00000098 alt_alarm_stop
02010484 g     O .bss	00000002 ejex_gi
02010628 g     O .bss	00000004 alt_irq_active
02010488 g     O .bss	00000004 giro_y
020105d4 g     O .bss	00000004 sp_roll
020000ec g     F .exceptions	000000c8 alt_irq_handler
020101e8 g     O .rwdata	00000028 alt_dev_null
02006a28 g     F .text	00000e7c __kernel_rem_pio2
0201048c g     O .bss	00000004 x2
0200299c g     F .text	000000c8 M_7x1_1x7
02010490 g     O .bss	00000004 Roll_rad
0200a170 g     F .text	000000c8 __unpack_f
02010494 g     O .bss	00000004 Yaw_rad
02010498 g     O .bss	00000004 MA32
02009c28 g     F .text	000000d8 __fixdfsi
02010970 g     O .bss	000000c4 F_P_Ftrans
0201049c g     O .bss	00000004 x7
020104a0 g     O .bss	00000004 sin_pitch
020103dc g     O .rwdata	00000008 alt_dev_list
020105c8 g     O .bss	00000004 fin
020104a4 g     O .bss	00000004 GY10
020056bc g     F .text	00000350 __ieee754_atan2
02008b08 g     F .text	00000078 __gtsf2
020104a8 g     O .bss	00000004 acel_y
02010af8 g     O .bss	0000000c z
020104ac g     O .bss	00000004 AC30
02009ef0 g     F .text	00000008 __umodsi3
02010602 g     O .bss	00000002 RF4
02010a34 g     O .bss	000000c4 P_predict
0200cd8c g     F .text	0000006c epcs_read_electronic_signature
020104b0 g     O .bss	00000004 C_gy_z
020104b4 g     O .bss	00000002 ejex_ac
02011124 g       *ABS*	00000000 end
0200a010 g     F .text	00000160 __pack_f
020104b6 g     O .bss	00000002 ejez_ma
02010414 g     O .bss	00000004 Hf_f
020103b8 g     O .rwdata	00000004 Ktp
02010b64 g     O .bss	0000001c Hf
0200c7d8 g     F .text	000001c8 altera_avalon_uart_write
02003094 g     F .text	00000074 UART_SendString
0200b5ec g     F .text	000000c0 altera_avalon_jtag_uart_init
020103fc g     O .bss	00000004 i
02004e00 g     F .text	000008bc __ieee754_asin
0200e698 g       *ABS*	00000000 __CTOR_LIST__
02010390 g     O .rwdata	00000004 numbytes
04000000 g       *ABS*	00000000 __alt_stack_pointer
0200bfc0 g     F .text	00000090 alt_avalon_timer_sc_init
0200c0a8 g     F .text	00000058 altera_avalon_uart_write_fd
02009f90 g     F .text	00000080 __clzsi2
0200c100 g     F .text	00000048 altera_avalon_uart_close_fd
020104b8 g     O .bss	00000004 mag_y
0200bd10 g     F .text	00000240 altera_avalon_jtag_uart_write
0200482c g     F .text	00000168 cos
0200237c g     F .text	000000b8 transp_1x7
0200e488 g     F .text	000001b0 __call_exitprocs
020001b4 g     F .text	00000048 _start
02010638 g     O .bss	00000004 _alt_tick_rate
020104bc g     O .bss	00000004 magn_x
02004994 g     F .text	0000016c sin
020104c0 g     O .bss	00000004 GY31
020103a8 g     O .rwdata	00000004 I_pitch
0200dcd8 g     F .text	00000238 alt_avalon_spi_command
02004ccc g     F .text	00000004 atan2
0201063c g     O .bss	00000004 _alt_nticks
0200aa90 g     F .text	000000a8 alt_sys_init
02008c70 g     F .text	00000098 __floatsisf
0200e350 g     F .text	00000134 __register_exitproc
020104c4 g     O .bss	00000004 AC23
020104c8 g     O .bss	00000004 M_z
020104cc g     O .bss	00000004 GY22
020104d0 g     O .bss	00000004 M_y
020104d4 g     O .bss	00000004 err_center_y
0200b984 g     F .text	00000074 altera_avalon_jtag_uart_close
02010bd4 g     O .bss	0000001c K_y_h
020103b4 g     O .rwdata	00000004 Kt
02010d08 g     O .bss	00000050 sendtrama
0200ca00 g     F .text	00000060 epcs_read_status_register
020105d0 g     O .bss	00000004 alt_anterior
02010408 g     O .bss	00000004 v
0200b4a4 g     F .text	00000058 altera_avalon_jtag_uart_read_fd
0200e0c4 g     F .text	000000b8 alt_get_fd
020104d8 g     O .bss	00000004 mag_abs
020104dc g     O .bss	00000004 roll_rad
0201039c g     O .rwdata	00000004 P_roll
0200a758 g     F .text	000000c8 __fpcmp_parts_d
020104e0 g     O .bss	00000002 ejex_ma
0200cdf8 g     F .text	00000068 epcs_read_device_id
0200e1c8 g     F .text	00000074 memcmp
0200b554 g     F .text	00000048 altera_avalon_jtag_uart_close_fd
02011124 g       *ABS*	00000000 __alt_stack_base
020107e8 g     O .bss	000000c4 F_P
0200b59c g     F .text	00000050 altera_avalon_jtag_uart_ioctl_fd
020104e4 g     O .bss	00000004 MA13
020105f0 g     O .bss	00000004 flag_trama_imu
0200214c g     F .text	00000230 M_7x7_7x1
020096b8 g     F .text	00000258 __divdf3
02010600 g     O .bss	00000002 RF3
02010dd4 g     O .bss	00000010 W
020104e8 g     O .bss	00000004 AC12
020105e4 g     O .bss	00000004 sp_wx
020092f4 g     F .text	000003c4 __muldf3
020104ec g     O .bss	00000004 offset_x
02001fb4 g     F .text	000000b4 transp_7x7
04001800 g       *ABS*	00000000 __alt_mem_epcs_flash_controller
0200e8c4 g     O .rodata	00000010 __thenan_sf
02003b38 g     F .text	000004fc AlgoritmoControl
020103a4 g     O .rwdata	00000004 P_yaw
02003108 g     F .text	000000f4 UART_SendInt
0200dfa4 g     F .text	00000120 alt_find_file
0200d13c g     F .text	000000b4 alt_dev_llist_insert
020104f0 g     O .bss	00000004 Roll_sex
02003054 g     F .text	00000040 UART_SendChar
02003280 g     F .text	000000fc SendTrama
020103ec g     O .rwdata	00000008 alt_flash_dev_list
020104f4 g     O .bss	00000004 x4
020103fc g       *ABS*	00000000 __bss_start
020104f8 g     O .bss	00000004 giro_x
02003540 g     F .text	000002a0 main
02010404 g     O .bss	00000004 valor_ini
020104fc g     O .bss	00000004 C_acel_y
02010634 g     O .bss	00000004 alt_envp
0200b4fc g     F .text	00000058 altera_avalon_jtag_uart_write_fd
02008bf8 g     F .text	00000078 __ltsf2
02010de4 g     O .bss	00000048 PID_Wy
02002b48 g     F .text	00000040 qPID_Init
020084c0 g     F .text	00000008 matherr
02010b10 g     O .bss	00000054 H
02009d38 g     F .text	00000074 __truncdfsf2
02004388 g     F .text	00000180 Data_to_GCS
02010f94 g     O .bss	00000190 _atexit0
020105cc g     O .bss	00000004 time
02010500 g     O .bss	00000004 Yaw_sex
020103a0 g     O .rwdata	00000004 P_pitch
02010398 g     O .rwdata	00000004 numsendtrama
020103e8 g     O .rwdata	00000004 alt_errno
02010504 g     O .bss	00000004 W_y
02009e28 g     F .text	00000060 __divsi3
0200e8d4 g     O .rodata	00000014 __thenan_df
0200e69c g       *ABS*	00000000 __CTOR_END__
02010604 g     O .bss	00000004 KI_pitch
0200aef0 g     F .text	00000280 alt_epcs_flash_write
02010e2c g     O .bss	00000010 PWM
02010508 g     O .bss	00000004 GY13
0200e69c g       *ABS*	00000000 __DTOR_LIST__
0201050c g     O .bss	00000004 sin_roll
020105fc g     O .bss	00000002 RF1
020086b8 g     F .text	00000024 copysign
0200aa5c g     F .text	00000034 alt_irq_init
0200dab4 g     F .text	00000060 alt_release_fd
02002068 g     F .text	000000e4 S_7x7
02010510 g     O .bss	00000002 ejey_gi
02007bbc g     F .text	00000698 atan
0200e8e8 g     O .rodata	00000100 __clz_tab
02010514 g     O .bss	00000004 C_mag_x
0200eb18 g     O .rwdata	00000024 R
0200e17c g     F .text	00000014 atexit
02008b80 g     F .text	00000078 __gesf2
02004b9c g     F .text	00000130 asin
02010518 g     O .bss	00000004 giro_z
02001d88 g     F .text	0000022c M_7x7_7x7
020103c8 g     O .rwdata	00000004 _impure_ptr
02010cd0 g     O .bss	0000000c error
0201062c g     O .bss	00000004 alt_argc
020084d8 g     F .text	000001e0 scalbn
0201051c g     O .bss	00000004 x3
0200d2b4 g     F .text	00000064 _do_dtors
02010b04 g     O .bss	0000000c h
02010520 g     O .bss	00000004 x1
02010524 g     O .bss	00000004 AC32
02000020 g       .exceptions	00000000 alt_irq_entry
02010528 g     O .bss	00000004 MA31
020103d4 g     O .rwdata	00000008 alt_fs_list
0201052c g     O .bss	00000004 acel_abs
0200472c g     F .text	00000100 handle_uart_interrupts
020084c8 g     F .text	00000010 nan
02010530 g     O .bss	00000004 acel_z
02002b88 g     F .text	000004cc qPID_Process_
0200cb4c g     F .text	000000b4 epcs_read_buffer
02010534 g     O .bss	00000004 q_abs
02006234 g     F .text	000002c8 __ieee754_sqrt
02010538 g     O .bss	00000004 yaw
0201053c g     O .bss	00000004 MA23
0200ab70 g     F .text	00000054 alt_epcs_flash_init
0200d3e8 g     F .text	00000050 alt_ic_isr_register
02002a64 g     F .text	000000e4 R_7x7
02010540 g     O .bss	00000004 C_gy_y
020103fc g       *ABS*	00000000 _edata
02010544 g     O .bss	00000004 C_acel_x
02002434 g     F .text	00000230 M_1x7_7x1
0200c050 g     F .text	00000058 altera_avalon_uart_read_fd
02011124 g       *ABS*	00000000 _end
0200d318 g     F .text	0000007c alt_flash_open_dev
020105d8 g     O .bss	00000004 sp_pitch
0200b9f8 g     F .text	000000f4 altera_avalon_jtag_uart_ioctl
02010e3c g     O .bss	00000010 U
02010548 g     O .bss	00000004 pitch
0201054c g     O .bss	00000004 roll
0200d4d4 g     F .text	000000a0 alt_ic_irq_disable
02010550 g     O .bss	00000004 C_gy_x
02010554 g     O .bss	00000004 AC22
02010558 g     O .bss	00000004 yaw_rad
0200e190 g     F .text	00000038 exit
02010608 g     O .bss	00000004 KI_roll
0200d394 g     F .text	00000054 alt_flash_close_dev
02009e88 g     F .text	00000060 __modsi3
020108ac g     O .bss	000000c4 Ftrans
0201055c g     O .bss	00000002 ejey_ac
04000000 g       *ABS*	00000000 __alt_data_end
02000020 g     F .exceptions	00000000 alt_exception
02010560 g     O .bss	00000004 C_mag_y
02000000 g       *ABS*	00000000 __alt_mem_sdram
02010564 g     O .bss	00000004 YAW_rad
02010568 g     O .bss	00000004 magn_y
020105c4 g     O .bss	00000004 restart
0201056c g     O .bss	00000004 GY30
02010570 g     O .bss	00000004 err_center_x
0200c4e8 g     F .text	00000060 altera_avalon_uart_close
0200a238 g     F .text	000000a8 __fpcmp_parts_f
0200e678 g     F .text	00000020 _exit
02008490 g     F .text	00000030 __isnand
02010574 g     O .bss	00000004 W_z
0200ce60 g     F .text	00000154 alt_alarm_start
02010578 g     O .bss	00000004 GY21
0201057c g     O .bss	00000002 ejey_ma
02009ef8 g     F .text	00000098 __muldi3
02010580 g     O .bss	00000004 acel_x
02010584 g     O .bss	00000004 wy
02010588 g     O .bss	00000004 C_mag_z
0200e2dc g     F .text	00000074 strlen
0200cc00 g     F .text	00000050 epcs_write_enable
0200d8cc g     F .text	00000188 open
02009a20 g     F .text	00000088 __gedf2
020027f4 g     F .text	000000f0 S_7x1
0201058c g     O .bss	00000004 GY20
02003828 g     F .text	00000310 Config_PIDs
02010590 g     O .bss	00000004 GY33
02010594 g     O .bss	00000004 AC11
02010598 g     O .bss	00000004 offset_z
020028e4 g     F .text	000000b8 transp_7x1
020103d0 g     O .rwdata	00000004 alt_priority_mask
0200d438 g     F .text	0000009c alt_ic_irq_enable
0201059c g     O .bss	00000004 YAW
020105a0 g     O .bss	00000004 magn_z
020001fc g     F .text	00001b8c FiltroKalmanExtendido
0200c548 g     F .text	00000230 altera_avalon_uart_read
02009200 g     F .text	00000080 __subdf3
020105a4 g     O .bss	00000004 pitch_rad
020105a8 g     O .bss	00000004 alpha
020105ac g     O .bss	00000004 MA12
0200b418 g     F .text	0000008c alt_epcs_flash_read
020103f4 g     O .rwdata	00000008 alt_alarm_list
0200d250 g     F .text	00000064 _do_ctors
020105ec g     O .bss	00000004 sp_wz
02010724 g     O .bss	000000c4 F
02010644 g     O .bss	000000c4 P
020105b0 g     O .bss	00000004 C_acel_z
020105dc g     O .bss	00000004 sp_yaw
0200cfb4 g     F .text	000000fc close
02008930 g     F .text	00000064 __addsf3
020105b4 g     O .bss	00000004 offset_y
020105b8 g     O .bss	00000004 cos_roll
020105bc g     O .bss	00000004 y_h
02010e4c g     O .bss	00000048 PID_Wx
0200a30c g     F .text	00000314 __pack_d
00000000  w      *UND*	00000000 free
020105c0 g     O .bss	00000002 distancia
0200ccb4 g     F .text	000000d8 epcs_write_buffer



Disassembly of section .exceptions:

02000020 <alt_exception>:
 2000020:	deffed04 	addi	sp,sp,-76
 2000024:	dfc00015 	stw	ra,0(sp)
 2000028:	d8400215 	stw	at,8(sp)
 200002c:	d8800315 	stw	r2,12(sp)
 2000030:	d8c00415 	stw	r3,16(sp)
 2000034:	d9000515 	stw	r4,20(sp)
 2000038:	d9400615 	stw	r5,24(sp)
 200003c:	d9800715 	stw	r6,28(sp)
 2000040:	d9c00815 	stw	r7,32(sp)
 2000044:	000b307a 	rdctl	r5,estatus
 2000048:	da000915 	stw	r8,36(sp)
 200004c:	da400a15 	stw	r9,40(sp)
 2000050:	da800b15 	stw	r10,44(sp)
 2000054:	dac00c15 	stw	r11,48(sp)
 2000058:	db000d15 	stw	r12,52(sp)
 200005c:	db400e15 	stw	r13,56(sp)
 2000060:	db800f15 	stw	r14,60(sp)
 2000064:	dbc01015 	stw	r15,64(sp)
 2000068:	d9401115 	stw	r5,68(sp)
 200006c:	ebffff04 	addi	r15,ea,-4
 2000070:	dbc01215 	stw	r15,72(sp)
 2000074:	0009313a 	rdctl	r4,ipending
 2000078:	2880004c 	andi	r2,r5,1
 200007c:	10000326 	beq	r2,zero,200008c <alt_exception+0x6c>
 2000080:	20000226 	beq	r4,zero,200008c <alt_exception+0x6c>
 2000084:	20000ec0 	call	20000ec <alt_irq_handler>
 2000088:	00000306 	br	2000098 <alt_exception+0x78>
 200008c:	df401215 	stw	ea,72(sp)
 2000090:	e8bfff17 	ldw	r2,-4(ea)
 2000094:	003da03a 	break	0
 2000098:	d9401117 	ldw	r5,68(sp)
 200009c:	df401217 	ldw	ea,72(sp)
 20000a0:	dfc00017 	ldw	ra,0(sp)
 20000a4:	2801707a 	wrctl	estatus,r5
 20000a8:	d8400217 	ldw	at,8(sp)
 20000ac:	d8800317 	ldw	r2,12(sp)
 20000b0:	d8c00417 	ldw	r3,16(sp)
 20000b4:	d9000517 	ldw	r4,20(sp)
 20000b8:	d9400617 	ldw	r5,24(sp)
 20000bc:	d9800717 	ldw	r6,28(sp)
 20000c0:	d9c00817 	ldw	r7,32(sp)
 20000c4:	da000917 	ldw	r8,36(sp)
 20000c8:	da400a17 	ldw	r9,40(sp)
 20000cc:	da800b17 	ldw	r10,44(sp)
 20000d0:	dac00c17 	ldw	r11,48(sp)
 20000d4:	db000d17 	ldw	r12,52(sp)
 20000d8:	db400e17 	ldw	r13,56(sp)
 20000dc:	db800f17 	ldw	r14,60(sp)
 20000e0:	dbc01017 	ldw	r15,64(sp)
 20000e4:	dec01304 	addi	sp,sp,76
 20000e8:	ef80083a 	eret

020000ec <alt_irq_handler>:
 20000ec:	defff904 	addi	sp,sp,-28
 20000f0:	dfc00615 	stw	ra,24(sp)
 20000f4:	df000515 	stw	fp,20(sp)
 20000f8:	df000504 	addi	fp,sp,20
 20000fc:	0005313a 	rdctl	r2,ipending
 2000100:	e0bffc15 	stw	r2,-16(fp)
 2000104:	e0bffc17 	ldw	r2,-16(fp)
 2000108:	e0bfff15 	stw	r2,-4(fp)
 200010c:	e03ffd15 	stw	zero,-12(fp)
 2000110:	00800044 	movi	r2,1
 2000114:	e0bffe15 	stw	r2,-8(fp)
 2000118:	e0ffff17 	ldw	r3,-4(fp)
 200011c:	e0bffe17 	ldw	r2,-8(fp)
 2000120:	1884703a 	and	r2,r3,r2
 2000124:	1005003a 	cmpeq	r2,r2,zero
 2000128:	1000161e 	bne	r2,zero,2000184 <alt_irq_handler+0x98>
 200012c:	e0bffd17 	ldw	r2,-12(fp)
 2000130:	00c08074 	movhi	r3,513
 2000134:	18c3a504 	addi	r3,r3,3732
 2000138:	100490fa 	slli	r2,r2,3
 200013c:	10c5883a 	add	r2,r2,r3
 2000140:	11400017 	ldw	r5,0(r2)
 2000144:	e0bffd17 	ldw	r2,-12(fp)
 2000148:	00c08074 	movhi	r3,513
 200014c:	18c3a504 	addi	r3,r3,3732
 2000150:	100490fa 	slli	r2,r2,3
 2000154:	10c5883a 	add	r2,r2,r3
 2000158:	10800104 	addi	r2,r2,4
 200015c:	11000017 	ldw	r4,0(r2)
 2000160:	283ee83a 	callr	r5
 2000164:	0005313a 	rdctl	r2,ipending
 2000168:	e0bffb15 	stw	r2,-20(fp)
 200016c:	e0bffb17 	ldw	r2,-20(fp)
 2000170:	e0bfff15 	stw	r2,-4(fp)
 2000174:	e0bfff17 	ldw	r2,-4(fp)
 2000178:	1004c03a 	cmpne	r2,r2,zero
 200017c:	103fe31e 	bne	r2,zero,200010c <alt_irq_handler+0x20>
 2000180:	00000706 	br	20001a0 <alt_irq_handler+0xb4>
 2000184:	e0bffe17 	ldw	r2,-8(fp)
 2000188:	1085883a 	add	r2,r2,r2
 200018c:	e0bffe15 	stw	r2,-8(fp)
 2000190:	e0bffd17 	ldw	r2,-12(fp)
 2000194:	10800044 	addi	r2,r2,1
 2000198:	e0bffd15 	stw	r2,-12(fp)
 200019c:	003fde06 	br	2000118 <alt_irq_handler+0x2c>
 20001a0:	e037883a 	mov	sp,fp
 20001a4:	dfc00117 	ldw	ra,4(sp)
 20001a8:	df000017 	ldw	fp,0(sp)
 20001ac:	dec00204 	addi	sp,sp,8
 20001b0:	f800283a 	ret

Disassembly of section .text:

020001b4 <_start>:
 20001b4:	00840014 	movui	r2,4096
 20001b8:	10000033 	initd	0(r2)
 20001bc:	10bff804 	addi	r2,r2,-32
 20001c0:	00bffd16 	blt	zero,r2,20001b8 <_start+0x4>
 20001c4:	06c10034 	movhi	sp,1024
 20001c8:	dec00014 	ori	sp,sp,0
 20001cc:	06808074 	movhi	gp,513
 20001d0:	d6a0e414 	ori	gp,gp,33680
 20001d4:	00808074 	movhi	r2,513
 20001d8:	1080ff14 	ori	r2,r2,1020
 20001dc:	00c08074 	movhi	r3,513
 20001e0:	18c44914 	ori	r3,r3,4388
 20001e4:	10c00326 	beq	r2,r3,20001f4 <_start+0x40>
 20001e8:	10000015 	stw	zero,0(r2)
 20001ec:	10800104 	addi	r2,r2,4
 20001f0:	10fffd36 	bltu	r2,r3,20001e8 <_start+0x34>
 20001f4:	200a9f00 	call	200a9f0 <alt_main>

020001f8 <alt_after_alt_main>:
 20001f8:	003fff06 	br	20001f8 <alt_after_alt_main>

020001fc <FiltroKalmanExtendido>:
 20001fc:	defffc04 	addi	sp,sp,-16
 2000200:	dfc00315 	stw	ra,12(sp)
 2000204:	df000215 	stw	fp,8(sp)
 2000208:	dc400115 	stw	r17,4(sp)
 200020c:	dc000015 	stw	r16,0(sp)
 2000210:	d839883a 	mov	fp,sp
 2000214:	00810034 	movhi	r2,1024
 2000218:	10882c04 	addi	r2,r2,8368
 200021c:	10800037 	ldwio	r2,0(r2)
 2000220:	d0a0490d 	sth	r2,-32476(gp)
 2000224:	00810034 	movhi	r2,1024
 2000228:	10883004 	addi	r2,r2,8384
 200022c:	10800037 	ldwio	r2,0(r2)
 2000230:	d0a0730d 	sth	r2,-32308(gp)
 2000234:	00810034 	movhi	r2,1024
 2000238:	10883404 	addi	r2,r2,8400
 200023c:	10800037 	ldwio	r2,0(r2)
 2000240:	d0a0260d 	sth	r2,-32616(gp)
 2000244:	00810034 	movhi	r2,1024
 2000248:	10884404 	addi	r2,r2,8464
 200024c:	10800037 	ldwio	r2,0(r2)
 2000250:	d0a03d0d 	sth	r2,-32524(gp)
 2000254:	00810034 	movhi	r2,1024
 2000258:	10884804 	addi	r2,r2,8480
 200025c:	10800037 	ldwio	r2,0(r2)
 2000260:	d0a0600d 	sth	r2,-32384(gp)
 2000264:	00810034 	movhi	r2,1024
 2000268:	10884c04 	addi	r2,r2,8496
 200026c:	10800037 	ldwio	r2,0(r2)
 2000270:	d0a0290d 	sth	r2,-32604(gp)
 2000274:	00810034 	movhi	r2,1024
 2000278:	10883804 	addi	r2,r2,8416
 200027c:	10800037 	ldwio	r2,0(r2)
 2000280:	d0a0540d 	sth	r2,-32432(gp)
 2000284:	00810034 	movhi	r2,1024
 2000288:	10883c04 	addi	r2,r2,8432
 200028c:	10800037 	ldwio	r2,0(r2)
 2000290:	d0a07b0d 	sth	r2,-32276(gp)
 2000294:	00810034 	movhi	r2,1024
 2000298:	10884004 	addi	r2,r2,8448
 200029c:	10800037 	ldwio	r2,0(r2)
 20002a0:	d0a0498d 	sth	r2,-32474(gp)
 20002a4:	d0a0490b 	ldhu	r2,-32476(gp)
 20002a8:	113fffcc 	andi	r4,r2,65535
 20002ac:	2120001c 	xori	r4,r4,32768
 20002b0:	21200004 	addi	r4,r4,-32768
 20002b4:	2008c700 	call	2008c70 <__floatsisf>
 20002b8:	1007883a 	mov	r3,r2
 20002bc:	008ee034 	movhi	r2,15232
 20002c0:	1885ff32 	custom	252,r2,r3,r2
 20002c4:	d0a07c15 	stw	r2,-32272(gp)
 20002c8:	d0a0730b 	ldhu	r2,-32308(gp)
 20002cc:	113fffcc 	andi	r4,r2,65535
 20002d0:	2120001c 	xori	r4,r4,32768
 20002d4:	21200004 	addi	r4,r4,-32768
 20002d8:	2008c700 	call	2008c70 <__floatsisf>
 20002dc:	1007883a 	mov	r3,r2
 20002e0:	008ee034 	movhi	r2,15232
 20002e4:	1885ff32 	custom	252,r2,r3,r2
 20002e8:	d0a04615 	stw	r2,-32488(gp)
 20002ec:	d0a0260b 	ldhu	r2,-32616(gp)
 20002f0:	113fffcc 	andi	r4,r2,65535
 20002f4:	2120001c 	xori	r4,r4,32768
 20002f8:	21200004 	addi	r4,r4,-32768
 20002fc:	2008c700 	call	2008c70 <__floatsisf>
 2000300:	1007883a 	mov	r3,r2
 2000304:	008ee034 	movhi	r2,15232
 2000308:	1885ff32 	custom	252,r2,r3,r2
 200030c:	d0a06815 	stw	r2,-32352(gp)
 2000310:	d0a03d0b 	ldhu	r2,-32524(gp)
 2000314:	113fffcc 	andi	r4,r2,65535
 2000318:	2120001c 	xori	r4,r4,32768
 200031c:	21200004 	addi	r4,r4,-32768
 2000320:	2008c700 	call	2008c70 <__floatsisf>
 2000324:	1007883a 	mov	r3,r2
 2000328:	008f63b4 	movhi	r2,15758
 200032c:	109e0d44 	addi	r2,r2,30773
 2000330:	1885ff32 	custom	252,r2,r3,r2
 2000334:	d0a05a15 	stw	r2,-32408(gp)
 2000338:	d0a0600b 	ldhu	r2,-32384(gp)
 200033c:	113fffcc 	andi	r4,r2,65535
 2000340:	2120001c 	xori	r4,r4,32768
 2000344:	21200004 	addi	r4,r4,-32768
 2000348:	2008c700 	call	2008c70 <__floatsisf>
 200034c:	1007883a 	mov	r3,r2
 2000350:	008f63b4 	movhi	r2,15758
 2000354:	109e0d44 	addi	r2,r2,30773
 2000358:	1885ff32 	custom	252,r2,r3,r2
 200035c:	d0a03e15 	stw	r2,-32520(gp)
 2000360:	d0a0290b 	ldhu	r2,-32604(gp)
 2000364:	113fffcc 	andi	r4,r2,65535
 2000368:	2120001c 	xori	r4,r4,32768
 200036c:	21200004 	addi	r4,r4,-32768
 2000370:	2008c700 	call	2008c70 <__floatsisf>
 2000374:	1007883a 	mov	r3,r2
 2000378:	008f63b4 	movhi	r2,15758
 200037c:	109e0d44 	addi	r2,r2,30773
 2000380:	1885ff32 	custom	252,r2,r3,r2
 2000384:	d0a06215 	stw	r2,-32376(gp)
 2000388:	d0a0540b 	ldhu	r2,-32432(gp)
 200038c:	113fffcc 	andi	r4,r2,65535
 2000390:	2120001c 	xori	r4,r4,32768
 2000394:	21200004 	addi	r4,r4,-32768
 2000398:	2008c700 	call	2008c70 <__floatsisf>
 200039c:	1007883a 	mov	r3,r2
 20003a0:	008e9c34 	movhi	r2,14960
 20003a4:	109ff104 	addi	r2,r2,32708
 20003a8:	1885ff32 	custom	252,r2,r3,r2
 20003ac:	d0a04b15 	stw	r2,-32468(gp)
 20003b0:	d0a07b0b 	ldhu	r2,-32276(gp)
 20003b4:	113fffcc 	andi	r4,r2,65535
 20003b8:	2120001c 	xori	r4,r4,32768
 20003bc:	21200004 	addi	r4,r4,-32768
 20003c0:	2008c700 	call	2008c70 <__floatsisf>
 20003c4:	1007883a 	mov	r3,r2
 20003c8:	008e9c34 	movhi	r2,14960
 20003cc:	109ff104 	addi	r2,r2,32708
 20003d0:	1885ff32 	custom	252,r2,r3,r2
 20003d4:	d0a07615 	stw	r2,-32296(gp)
 20003d8:	d0a0498b 	ldhu	r2,-32474(gp)
 20003dc:	113fffcc 	andi	r4,r2,65535
 20003e0:	2120001c 	xori	r4,r4,32768
 20003e4:	21200004 	addi	r4,r4,-32768
 20003e8:	2008c700 	call	2008c70 <__floatsisf>
 20003ec:	1007883a 	mov	r3,r2
 20003f0:	008e9c34 	movhi	r2,14960
 20003f4:	109ff104 	addi	r2,r2,32708
 20003f8:	1885ff32 	custom	252,r2,r3,r2
 20003fc:	d0a08415 	stw	r2,-32240(gp)
 2000400:	008fdf34 	movhi	r2,16252
 2000404:	1098fc44 	addi	r2,r2,25585
 2000408:	d0a08115 	stw	r2,-32252(gp)
 200040c:	00af1ab4 	movhi	r2,48234
 2000410:	1092a304 	addi	r2,r2,19084
 2000414:	d0a02f15 	stw	r2,-32580(gp)
 2000418:	008f0e34 	movhi	r2,15416
 200041c:	10a00d04 	addi	r2,r2,-32716
 2000420:	d0a02815 	stw	r2,-32608(gp)
 2000424:	00af2234 	movhi	r2,48264
 2000428:	10bf2e44 	addi	r2,r2,-839
 200042c:	d0a05615 	stw	r2,-32424(gp)
 2000430:	00afddb4 	movhi	r2,49014
 2000434:	10bdbf44 	addi	r2,r2,-2307
 2000438:	d0a07115 	stw	r2,-32316(gp)
 200043c:	00aee874 	movhi	r2,48033
 2000440:	10a40b84 	addi	r2,r2,-28626
 2000444:	d0a06515 	stw	r2,-32364(gp)
 2000448:	00aec5f4 	movhi	r2,47895
 200044c:	10aee644 	addi	r2,r2,-17511
 2000450:	d0a03615 	stw	r2,-32552(gp)
 2000454:	008f0f34 	movhi	r2,15420
 2000458:	109a9fc4 	addi	r2,r2,27263
 200045c:	d0a04d15 	stw	r2,-32460(gp)
 2000460:	008fe074 	movhi	r2,16257
 2000464:	10b61144 	addi	r2,r2,-10171
 2000468:	d0a02d15 	stw	r2,-32588(gp)
 200046c:	00af2874 	movhi	r2,48289
 2000470:	10987944 	addi	r2,r2,25061
 2000474:	d0a03715 	stw	r2,-32548(gp)
 2000478:	00aede74 	movhi	r2,47993
 200047c:	10825b04 	addi	r2,r2,2412
 2000480:	d0a03c15 	stw	r2,-32528(gp)
 2000484:	008f81b4 	movhi	r2,15878
 2000488:	10a1e504 	addi	r2,r2,-30828
 200048c:	d0a04715 	stw	r2,-32484(gp)
 2000490:	d0e08117 	ldw	r3,-32252(gp)
 2000494:	d0a07c17 	ldw	r2,-32272(gp)
 2000498:	1889ff32 	custom	252,r4,r3,r2
 200049c:	d0e05617 	ldw	r3,-32424(gp)
 20004a0:	d0a04617 	ldw	r2,-32488(gp)
 20004a4:	1885ff32 	custom	252,r2,r3,r2
 20004a8:	2089ff72 	custom	253,r4,r4,r2
 20004ac:	d0e03617 	ldw	r3,-32552(gp)
 20004b0:	d0a06817 	ldw	r2,-32352(gp)
 20004b4:	1885ff32 	custom	252,r2,r3,r2
 20004b8:	2087ff72 	custom	253,r3,r4,r2
 20004bc:	d0a03717 	ldw	r2,-32548(gp)
 20004c0:	1885ff72 	custom	253,r2,r3,r2
 20004c4:	d0a06d15 	stw	r2,-32332(gp)
 20004c8:	d0e02f17 	ldw	r3,-32580(gp)
 20004cc:	d0a07c17 	ldw	r2,-32272(gp)
 20004d0:	1889ff32 	custom	252,r4,r3,r2
 20004d4:	d0e07117 	ldw	r3,-32316(gp)
 20004d8:	d0a04617 	ldw	r2,-32488(gp)
 20004dc:	1885ff32 	custom	252,r2,r3,r2
 20004e0:	2089ff72 	custom	253,r4,r4,r2
 20004e4:	d0e04d17 	ldw	r3,-32460(gp)
 20004e8:	d0a06817 	ldw	r2,-32352(gp)
 20004ec:	1885ff32 	custom	252,r2,r3,r2
 20004f0:	2087ff72 	custom	253,r3,r4,r2
 20004f4:	d0a03c17 	ldw	r2,-32528(gp)
 20004f8:	1885ff72 	custom	253,r2,r3,r2
 20004fc:	d0a05b15 	stw	r2,-32404(gp)
 2000500:	d0e02817 	ldw	r3,-32608(gp)
 2000504:	d0a07c17 	ldw	r2,-32272(gp)
 2000508:	1889ff32 	custom	252,r4,r3,r2
 200050c:	d0e06517 	ldw	r3,-32364(gp)
 2000510:	d0a04617 	ldw	r2,-32488(gp)
 2000514:	1885ff32 	custom	252,r2,r3,r2
 2000518:	2089ff72 	custom	253,r4,r4,r2
 200051c:	d0e02d17 	ldw	r3,-32588(gp)
 2000520:	d0a06817 	ldw	r2,-32352(gp)
 2000524:	1885ff32 	custom	252,r2,r3,r2
 2000528:	2087ff72 	custom	253,r3,r4,r2
 200052c:	d0a04717 	ldw	r2,-32484(gp)
 2000530:	1885ff72 	custom	253,r2,r3,r2
 2000534:	d0a08815 	stw	r2,-32224(gp)
 2000538:	00b06c34 	movhi	r2,49584
 200053c:	d0a05715 	stw	r2,-32420(gp)
 2000540:	00b08434 	movhi	r2,49680
 2000544:	d0a08915 	stw	r2,-32220(gp)
 2000548:	00b0a134 	movhi	r2,49796
 200054c:	d0a08215 	stw	r2,-32248(gp)
 2000550:	d0e05717 	ldw	r3,-32420(gp)
 2000554:	00af63b4 	movhi	r2,48526
 2000558:	109e0d44 	addi	r2,r2,30773
 200055c:	1887ff32 	custom	252,r3,r3,r2
 2000560:	d0a05a17 	ldw	r2,-32408(gp)
 2000564:	1885ff72 	custom	253,r2,r3,r2
 2000568:	d0a05a15 	stw	r2,-32408(gp)
 200056c:	d0e08917 	ldw	r3,-32220(gp)
 2000570:	00af63b4 	movhi	r2,48526
 2000574:	109e0d44 	addi	r2,r2,30773
 2000578:	1887ff32 	custom	252,r3,r3,r2
 200057c:	d0a03e17 	ldw	r2,-32520(gp)
 2000580:	1885ff72 	custom	253,r2,r3,r2
 2000584:	d0a03e15 	stw	r2,-32520(gp)
 2000588:	d0e08217 	ldw	r3,-32248(gp)
 200058c:	00af63b4 	movhi	r2,48526
 2000590:	109e0d44 	addi	r2,r2,30773
 2000594:	1887ff32 	custom	252,r3,r3,r2
 2000598:	d0a06217 	ldw	r2,-32376(gp)
 200059c:	1885ff72 	custom	253,r2,r3,r2
 20005a0:	d0a06215 	stw	r2,-32376(gp)
 20005a4:	00afe0f4 	movhi	r2,49027
 20005a8:	10849bc4 	addi	r2,r2,4719
 20005ac:	d0a02415 	stw	r2,-32624(gp)
 20005b0:	008f58b4 	movhi	r2,15714
 20005b4:	10ac2284 	addi	r2,r2,-20342
 20005b8:	d0a07a15 	stw	r2,-32280(gp)
 20005bc:	00af2574 	movhi	r2,48277
 20005c0:	10860ac4 	addi	r2,r2,6187
 20005c4:	d0a04c15 	stw	r2,-32464(gp)
 20005c8:	008f2eb4 	movhi	r2,15546
 20005cc:	10bd5684 	addi	r2,r2,-2726
 20005d0:	d0a02715 	stw	r2,-32612(gp)
 20005d4:	008fe074 	movhi	r2,16257
 20005d8:	109d6384 	addi	r2,r2,30094
 20005dc:	d0a04f15 	stw	r2,-32452(gp)
 20005e0:	00aef074 	movhi	r2,48065
 20005e4:	10953284 	addi	r2,r2,21706
 20005e8:	d0a03a15 	stw	r2,-32536(gp)
 20005ec:	00af2ff4 	movhi	r2,48319
 20005f0:	10b7e904 	addi	r2,r2,-8284
 20005f4:	d0a05e15 	stw	r2,-32392(gp)
 20005f8:	008f40f4 	movhi	r2,15619
 20005fc:	10aa64c4 	addi	r2,r2,-22125
 2000600:	d0a02c15 	stw	r2,-32592(gp)
 2000604:	00afe074 	movhi	r2,49025
 2000608:	10953284 	addi	r2,r2,21706
 200060c:	d0a08015 	stw	r2,-32256(gp)
 2000610:	00afa874 	movhi	r2,48801
 2000614:	10aa9944 	addi	r2,r2,-21915
 2000618:	d0a04515 	stw	r2,-32492(gp)
 200061c:	00af77f4 	movhi	r2,48607
 2000620:	108ed904 	addi	r2,r2,15204
 2000624:	d0a07f15 	stw	r2,-32260(gp)
 2000628:	008fac34 	movhi	r2,16048
 200062c:	109205c4 	addi	r2,r2,18455
 2000630:	d0a07715 	stw	r2,-32292(gp)
 2000634:	d0e02417 	ldw	r3,-32624(gp)
 2000638:	d0a05a17 	ldw	r2,-32408(gp)
 200063c:	1889ff32 	custom	252,r4,r3,r2
 2000640:	d0e02717 	ldw	r3,-32612(gp)
 2000644:	d0a03e17 	ldw	r2,-32520(gp)
 2000648:	1885ff32 	custom	252,r2,r3,r2
 200064c:	2089ff72 	custom	253,r4,r4,r2
 2000650:	d0e05e17 	ldw	r3,-32392(gp)
 2000654:	d0a06217 	ldw	r2,-32376(gp)
 2000658:	1885ff32 	custom	252,r2,r3,r2
 200065c:	2087ff72 	custom	253,r3,r4,r2
 2000660:	d0a04517 	ldw	r2,-32492(gp)
 2000664:	1885ff72 	custom	253,r2,r3,r2
 2000668:	d0a07015 	stw	r2,-32320(gp)
 200066c:	d0e07a17 	ldw	r3,-32280(gp)
 2000670:	d0a05a17 	ldw	r2,-32408(gp)
 2000674:	1889ff32 	custom	252,r4,r3,r2
 2000678:	d0e04f17 	ldw	r3,-32452(gp)
 200067c:	d0a03e17 	ldw	r2,-32520(gp)
 2000680:	1885ff32 	custom	252,r2,r3,r2
 2000684:	2089ff72 	custom	253,r4,r4,r2
 2000688:	d0e02c17 	ldw	r3,-32592(gp)
 200068c:	d0a06217 	ldw	r2,-32376(gp)
 2000690:	1885ff32 	custom	252,r2,r3,r2
 2000694:	2087ff72 	custom	253,r3,r4,r2
 2000698:	d0a07f17 	ldw	r2,-32260(gp)
 200069c:	1885ff72 	custom	253,r2,r3,r2
 20006a0:	d0a06c15 	stw	r2,-32336(gp)
 20006a4:	d0e04c17 	ldw	r3,-32464(gp)
 20006a8:	d0a05a17 	ldw	r2,-32408(gp)
 20006ac:	1889ff32 	custom	252,r4,r3,r2
 20006b0:	d0e03a17 	ldw	r3,-32536(gp)
 20006b4:	d0a03e17 	ldw	r2,-32520(gp)
 20006b8:	1885ff32 	custom	252,r2,r3,r2
 20006bc:	2089ff72 	custom	253,r4,r4,r2
 20006c0:	d0e08017 	ldw	r3,-32256(gp)
 20006c4:	d0a06217 	ldw	r2,-32376(gp)
 20006c8:	1885ff32 	custom	252,r2,r3,r2
 20006cc:	2087ff72 	custom	253,r3,r4,r2
 20006d0:	d0a07717 	ldw	r2,-32292(gp)
 20006d4:	1885ff72 	custom	253,r2,r3,r2
 20006d8:	d0a04815 	stw	r2,-32480(gp)
 20006dc:	d0a04b17 	ldw	r2,-32468(gp)
 20006e0:	10a0003c 	xorhi	r2,r2,32768
 20006e4:	d0a04b15 	stw	r2,-32468(gp)
 20006e8:	d0a08417 	ldw	r2,-32240(gp)
 20006ec:	10a0003c 	xorhi	r2,r2,32768
 20006f0:	d0a08415 	stw	r2,-32240(gp)
 20006f4:	d0a04b17 	ldw	r2,-32468(gp)
 20006f8:	1009883a 	mov	r4,r2
 20006fc:	014fa034 	movhi	r5,16000
 2000700:	20089940 	call	2008994 <__divsf3>
 2000704:	d0a04b15 	stw	r2,-32468(gp)
 2000708:	d0a07617 	ldw	r2,-32296(gp)
 200070c:	1009883a 	mov	r4,r2
 2000710:	014fa034 	movhi	r5,16000
 2000714:	20089940 	call	2008994 <__divsf3>
 2000718:	d0a07615 	stw	r2,-32296(gp)
 200071c:	d0a08417 	ldw	r2,-32240(gp)
 2000720:	1009883a 	mov	r4,r2
 2000724:	014fa034 	movhi	r5,16000
 2000728:	20089940 	call	2008994 <__divsf3>
 200072c:	d0a08415 	stw	r2,-32240(gp)
 2000730:	008f64f4 	movhi	r2,15763
 2000734:	1099e504 	addi	r2,r2,26516
 2000738:	d0a07815 	stw	r2,-32288(gp)
 200073c:	00afb4f4 	movhi	r2,48851
 2000740:	10be2f84 	addi	r2,r2,-1858
 2000744:	d0a05115 	stw	r2,-32444(gp)
 2000748:	00af7574 	movhi	r2,48597
 200074c:	10bd6404 	addi	r2,r2,-2672
 2000750:	d0a03015 	stw	r2,-32576(gp)
 2000754:	d0e04b17 	ldw	r3,-32468(gp)
 2000758:	d0a07817 	ldw	r2,-32288(gp)
 200075c:	1885ffb2 	custom	254,r2,r3,r2
 2000760:	d0a03315 	stw	r2,-32564(gp)
 2000764:	d0e07617 	ldw	r3,-32296(gp)
 2000768:	d0a05117 	ldw	r2,-32444(gp)
 200076c:	1885ffb2 	custom	254,r2,r3,r2
 2000770:	d0a05015 	stw	r2,-32448(gp)
 2000774:	d0e08417 	ldw	r3,-32240(gp)
 2000778:	d0a03017 	ldw	r2,-32576(gp)
 200077c:	1885ffb2 	custom	254,r2,r3,r2
 2000780:	d0a04e15 	stw	r2,-32456(gp)
 2000784:	008fdab4 	movhi	r2,16234
 2000788:	10ac9c04 	addi	r2,r2,-19856
 200078c:	d0a03b15 	stw	r2,-32532(gp)
 2000790:	008efc34 	movhi	r2,15344
 2000794:	1093ed04 	addi	r2,r2,20404
 2000798:	d0a08715 	stw	r2,-32228(gp)
 200079c:	008f2a74 	movhi	r2,15529
 20007a0:	1089eb04 	addi	r2,r2,10156
 20007a4:	d0a05515 	stw	r2,-32428(gp)
 20007a8:	008efc34 	movhi	r2,15344
 20007ac:	1093ed04 	addi	r2,r2,20404
 20007b0:	d0a02a15 	stw	r2,-32600(gp)
 20007b4:	008fdb34 	movhi	r2,16236
 20007b8:	10b51f04 	addi	r2,r2,-11140
 20007bc:	d0a02e15 	stw	r2,-32584(gp)
 20007c0:	008ef534 	movhi	r2,15316
 20007c4:	1094f544 	addi	r2,r2,21461
 20007c8:	d0a06b15 	stw	r2,-32340(gp)
 20007cc:	008f2a74 	movhi	r2,15529
 20007d0:	1089eb04 	addi	r2,r2,10156
 20007d4:	d0a06615 	stw	r2,-32360(gp)
 20007d8:	008ef534 	movhi	r2,15316
 20007dc:	1094f544 	addi	r2,r2,21461
 20007e0:	d0a04215 	stw	r2,-32504(gp)
 20007e4:	008fdff4 	movhi	r2,16255
 20007e8:	10a1a944 	addi	r2,r2,-31067
 20007ec:	d0a02b15 	stw	r2,-32596(gp)
 20007f0:	d0e03b17 	ldw	r3,-32532(gp)
 20007f4:	d0a03317 	ldw	r2,-32564(gp)
 20007f8:	1889ff32 	custom	252,r4,r3,r2
 20007fc:	d0e08717 	ldw	r3,-32228(gp)
 2000800:	d0a05017 	ldw	r2,-32448(gp)
 2000804:	1885ff32 	custom	252,r2,r3,r2
 2000808:	2089ff72 	custom	253,r4,r4,r2
 200080c:	d0e05517 	ldw	r3,-32428(gp)
 2000810:	d0a04e17 	ldw	r2,-32456(gp)
 2000814:	1885ff32 	custom	252,r2,r3,r2
 2000818:	2085ff72 	custom	253,r2,r4,r2
 200081c:	d0a06115 	stw	r2,-32380(gp)
 2000820:	d0e02a17 	ldw	r3,-32600(gp)
 2000824:	d0a03317 	ldw	r2,-32564(gp)
 2000828:	1889ff32 	custom	252,r4,r3,r2
 200082c:	d0e02e17 	ldw	r3,-32584(gp)
 2000830:	d0a05017 	ldw	r2,-32448(gp)
 2000834:	1885ff32 	custom	252,r2,r3,r2
 2000838:	2089ff72 	custom	253,r4,r4,r2
 200083c:	d0e06b17 	ldw	r3,-32340(gp)
 2000840:	d0a04e17 	ldw	r2,-32456(gp)
 2000844:	1885ff32 	custom	252,r2,r3,r2
 2000848:	2085ff72 	custom	253,r2,r4,r2
 200084c:	d0a07415 	stw	r2,-32304(gp)
 2000850:	d0e06617 	ldw	r3,-32360(gp)
 2000854:	d0a03317 	ldw	r2,-32564(gp)
 2000858:	1889ff32 	custom	252,r4,r3,r2
 200085c:	d0e04217 	ldw	r3,-32504(gp)
 2000860:	d0a05017 	ldw	r2,-32448(gp)
 2000864:	1885ff32 	custom	252,r2,r3,r2
 2000868:	2089ff72 	custom	253,r4,r4,r2
 200086c:	d0e02b17 	ldw	r3,-32596(gp)
 2000870:	d0a04e17 	ldw	r2,-32456(gp)
 2000874:	1885ff32 	custom	252,r2,r3,r2
 2000878:	2085ff72 	custom	253,r2,r4,r2
 200087c:	d0a07e15 	stw	r2,-32264(gp)
 2000880:	d0a01d17 	ldw	r2,-32652(gp)
 2000884:	1004c03a 	cmpne	r2,r2,zero
 2000888:	1000291e 	bne	r2,zero,2000930 <FiltroKalmanExtendido+0x734>
 200088c:	00c08074 	movhi	r3,513
 2000890:	18c19104 	addi	r3,r3,1604
 2000894:	008ea0f4 	movhi	r2,14979
 2000898:	10849bc4 	addi	r2,r2,4719
 200089c:	18800015 	stw	r2,0(r3)
 20008a0:	00c08074 	movhi	r3,513
 20008a4:	18c19104 	addi	r3,r3,1604
 20008a8:	008ea0f4 	movhi	r2,14979
 20008ac:	10849bc4 	addi	r2,r2,4719
 20008b0:	18800815 	stw	r2,32(r3)
 20008b4:	00c08074 	movhi	r3,513
 20008b8:	18c19104 	addi	r3,r3,1604
 20008bc:	008ea0f4 	movhi	r2,14979
 20008c0:	10849bc4 	addi	r2,r2,4719
 20008c4:	18801015 	stw	r2,64(r3)
 20008c8:	00c08074 	movhi	r3,513
 20008cc:	18c19104 	addi	r3,r3,1604
 20008d0:	008ea0f4 	movhi	r2,14979
 20008d4:	10849bc4 	addi	r2,r2,4719
 20008d8:	18801815 	stw	r2,96(r3)
 20008dc:	00c08074 	movhi	r3,513
 20008e0:	18c19104 	addi	r3,r3,1604
 20008e4:	008ea0f4 	movhi	r2,14979
 20008e8:	10849bc4 	addi	r2,r2,4719
 20008ec:	18802015 	stw	r2,128(r3)
 20008f0:	00c08074 	movhi	r3,513
 20008f4:	18c19104 	addi	r3,r3,1604
 20008f8:	008ea0f4 	movhi	r2,14979
 20008fc:	10849bc4 	addi	r2,r2,4719
 2000900:	18802815 	stw	r2,160(r3)
 2000904:	00c08074 	movhi	r3,513
 2000908:	18c19104 	addi	r3,r3,1604
 200090c:	008ea0f4 	movhi	r2,14979
 2000910:	10849bc4 	addi	r2,r2,4719
 2000914:	18803015 	stw	r2,192(r3)
 2000918:	00c08074 	movhi	r3,513
 200091c:	18c1c204 	addi	r3,r3,1800
 2000920:	008fe034 	movhi	r2,16256
 2000924:	18800015 	stw	r2,0(r3)
 2000928:	00800044 	movi	r2,1
 200092c:	d0a01d15 	stw	r2,-32652(gp)
 2000930:	00808074 	movhi	r2,513
 2000934:	1081c204 	addi	r2,r2,1800
 2000938:	10800017 	ldw	r2,0(r2)
 200093c:	d0a06415 	stw	r2,-32368(gp)
 2000940:	00808074 	movhi	r2,513
 2000944:	1081c204 	addi	r2,r2,1800
 2000948:	10800117 	ldw	r2,4(r2)
 200094c:	d0a03f15 	stw	r2,-32516(gp)
 2000950:	00808074 	movhi	r2,513
 2000954:	1081c204 	addi	r2,r2,1800
 2000958:	10800217 	ldw	r2,8(r2)
 200095c:	d0a06315 	stw	r2,-32372(gp)
 2000960:	00808074 	movhi	r2,513
 2000964:	1081c204 	addi	r2,r2,1800
 2000968:	10800317 	ldw	r2,12(r2)
 200096c:	d0a05915 	stw	r2,-32412(gp)
 2000970:	00808074 	movhi	r2,513
 2000974:	1081c204 	addi	r2,r2,1800
 2000978:	10800417 	ldw	r2,16(r2)
 200097c:	d0a03915 	stw	r2,-32540(gp)
 2000980:	00808074 	movhi	r2,513
 2000984:	1081c204 	addi	r2,r2,1800
 2000988:	10800517 	ldw	r2,20(r2)
 200098c:	d0a02315 	stw	r2,-32628(gp)
 2000990:	00808074 	movhi	r2,513
 2000994:	1081c204 	addi	r2,r2,1800
 2000998:	10800617 	ldw	r2,24(r2)
 200099c:	d0a04315 	stw	r2,-32500(gp)
 20009a0:	d0e07017 	ldw	r3,-32320(gp)
 20009a4:	008f23f4 	movhi	r2,15503
 20009a8:	10be8d44 	addi	r2,r2,-1483
 20009ac:	1885ff32 	custom	252,r2,r3,r2
 20009b0:	d0a03415 	stw	r2,-32560(gp)
 20009b4:	d0e06c17 	ldw	r3,-32336(gp)
 20009b8:	008f23f4 	movhi	r2,15503
 20009bc:	10be8d44 	addi	r2,r2,-1483
 20009c0:	1885ff32 	custom	252,r2,r3,r2
 20009c4:	d0a07d15 	stw	r2,-32268(gp)
 20009c8:	d0e04817 	ldw	r3,-32480(gp)
 20009cc:	008f23f4 	movhi	r2,15503
 20009d0:	10be8d44 	addi	r2,r2,-1483
 20009d4:	1885ff32 	custom	252,r2,r3,r2
 20009d8:	d0a02515 	stw	r2,-32620(gp)
 20009dc:	d0a03f17 	ldw	r2,-32516(gp)
 20009e0:	1120003c 	xorhi	r4,r2,32768
 20009e4:	d0e03417 	ldw	r3,-32560(gp)
 20009e8:	d0a03917 	ldw	r2,-32540(gp)
 20009ec:	1885ffb2 	custom	254,r2,r3,r2
 20009f0:	2089ff32 	custom	252,r4,r4,r2
 20009f4:	d0e07d17 	ldw	r3,-32268(gp)
 20009f8:	d0a02317 	ldw	r2,-32628(gp)
 20009fc:	1887ffb2 	custom	254,r3,r3,r2
 2000a00:	d0a06317 	ldw	r2,-32372(gp)
 2000a04:	1885ff32 	custom	252,r2,r3,r2
 2000a08:	2089ffb2 	custom	254,r4,r4,r2
 2000a0c:	d0e02517 	ldw	r3,-32620(gp)
 2000a10:	d0a04317 	ldw	r2,-32500(gp)
 2000a14:	1887ffb2 	custom	254,r3,r3,r2
 2000a18:	d0a05917 	ldw	r2,-32412(gp)
 2000a1c:	1885ff32 	custom	252,r2,r3,r2
 2000a20:	2087ffb2 	custom	254,r3,r4,r2
 2000a24:	008ed974 	movhi	r2,15205
 2000a28:	10981084 	addi	r2,r2,24642
 2000a2c:	1887ff32 	custom	252,r3,r3,r2
 2000a30:	d0a06417 	ldw	r2,-32368(gp)
 2000a34:	1887ff72 	custom	253,r3,r3,r2
 2000a38:	00808074 	movhi	r2,513
 2000a3c:	1081c204 	addi	r2,r2,1800
 2000a40:	10c00015 	stw	r3,0(r2)
 2000a44:	d0e03417 	ldw	r3,-32560(gp)
 2000a48:	d0a03917 	ldw	r2,-32540(gp)
 2000a4c:	1887ffb2 	custom	254,r3,r3,r2
 2000a50:	d0a06417 	ldw	r2,-32368(gp)
 2000a54:	1889ff32 	custom	252,r4,r3,r2
 2000a58:	d0e02517 	ldw	r3,-32620(gp)
 2000a5c:	d0a04317 	ldw	r2,-32500(gp)
 2000a60:	1887ffb2 	custom	254,r3,r3,r2
 2000a64:	d0a06317 	ldw	r2,-32372(gp)
 2000a68:	1885ff32 	custom	252,r2,r3,r2
 2000a6c:	2089ff72 	custom	253,r4,r4,r2
 2000a70:	d0e07d17 	ldw	r3,-32268(gp)
 2000a74:	d0a02317 	ldw	r2,-32628(gp)
 2000a78:	1887ffb2 	custom	254,r3,r3,r2
 2000a7c:	d0a05917 	ldw	r2,-32412(gp)
 2000a80:	1885ff32 	custom	252,r2,r3,r2
 2000a84:	2087ffb2 	custom	254,r3,r4,r2
 2000a88:	008ed974 	movhi	r2,15205
 2000a8c:	10981084 	addi	r2,r2,24642
 2000a90:	1887ff32 	custom	252,r3,r3,r2
 2000a94:	d0a03f17 	ldw	r2,-32516(gp)
 2000a98:	1887ff72 	custom	253,r3,r3,r2
 2000a9c:	00808074 	movhi	r2,513
 2000aa0:	1081c204 	addi	r2,r2,1800
 2000aa4:	10c00115 	stw	r3,4(r2)
 2000aa8:	d0e07d17 	ldw	r3,-32268(gp)
 2000aac:	d0a02317 	ldw	r2,-32628(gp)
 2000ab0:	1887ffb2 	custom	254,r3,r3,r2
 2000ab4:	d0a06417 	ldw	r2,-32368(gp)
 2000ab8:	1889ff32 	custom	252,r4,r3,r2
 2000abc:	d0e02517 	ldw	r3,-32620(gp)
 2000ac0:	d0a04317 	ldw	r2,-32500(gp)
 2000ac4:	1887ffb2 	custom	254,r3,r3,r2
 2000ac8:	d0a03f17 	ldw	r2,-32516(gp)
 2000acc:	1885ff32 	custom	252,r2,r3,r2
 2000ad0:	2089ffb2 	custom	254,r4,r4,r2
 2000ad4:	d0e03417 	ldw	r3,-32560(gp)
 2000ad8:	d0a03917 	ldw	r2,-32540(gp)
 2000adc:	1887ffb2 	custom	254,r3,r3,r2
 2000ae0:	d0a05917 	ldw	r2,-32412(gp)
 2000ae4:	1885ff32 	custom	252,r2,r3,r2
 2000ae8:	2087ff72 	custom	253,r3,r4,r2
 2000aec:	008ed974 	movhi	r2,15205
 2000af0:	10981084 	addi	r2,r2,24642
 2000af4:	1887ff32 	custom	252,r3,r3,r2
 2000af8:	d0a06317 	ldw	r2,-32372(gp)
 2000afc:	1887ff72 	custom	253,r3,r3,r2
 2000b00:	00808074 	movhi	r2,513
 2000b04:	1081c204 	addi	r2,r2,1800
 2000b08:	10c00215 	stw	r3,8(r2)
 2000b0c:	d0e02517 	ldw	r3,-32620(gp)
 2000b10:	d0a04317 	ldw	r2,-32500(gp)
 2000b14:	1887ffb2 	custom	254,r3,r3,r2
 2000b18:	d0a06417 	ldw	r2,-32368(gp)
 2000b1c:	1889ff32 	custom	252,r4,r3,r2
 2000b20:	d0e07d17 	ldw	r3,-32268(gp)
 2000b24:	d0a02317 	ldw	r2,-32628(gp)
 2000b28:	1887ffb2 	custom	254,r3,r3,r2
 2000b2c:	d0a03f17 	ldw	r2,-32516(gp)
 2000b30:	1885ff32 	custom	252,r2,r3,r2
 2000b34:	2089ff72 	custom	253,r4,r4,r2
 2000b38:	d0e03417 	ldw	r3,-32560(gp)
 2000b3c:	d0a03917 	ldw	r2,-32540(gp)
 2000b40:	1887ffb2 	custom	254,r3,r3,r2
 2000b44:	d0a06317 	ldw	r2,-32372(gp)
 2000b48:	1885ff32 	custom	252,r2,r3,r2
 2000b4c:	2087ffb2 	custom	254,r3,r4,r2
 2000b50:	008ed974 	movhi	r2,15205
 2000b54:	10981084 	addi	r2,r2,24642
 2000b58:	1887ff32 	custom	252,r3,r3,r2
 2000b5c:	d0a05917 	ldw	r2,-32412(gp)
 2000b60:	1887ff72 	custom	253,r3,r3,r2
 2000b64:	00808074 	movhi	r2,513
 2000b68:	1081c204 	addi	r2,r2,1800
 2000b6c:	10c00315 	stw	r3,12(r2)
 2000b70:	d0e03917 	ldw	r3,-32540(gp)
 2000b74:	00808074 	movhi	r2,513
 2000b78:	1081c204 	addi	r2,r2,1800
 2000b7c:	10c00415 	stw	r3,16(r2)
 2000b80:	d0e02317 	ldw	r3,-32628(gp)
 2000b84:	00808074 	movhi	r2,513
 2000b88:	1081c204 	addi	r2,r2,1800
 2000b8c:	10c00515 	stw	r3,20(r2)
 2000b90:	d0e04317 	ldw	r3,-32500(gp)
 2000b94:	00808074 	movhi	r2,513
 2000b98:	1081c204 	addi	r2,r2,1800
 2000b9c:	10c00615 	stw	r3,24(r2)
 2000ba0:	00808074 	movhi	r2,513
 2000ba4:	1081c204 	addi	r2,r2,1800
 2000ba8:	10c00017 	ldw	r3,0(r2)
 2000bac:	00808074 	movhi	r2,513
 2000bb0:	1081c204 	addi	r2,r2,1800
 2000bb4:	10800017 	ldw	r2,0(r2)
 2000bb8:	1889ff32 	custom	252,r4,r3,r2
 2000bbc:	00808074 	movhi	r2,513
 2000bc0:	1081c204 	addi	r2,r2,1800
 2000bc4:	10c00117 	ldw	r3,4(r2)
 2000bc8:	00808074 	movhi	r2,513
 2000bcc:	1081c204 	addi	r2,r2,1800
 2000bd0:	10800117 	ldw	r2,4(r2)
 2000bd4:	1885ff32 	custom	252,r2,r3,r2
 2000bd8:	2089ff72 	custom	253,r4,r4,r2
 2000bdc:	00808074 	movhi	r2,513
 2000be0:	1081c204 	addi	r2,r2,1800
 2000be4:	10c00217 	ldw	r3,8(r2)
 2000be8:	00808074 	movhi	r2,513
 2000bec:	1081c204 	addi	r2,r2,1800
 2000bf0:	10800217 	ldw	r2,8(r2)
 2000bf4:	1885ff32 	custom	252,r2,r3,r2
 2000bf8:	2089ff72 	custom	253,r4,r4,r2
 2000bfc:	00808074 	movhi	r2,513
 2000c00:	1081c204 	addi	r2,r2,1800
 2000c04:	10c00317 	ldw	r3,12(r2)
 2000c08:	00808074 	movhi	r2,513
 2000c0c:	1081c204 	addi	r2,r2,1800
 2000c10:	10800317 	ldw	r2,12(r2)
 2000c14:	1885ff32 	custom	252,r2,r3,r2
 2000c18:	2085ff72 	custom	253,r2,r4,r2
 2000c1c:	1009883a 	mov	r4,r2
 2000c20:	2008d9c0 	call	2008d9c <__extendsfdf2>
 2000c24:	100b883a 	mov	r5,r2
 2000c28:	180d883a 	mov	r6,r3
 2000c2c:	2809883a 	mov	r4,r5
 2000c30:	300b883a 	mov	r5,r6
 2000c34:	2004cd00 	call	2004cd0 <sqrt>
 2000c38:	100b883a 	mov	r5,r2
 2000c3c:	180d883a 	mov	r6,r3
 2000c40:	2809883a 	mov	r4,r5
 2000c44:	300b883a 	mov	r5,r6
 2000c48:	2009d380 	call	2009d38 <__truncdfsf2>
 2000c4c:	d0a06915 	stw	r2,-32348(gp)
 2000c50:	00808074 	movhi	r2,513
 2000c54:	1081c204 	addi	r2,r2,1800
 2000c58:	10800017 	ldw	r2,0(r2)
 2000c5c:	d0e06917 	ldw	r3,-32348(gp)
 2000c60:	1009883a 	mov	r4,r2
 2000c64:	180b883a 	mov	r5,r3
 2000c68:	20089940 	call	2008994 <__divsf3>
 2000c6c:	1007883a 	mov	r3,r2
 2000c70:	00808074 	movhi	r2,513
 2000c74:	1081c204 	addi	r2,r2,1800
 2000c78:	10c00015 	stw	r3,0(r2)
 2000c7c:	00808074 	movhi	r2,513
 2000c80:	1081c204 	addi	r2,r2,1800
 2000c84:	10800117 	ldw	r2,4(r2)
 2000c88:	d0e06917 	ldw	r3,-32348(gp)
 2000c8c:	1009883a 	mov	r4,r2
 2000c90:	180b883a 	mov	r5,r3
 2000c94:	20089940 	call	2008994 <__divsf3>
 2000c98:	1007883a 	mov	r3,r2
 2000c9c:	00808074 	movhi	r2,513
 2000ca0:	1081c204 	addi	r2,r2,1800
 2000ca4:	10c00115 	stw	r3,4(r2)
 2000ca8:	00808074 	movhi	r2,513
 2000cac:	1081c204 	addi	r2,r2,1800
 2000cb0:	10800217 	ldw	r2,8(r2)
 2000cb4:	d0e06917 	ldw	r3,-32348(gp)
 2000cb8:	1009883a 	mov	r4,r2
 2000cbc:	180b883a 	mov	r5,r3
 2000cc0:	20089940 	call	2008994 <__divsf3>
 2000cc4:	1007883a 	mov	r3,r2
 2000cc8:	00808074 	movhi	r2,513
 2000ccc:	1081c204 	addi	r2,r2,1800
 2000cd0:	10c00215 	stw	r3,8(r2)
 2000cd4:	00808074 	movhi	r2,513
 2000cd8:	1081c204 	addi	r2,r2,1800
 2000cdc:	10800317 	ldw	r2,12(r2)
 2000ce0:	d0e06917 	ldw	r3,-32348(gp)
 2000ce4:	1009883a 	mov	r4,r2
 2000ce8:	180b883a 	mov	r5,r3
 2000cec:	20089940 	call	2008994 <__divsf3>
 2000cf0:	1007883a 	mov	r3,r2
 2000cf4:	00808074 	movhi	r2,513
 2000cf8:	1081c204 	addi	r2,r2,1800
 2000cfc:	10c00315 	stw	r3,12(r2)
 2000d00:	00808074 	movhi	r2,513
 2000d04:	1081c204 	addi	r2,r2,1800
 2000d08:	10800017 	ldw	r2,0(r2)
 2000d0c:	d0a06415 	stw	r2,-32368(gp)
 2000d10:	00808074 	movhi	r2,513
 2000d14:	1081c204 	addi	r2,r2,1800
 2000d18:	10800117 	ldw	r2,4(r2)
 2000d1c:	d0a03f15 	stw	r2,-32516(gp)
 2000d20:	00808074 	movhi	r2,513
 2000d24:	1081c204 	addi	r2,r2,1800
 2000d28:	10800217 	ldw	r2,8(r2)
 2000d2c:	d0a06315 	stw	r2,-32372(gp)
 2000d30:	00808074 	movhi	r2,513
 2000d34:	1081c204 	addi	r2,r2,1800
 2000d38:	10800317 	ldw	r2,12(r2)
 2000d3c:	d0a05915 	stw	r2,-32412(gp)
 2000d40:	00c08074 	movhi	r3,513
 2000d44:	18c1c904 	addi	r3,r3,1828
 2000d48:	008fe034 	movhi	r2,16256
 2000d4c:	18800015 	stw	r2,0(r3)
 2000d50:	d0e03417 	ldw	r3,-32560(gp)
 2000d54:	d0a03917 	ldw	r2,-32540(gp)
 2000d58:	1887ffb2 	custom	254,r3,r3,r2
 2000d5c:	00aed974 	movhi	r2,47973
 2000d60:	10981084 	addi	r2,r2,24642
 2000d64:	1887ff32 	custom	252,r3,r3,r2
 2000d68:	00808074 	movhi	r2,513
 2000d6c:	1081c904 	addi	r2,r2,1828
 2000d70:	10c00115 	stw	r3,4(r2)
 2000d74:	d0e07d17 	ldw	r3,-32268(gp)
 2000d78:	d0a02317 	ldw	r2,-32628(gp)
 2000d7c:	1887ffb2 	custom	254,r3,r3,r2
 2000d80:	00aed974 	movhi	r2,47973
 2000d84:	10981084 	addi	r2,r2,24642
 2000d88:	1887ff32 	custom	252,r3,r3,r2
 2000d8c:	00808074 	movhi	r2,513
 2000d90:	1081c904 	addi	r2,r2,1828
 2000d94:	10c00215 	stw	r3,8(r2)
 2000d98:	d0e02517 	ldw	r3,-32620(gp)
 2000d9c:	d0a04317 	ldw	r2,-32500(gp)
 2000da0:	1887ffb2 	custom	254,r3,r3,r2
 2000da4:	00aed974 	movhi	r2,47973
 2000da8:	10981084 	addi	r2,r2,24642
 2000dac:	1887ff32 	custom	252,r3,r3,r2
 2000db0:	00808074 	movhi	r2,513
 2000db4:	1081c904 	addi	r2,r2,1828
 2000db8:	10c00315 	stw	r3,12(r2)
 2000dbc:	d0e03f17 	ldw	r3,-32516(gp)
 2000dc0:	008ed974 	movhi	r2,15205
 2000dc4:	10981084 	addi	r2,r2,24642
 2000dc8:	1887ff32 	custom	252,r3,r3,r2
 2000dcc:	00808074 	movhi	r2,513
 2000dd0:	1081c904 	addi	r2,r2,1828
 2000dd4:	10c00415 	stw	r3,16(r2)
 2000dd8:	d0e06317 	ldw	r3,-32372(gp)
 2000ddc:	008ed974 	movhi	r2,15205
 2000de0:	10981084 	addi	r2,r2,24642
 2000de4:	1887ff32 	custom	252,r3,r3,r2
 2000de8:	00808074 	movhi	r2,513
 2000dec:	1081c904 	addi	r2,r2,1828
 2000df0:	10c00515 	stw	r3,20(r2)
 2000df4:	d0e05917 	ldw	r3,-32412(gp)
 2000df8:	008ed974 	movhi	r2,15205
 2000dfc:	10981084 	addi	r2,r2,24642
 2000e00:	1887ff32 	custom	252,r3,r3,r2
 2000e04:	00808074 	movhi	r2,513
 2000e08:	1081c904 	addi	r2,r2,1828
 2000e0c:	10c00615 	stw	r3,24(r2)
 2000e10:	d0e03417 	ldw	r3,-32560(gp)
 2000e14:	d0a03917 	ldw	r2,-32540(gp)
 2000e18:	1887ffb2 	custom	254,r3,r3,r2
 2000e1c:	008ed974 	movhi	r2,15205
 2000e20:	10981084 	addi	r2,r2,24642
 2000e24:	1887ff32 	custom	252,r3,r3,r2
 2000e28:	00808074 	movhi	r2,513
 2000e2c:	1081c904 	addi	r2,r2,1828
 2000e30:	10c00715 	stw	r3,28(r2)
 2000e34:	00c08074 	movhi	r3,513
 2000e38:	18c1c904 	addi	r3,r3,1828
 2000e3c:	008fe034 	movhi	r2,16256
 2000e40:	18800815 	stw	r2,32(r3)
 2000e44:	d0e02517 	ldw	r3,-32620(gp)
 2000e48:	d0a04317 	ldw	r2,-32500(gp)
 2000e4c:	1887ffb2 	custom	254,r3,r3,r2
 2000e50:	008ed974 	movhi	r2,15205
 2000e54:	10981084 	addi	r2,r2,24642
 2000e58:	1887ff32 	custom	252,r3,r3,r2
 2000e5c:	00808074 	movhi	r2,513
 2000e60:	1081c904 	addi	r2,r2,1828
 2000e64:	10c00915 	stw	r3,36(r2)
 2000e68:	d0e07d17 	ldw	r3,-32268(gp)
 2000e6c:	d0a02317 	ldw	r2,-32628(gp)
 2000e70:	1887ffb2 	custom	254,r3,r3,r2
 2000e74:	00aed974 	movhi	r2,47973
 2000e78:	10981084 	addi	r2,r2,24642
 2000e7c:	1887ff32 	custom	252,r3,r3,r2
 2000e80:	00808074 	movhi	r2,513
 2000e84:	1081c904 	addi	r2,r2,1828
 2000e88:	10c00a15 	stw	r3,40(r2)
 2000e8c:	d0e06417 	ldw	r3,-32368(gp)
 2000e90:	00aed974 	movhi	r2,47973
 2000e94:	10981084 	addi	r2,r2,24642
 2000e98:	1887ff32 	custom	252,r3,r3,r2
 2000e9c:	00808074 	movhi	r2,513
 2000ea0:	1081c904 	addi	r2,r2,1828
 2000ea4:	10c00b15 	stw	r3,44(r2)
 2000ea8:	d0e05917 	ldw	r3,-32412(gp)
 2000eac:	008ed974 	movhi	r2,15205
 2000eb0:	10981084 	addi	r2,r2,24642
 2000eb4:	1887ff32 	custom	252,r3,r3,r2
 2000eb8:	00808074 	movhi	r2,513
 2000ebc:	1081c904 	addi	r2,r2,1828
 2000ec0:	10c00c15 	stw	r3,48(r2)
 2000ec4:	d0e06317 	ldw	r3,-32372(gp)
 2000ec8:	00aed974 	movhi	r2,47973
 2000ecc:	10981084 	addi	r2,r2,24642
 2000ed0:	1887ff32 	custom	252,r3,r3,r2
 2000ed4:	00808074 	movhi	r2,513
 2000ed8:	1081c904 	addi	r2,r2,1828
 2000edc:	10c00d15 	stw	r3,52(r2)
 2000ee0:	d0e07d17 	ldw	r3,-32268(gp)
 2000ee4:	d0a02317 	ldw	r2,-32628(gp)
 2000ee8:	1887ffb2 	custom	254,r3,r3,r2
 2000eec:	008ed974 	movhi	r2,15205
 2000ef0:	10981084 	addi	r2,r2,24642
 2000ef4:	1887ff32 	custom	252,r3,r3,r2
 2000ef8:	00808074 	movhi	r2,513
 2000efc:	1081c904 	addi	r2,r2,1828
 2000f00:	10c00e15 	stw	r3,56(r2)
 2000f04:	d0e02517 	ldw	r3,-32620(gp)
 2000f08:	d0a04317 	ldw	r2,-32500(gp)
 2000f0c:	1887ffb2 	custom	254,r3,r3,r2
 2000f10:	00aed974 	movhi	r2,47973
 2000f14:	10981084 	addi	r2,r2,24642
 2000f18:	1887ff32 	custom	252,r3,r3,r2
 2000f1c:	00808074 	movhi	r2,513
 2000f20:	1081c904 	addi	r2,r2,1828
 2000f24:	10c00f15 	stw	r3,60(r2)
 2000f28:	00c08074 	movhi	r3,513
 2000f2c:	18c1c904 	addi	r3,r3,1828
 2000f30:	008fe034 	movhi	r2,16256
 2000f34:	18801015 	stw	r2,64(r3)
 2000f38:	d0e03417 	ldw	r3,-32560(gp)
 2000f3c:	d0a03917 	ldw	r2,-32540(gp)
 2000f40:	1887ffb2 	custom	254,r3,r3,r2
 2000f44:	008ed974 	movhi	r2,15205
 2000f48:	10981084 	addi	r2,r2,24642
 2000f4c:	1887ff32 	custom	252,r3,r3,r2
 2000f50:	00808074 	movhi	r2,513
 2000f54:	1081c904 	addi	r2,r2,1828
 2000f58:	10c01115 	stw	r3,68(r2)
 2000f5c:	d0e05917 	ldw	r3,-32412(gp)
 2000f60:	00aed974 	movhi	r2,47973
 2000f64:	10981084 	addi	r2,r2,24642
 2000f68:	1887ff32 	custom	252,r3,r3,r2
 2000f6c:	00808074 	movhi	r2,513
 2000f70:	1081c904 	addi	r2,r2,1828
 2000f74:	10c01215 	stw	r3,72(r2)
 2000f78:	d0e06417 	ldw	r3,-32368(gp)
 2000f7c:	00aed974 	movhi	r2,47973
 2000f80:	10981084 	addi	r2,r2,24642
 2000f84:	1887ff32 	custom	252,r3,r3,r2
 2000f88:	00808074 	movhi	r2,513
 2000f8c:	1081c904 	addi	r2,r2,1828
 2000f90:	10c01315 	stw	r3,76(r2)
 2000f94:	d0e03f17 	ldw	r3,-32516(gp)
 2000f98:	008ed974 	movhi	r2,15205
 2000f9c:	10981084 	addi	r2,r2,24642
 2000fa0:	1887ff32 	custom	252,r3,r3,r2
 2000fa4:	00808074 	movhi	r2,513
 2000fa8:	1081c904 	addi	r2,r2,1828
 2000fac:	10c01415 	stw	r3,80(r2)
 2000fb0:	d0e02517 	ldw	r3,-32620(gp)
 2000fb4:	d0a04317 	ldw	r2,-32500(gp)
 2000fb8:	1887ffb2 	custom	254,r3,r3,r2
 2000fbc:	008ed974 	movhi	r2,15205
 2000fc0:	10981084 	addi	r2,r2,24642
 2000fc4:	1887ff32 	custom	252,r3,r3,r2
 2000fc8:	00808074 	movhi	r2,513
 2000fcc:	1081c904 	addi	r2,r2,1828
 2000fd0:	10c01515 	stw	r3,84(r2)
 2000fd4:	d0e07d17 	ldw	r3,-32268(gp)
 2000fd8:	d0a02317 	ldw	r2,-32628(gp)
 2000fdc:	1887ffb2 	custom	254,r3,r3,r2
 2000fe0:	008ed974 	movhi	r2,15205
 2000fe4:	10981084 	addi	r2,r2,24642
 2000fe8:	1887ff32 	custom	252,r3,r3,r2
 2000fec:	00808074 	movhi	r2,513
 2000ff0:	1081c904 	addi	r2,r2,1828
 2000ff4:	10c01615 	stw	r3,88(r2)
 2000ff8:	d0e03417 	ldw	r3,-32560(gp)
 2000ffc:	d0a03917 	ldw	r2,-32540(gp)
 2001000:	1887ffb2 	custom	254,r3,r3,r2
 2001004:	00aed974 	movhi	r2,47973
 2001008:	10981084 	addi	r2,r2,24642
 200100c:	1887ff32 	custom	252,r3,r3,r2
 2001010:	00808074 	movhi	r2,513
 2001014:	1081c904 	addi	r2,r2,1828
 2001018:	10c01715 	stw	r3,92(r2)
 200101c:	00c08074 	movhi	r3,513
 2001020:	18c1c904 	addi	r3,r3,1828
 2001024:	008fe034 	movhi	r2,16256
 2001028:	18801815 	stw	r2,96(r3)
 200102c:	d0e06317 	ldw	r3,-32372(gp)
 2001030:	008ed974 	movhi	r2,15205
 2001034:	10981084 	addi	r2,r2,24642
 2001038:	1887ff32 	custom	252,r3,r3,r2
 200103c:	00808074 	movhi	r2,513
 2001040:	1081c904 	addi	r2,r2,1828
 2001044:	10c01915 	stw	r3,100(r2)
 2001048:	d0e03f17 	ldw	r3,-32516(gp)
 200104c:	00aed974 	movhi	r2,47973
 2001050:	10981084 	addi	r2,r2,24642
 2001054:	1887ff32 	custom	252,r3,r3,r2
 2001058:	00808074 	movhi	r2,513
 200105c:	1081c904 	addi	r2,r2,1828
 2001060:	10c01a15 	stw	r3,104(r2)
 2001064:	d0e06417 	ldw	r3,-32368(gp)
 2001068:	00aed974 	movhi	r2,47973
 200106c:	10981084 	addi	r2,r2,24642
 2001070:	1887ff32 	custom	252,r3,r3,r2
 2001074:	00808074 	movhi	r2,513
 2001078:	1081c904 	addi	r2,r2,1828
 200107c:	10c01b15 	stw	r3,108(r2)
 2001080:	00808074 	movhi	r2,513
 2001084:	1081c904 	addi	r2,r2,1828
 2001088:	10001c15 	stw	zero,112(r2)
 200108c:	00808074 	movhi	r2,513
 2001090:	1081c904 	addi	r2,r2,1828
 2001094:	10001d15 	stw	zero,116(r2)
 2001098:	00808074 	movhi	r2,513
 200109c:	1081c904 	addi	r2,r2,1828
 20010a0:	10001e15 	stw	zero,120(r2)
 20010a4:	00808074 	movhi	r2,513
 20010a8:	1081c904 	addi	r2,r2,1828
 20010ac:	10001f15 	stw	zero,124(r2)
 20010b0:	00c08074 	movhi	r3,513
 20010b4:	18c1c904 	addi	r3,r3,1828
 20010b8:	008fe034 	movhi	r2,16256
 20010bc:	18802015 	stw	r2,128(r3)
 20010c0:	00808074 	movhi	r2,513
 20010c4:	1081c904 	addi	r2,r2,1828
 20010c8:	10002115 	stw	zero,132(r2)
 20010cc:	00808074 	movhi	r2,513
 20010d0:	1081c904 	addi	r2,r2,1828
 20010d4:	10002215 	stw	zero,136(r2)
 20010d8:	00808074 	movhi	r2,513
 20010dc:	1081c904 	addi	r2,r2,1828
 20010e0:	10002315 	stw	zero,140(r2)
 20010e4:	00808074 	movhi	r2,513
 20010e8:	1081c904 	addi	r2,r2,1828
 20010ec:	10002415 	stw	zero,144(r2)
 20010f0:	00808074 	movhi	r2,513
 20010f4:	1081c904 	addi	r2,r2,1828
 20010f8:	10002515 	stw	zero,148(r2)
 20010fc:	00808074 	movhi	r2,513
 2001100:	1081c904 	addi	r2,r2,1828
 2001104:	10002615 	stw	zero,152(r2)
 2001108:	00808074 	movhi	r2,513
 200110c:	1081c904 	addi	r2,r2,1828
 2001110:	10002715 	stw	zero,156(r2)
 2001114:	00c08074 	movhi	r3,513
 2001118:	18c1c904 	addi	r3,r3,1828
 200111c:	008fe034 	movhi	r2,16256
 2001120:	18802815 	stw	r2,160(r3)
 2001124:	00808074 	movhi	r2,513
 2001128:	1081c904 	addi	r2,r2,1828
 200112c:	10002915 	stw	zero,164(r2)
 2001130:	00808074 	movhi	r2,513
 2001134:	1081c904 	addi	r2,r2,1828
 2001138:	10002a15 	stw	zero,168(r2)
 200113c:	00808074 	movhi	r2,513
 2001140:	1081c904 	addi	r2,r2,1828
 2001144:	10002b15 	stw	zero,172(r2)
 2001148:	00808074 	movhi	r2,513
 200114c:	1081c904 	addi	r2,r2,1828
 2001150:	10002c15 	stw	zero,176(r2)
 2001154:	00808074 	movhi	r2,513
 2001158:	1081c904 	addi	r2,r2,1828
 200115c:	10002d15 	stw	zero,180(r2)
 2001160:	00808074 	movhi	r2,513
 2001164:	1081c904 	addi	r2,r2,1828
 2001168:	10002e15 	stw	zero,184(r2)
 200116c:	00808074 	movhi	r2,513
 2001170:	1081c904 	addi	r2,r2,1828
 2001174:	10002f15 	stw	zero,188(r2)
 2001178:	00c08074 	movhi	r3,513
 200117c:	18c1c904 	addi	r3,r3,1828
 2001180:	008fe034 	movhi	r2,16256
 2001184:	18803015 	stw	r2,192(r3)
 2001188:	01008074 	movhi	r4,513
 200118c:	2101c904 	addi	r4,r4,1828
 2001190:	01408074 	movhi	r5,513
 2001194:	29419104 	addi	r5,r5,1604
 2001198:	01808074 	movhi	r6,513
 200119c:	3181fa04 	addi	r6,r6,2024
 20011a0:	2001d880 	call	2001d88 <M_7x7_7x7>
 20011a4:	01008074 	movhi	r4,513
 20011a8:	2101c904 	addi	r4,r4,1828
 20011ac:	01408074 	movhi	r5,513
 20011b0:	29422b04 	addi	r5,r5,2220
 20011b4:	2001fb40 	call	2001fb4 <transp_7x7>
 20011b8:	01008074 	movhi	r4,513
 20011bc:	2101fa04 	addi	r4,r4,2024
 20011c0:	01408074 	movhi	r5,513
 20011c4:	29422b04 	addi	r5,r5,2220
 20011c8:	01808074 	movhi	r6,513
 20011cc:	31825c04 	addi	r6,r6,2416
 20011d0:	2001d880 	call	2001d88 <M_7x7_7x7>
 20011d4:	01008074 	movhi	r4,513
 20011d8:	21025c04 	addi	r4,r4,2416
 20011dc:	01408074 	movhi	r5,513
 20011e0:	297a9504 	addi	r5,r5,-5548
 20011e4:	01808074 	movhi	r6,513
 20011e8:	31828d04 	addi	r6,r6,2612
 20011ec:	20020680 	call	2002068 <S_7x7>
 20011f0:	d0e06d17 	ldw	r3,-32332(gp)
 20011f4:	00808074 	movhi	r2,513
 20011f8:	1082be04 	addi	r2,r2,2808
 20011fc:	10c00015 	stw	r3,0(r2)
 2001200:	d0e05b17 	ldw	r3,-32404(gp)
 2001204:	00808074 	movhi	r2,513
 2001208:	1082be04 	addi	r2,r2,2808
 200120c:	10c00115 	stw	r3,4(r2)
 2001210:	d0e08817 	ldw	r3,-32224(gp)
 2001214:	00808074 	movhi	r2,513
 2001218:	1082be04 	addi	r2,r2,2808
 200121c:	10c00215 	stw	r3,8(r2)
 2001220:	00808074 	movhi	r2,513
 2001224:	1082be04 	addi	r2,r2,2808
 2001228:	10c00017 	ldw	r3,0(r2)
 200122c:	00808074 	movhi	r2,513
 2001230:	1082be04 	addi	r2,r2,2808
 2001234:	10800017 	ldw	r2,0(r2)
 2001238:	1889ff32 	custom	252,r4,r3,r2
 200123c:	00808074 	movhi	r2,513
 2001240:	1082be04 	addi	r2,r2,2808
 2001244:	10c00117 	ldw	r3,4(r2)
 2001248:	00808074 	movhi	r2,513
 200124c:	1082be04 	addi	r2,r2,2808
 2001250:	10800117 	ldw	r2,4(r2)
 2001254:	1885ff32 	custom	252,r2,r3,r2
 2001258:	2089ff72 	custom	253,r4,r4,r2
 200125c:	00808074 	movhi	r2,513
 2001260:	1082be04 	addi	r2,r2,2808
 2001264:	10c00217 	ldw	r3,8(r2)
 2001268:	00808074 	movhi	r2,513
 200126c:	1082be04 	addi	r2,r2,2808
 2001270:	10800217 	ldw	r2,8(r2)
 2001274:	1885ff32 	custom	252,r2,r3,r2
 2001278:	2085ff72 	custom	253,r2,r4,r2
 200127c:	1009883a 	mov	r4,r2
 2001280:	2008d9c0 	call	2008d9c <__extendsfdf2>
 2001284:	100b883a 	mov	r5,r2
 2001288:	180d883a 	mov	r6,r3
 200128c:	2809883a 	mov	r4,r5
 2001290:	300b883a 	mov	r5,r6
 2001294:	2004cd00 	call	2004cd0 <sqrt>
 2001298:	100b883a 	mov	r5,r2
 200129c:	180d883a 	mov	r6,r3
 20012a0:	2809883a 	mov	r4,r5
 20012a4:	300b883a 	mov	r5,r6
 20012a8:	2009d380 	call	2009d38 <__truncdfsf2>
 20012ac:	d0a06715 	stw	r2,-32356(gp)
 20012b0:	00808074 	movhi	r2,513
 20012b4:	1082be04 	addi	r2,r2,2808
 20012b8:	10800017 	ldw	r2,0(r2)
 20012bc:	d0e06717 	ldw	r3,-32356(gp)
 20012c0:	1009883a 	mov	r4,r2
 20012c4:	180b883a 	mov	r5,r3
 20012c8:	20089940 	call	2008994 <__divsf3>
 20012cc:	1007883a 	mov	r3,r2
 20012d0:	00808074 	movhi	r2,513
 20012d4:	1082be04 	addi	r2,r2,2808
 20012d8:	10c00015 	stw	r3,0(r2)
 20012dc:	00808074 	movhi	r2,513
 20012e0:	1082be04 	addi	r2,r2,2808
 20012e4:	10800117 	ldw	r2,4(r2)
 20012e8:	d0e06717 	ldw	r3,-32356(gp)
 20012ec:	1009883a 	mov	r4,r2
 20012f0:	180b883a 	mov	r5,r3
 20012f4:	20089940 	call	2008994 <__divsf3>
 20012f8:	1007883a 	mov	r3,r2
 20012fc:	00808074 	movhi	r2,513
 2001300:	1082be04 	addi	r2,r2,2808
 2001304:	10c00115 	stw	r3,4(r2)
 2001308:	00808074 	movhi	r2,513
 200130c:	1082be04 	addi	r2,r2,2808
 2001310:	10800217 	ldw	r2,8(r2)
 2001314:	d0e06717 	ldw	r3,-32356(gp)
 2001318:	1009883a 	mov	r4,r2
 200131c:	180b883a 	mov	r5,r3
 2001320:	20089940 	call	2008994 <__divsf3>
 2001324:	1007883a 	mov	r3,r2
 2001328:	00808074 	movhi	r2,513
 200132c:	1082be04 	addi	r2,r2,2808
 2001330:	10c00215 	stw	r3,8(r2)
 2001334:	d0e03f17 	ldw	r3,-32516(gp)
 2001338:	d0a05917 	ldw	r2,-32412(gp)
 200133c:	1889ff32 	custom	252,r4,r3,r2
 2001340:	d0e06417 	ldw	r3,-32368(gp)
 2001344:	d0a06317 	ldw	r2,-32372(gp)
 2001348:	1885ff32 	custom	252,r2,r3,r2
 200134c:	2085ffb2 	custom	254,r2,r4,r2
 2001350:	1087ff72 	custom	253,r3,r2,r2
 2001354:	00808074 	movhi	r2,513
 2001358:	1082c104 	addi	r2,r2,2820
 200135c:	10c00015 	stw	r3,0(r2)
 2001360:	d0e06317 	ldw	r3,-32372(gp)
 2001364:	d0a05917 	ldw	r2,-32412(gp)
 2001368:	1889ff32 	custom	252,r4,r3,r2
 200136c:	d0e06417 	ldw	r3,-32368(gp)
 2001370:	d0a03f17 	ldw	r2,-32516(gp)
 2001374:	1885ff32 	custom	252,r2,r3,r2
 2001378:	2085ff72 	custom	253,r2,r4,r2
 200137c:	1087ff72 	custom	253,r3,r2,r2
 2001380:	00808074 	movhi	r2,513
 2001384:	1082c104 	addi	r2,r2,2820
 2001388:	10c00115 	stw	r3,4(r2)
 200138c:	d0e03f17 	ldw	r3,-32516(gp)
 2001390:	d0a03f17 	ldw	r2,-32516(gp)
 2001394:	1889ff32 	custom	252,r4,r3,r2
 2001398:	d0e06317 	ldw	r3,-32372(gp)
 200139c:	d0a06317 	ldw	r2,-32372(gp)
 20013a0:	1885ff32 	custom	252,r2,r3,r2
 20013a4:	2087ff72 	custom	253,r3,r4,r2
 20013a8:	00b00034 	movhi	r2,49152
 20013ac:	1887ff32 	custom	252,r3,r3,r2
 20013b0:	008fe034 	movhi	r2,16256
 20013b4:	1887ff72 	custom	253,r3,r3,r2
 20013b8:	00808074 	movhi	r2,513
 20013bc:	1082c104 	addi	r2,r2,2820
 20013c0:	10c00215 	stw	r3,8(r2)
 20013c4:	d0e06317 	ldw	r3,-32372(gp)
 20013c8:	00b00034 	movhi	r2,49152
 20013cc:	1887ff32 	custom	252,r3,r3,r2
 20013d0:	00808074 	movhi	r2,513
 20013d4:	1082c404 	addi	r2,r2,2832
 20013d8:	10c00015 	stw	r3,0(r2)
 20013dc:	d0a05917 	ldw	r2,-32412(gp)
 20013e0:	1087ff72 	custom	253,r3,r2,r2
 20013e4:	00808074 	movhi	r2,513
 20013e8:	1082c404 	addi	r2,r2,2832
 20013ec:	10c00115 	stw	r3,4(r2)
 20013f0:	d0e06417 	ldw	r3,-32368(gp)
 20013f4:	00b00034 	movhi	r2,49152
 20013f8:	1887ff32 	custom	252,r3,r3,r2
 20013fc:	00808074 	movhi	r2,513
 2001400:	1082c404 	addi	r2,r2,2832
 2001404:	10c00215 	stw	r3,8(r2)
 2001408:	d0a03f17 	ldw	r2,-32516(gp)
 200140c:	1087ff72 	custom	253,r3,r2,r2
 2001410:	00808074 	movhi	r2,513
 2001414:	1082c404 	addi	r2,r2,2832
 2001418:	10c00315 	stw	r3,12(r2)
 200141c:	00808074 	movhi	r2,513
 2001420:	1082c404 	addi	r2,r2,2832
 2001424:	10000415 	stw	zero,16(r2)
 2001428:	00808074 	movhi	r2,513
 200142c:	1082c404 	addi	r2,r2,2832
 2001430:	10000515 	stw	zero,20(r2)
 2001434:	00808074 	movhi	r2,513
 2001438:	1082c404 	addi	r2,r2,2832
 200143c:	10000615 	stw	zero,24(r2)
 2001440:	d0a03f17 	ldw	r2,-32516(gp)
 2001444:	1087ff72 	custom	253,r3,r2,r2
 2001448:	00808074 	movhi	r2,513
 200144c:	1082c404 	addi	r2,r2,2832
 2001450:	10c00715 	stw	r3,28(r2)
 2001454:	d0a06417 	ldw	r2,-32368(gp)
 2001458:	1087ff72 	custom	253,r3,r2,r2
 200145c:	00808074 	movhi	r2,513
 2001460:	1082c404 	addi	r2,r2,2832
 2001464:	10c00815 	stw	r3,32(r2)
 2001468:	d0a05917 	ldw	r2,-32412(gp)
 200146c:	1087ff72 	custom	253,r3,r2,r2
 2001470:	00808074 	movhi	r2,513
 2001474:	1082c404 	addi	r2,r2,2832
 2001478:	10c00915 	stw	r3,36(r2)
 200147c:	d0a06317 	ldw	r2,-32372(gp)
 2001480:	1087ff72 	custom	253,r3,r2,r2
 2001484:	00808074 	movhi	r2,513
 2001488:	1082c404 	addi	r2,r2,2832
 200148c:	10c00a15 	stw	r3,40(r2)
 2001490:	00808074 	movhi	r2,513
 2001494:	1082c404 	addi	r2,r2,2832
 2001498:	10000b15 	stw	zero,44(r2)
 200149c:	00808074 	movhi	r2,513
 20014a0:	1082c404 	addi	r2,r2,2832
 20014a4:	10000c15 	stw	zero,48(r2)
 20014a8:	00808074 	movhi	r2,513
 20014ac:	1082c404 	addi	r2,r2,2832
 20014b0:	10000d15 	stw	zero,52(r2)
 20014b4:	00808074 	movhi	r2,513
 20014b8:	1082c404 	addi	r2,r2,2832
 20014bc:	10000e15 	stw	zero,56(r2)
 20014c0:	d0e03f17 	ldw	r3,-32516(gp)
 20014c4:	00b02034 	movhi	r2,49280
 20014c8:	1887ff32 	custom	252,r3,r3,r2
 20014cc:	00808074 	movhi	r2,513
 20014d0:	1082c404 	addi	r2,r2,2832
 20014d4:	10c00f15 	stw	r3,60(r2)
 20014d8:	d0e06317 	ldw	r3,-32372(gp)
 20014dc:	00b02034 	movhi	r2,49280
 20014e0:	1887ff32 	custom	252,r3,r3,r2
 20014e4:	00808074 	movhi	r2,513
 20014e8:	1082c404 	addi	r2,r2,2832
 20014ec:	10c01015 	stw	r3,64(r2)
 20014f0:	00808074 	movhi	r2,513
 20014f4:	1082c404 	addi	r2,r2,2832
 20014f8:	10001115 	stw	zero,68(r2)
 20014fc:	00808074 	movhi	r2,513
 2001500:	1082c404 	addi	r2,r2,2832
 2001504:	10001215 	stw	zero,72(r2)
 2001508:	00808074 	movhi	r2,513
 200150c:	1082c404 	addi	r2,r2,2832
 2001510:	10001315 	stw	zero,76(r2)
 2001514:	00808074 	movhi	r2,513
 2001518:	1082c404 	addi	r2,r2,2832
 200151c:	10001415 	stw	zero,80(r2)
 2001520:	d0201e15 	stw	zero,-32648(gp)
 2001524:	00001f06 	br	20015a4 <FiltroKalmanExtendido+0x13a8>
 2001528:	d0201f15 	stw	zero,-32644(gp)
 200152c:	00001706 	br	200158c <FiltroKalmanExtendido+0x1390>
 2001530:	d1601e17 	ldw	r5,-32648(gp)
 2001534:	d1a01f17 	ldw	r6,-32644(gp)
 2001538:	d0a01e17 	ldw	r2,-32648(gp)
 200153c:	d0e01f17 	ldw	r3,-32644(gp)
 2001540:	01008074 	movhi	r4,513
 2001544:	21028d04 	addi	r4,r4,2612
 2001548:	108001e4 	muli	r2,r2,7
 200154c:	10c5883a 	add	r2,r2,r3
 2001550:	1085883a 	add	r2,r2,r2
 2001554:	1085883a 	add	r2,r2,r2
 2001558:	1105883a 	add	r2,r2,r4
 200155c:	11000017 	ldw	r4,0(r2)
 2001560:	00c08074 	movhi	r3,513
 2001564:	18c19104 	addi	r3,r3,1604
 2001568:	288001e4 	muli	r2,r5,7
 200156c:	1185883a 	add	r2,r2,r6
 2001570:	1085883a 	add	r2,r2,r2
 2001574:	1085883a 	add	r2,r2,r2
 2001578:	10c5883a 	add	r2,r2,r3
 200157c:	11000015 	stw	r4,0(r2)
 2001580:	d0a01f17 	ldw	r2,-32644(gp)
 2001584:	10800044 	addi	r2,r2,1
 2001588:	d0a01f15 	stw	r2,-32644(gp)
 200158c:	d0a01f17 	ldw	r2,-32644(gp)
 2001590:	108001d0 	cmplti	r2,r2,7
 2001594:	103fe61e 	bne	r2,zero,2001530 <FiltroKalmanExtendido+0x1334>
 2001598:	d0a01e17 	ldw	r2,-32648(gp)
 200159c:	10800044 	addi	r2,r2,1
 20015a0:	d0a01e15 	stw	r2,-32648(gp)
 20015a4:	d0a01e17 	ldw	r2,-32648(gp)
 20015a8:	108001d0 	cmplti	r2,r2,7
 20015ac:	103fde1e 	bne	r2,zero,2001528 <FiltroKalmanExtendido+0x132c>
 20015b0:	d0202015 	stw	zero,-32640(gp)
 20015b4:	0000a106 	br	200183c <FiltroKalmanExtendido+0x1640>
 20015b8:	d0a02017 	ldw	r2,-32640(gp)
 20015bc:	00c08074 	movhi	r3,513
 20015c0:	18c2c404 	addi	r3,r3,2832
 20015c4:	10800724 	muli	r2,r2,28
 20015c8:	10c5883a 	add	r2,r2,r3
 20015cc:	10c00017 	ldw	r3,0(r2)
 20015d0:	00808074 	movhi	r2,513
 20015d4:	1082d904 	addi	r2,r2,2916
 20015d8:	10c00015 	stw	r3,0(r2)
 20015dc:	d0a02017 	ldw	r2,-32640(gp)
 20015e0:	00c08074 	movhi	r3,513
 20015e4:	18c2c404 	addi	r3,r3,2832
 20015e8:	10800724 	muli	r2,r2,28
 20015ec:	10c5883a 	add	r2,r2,r3
 20015f0:	10800104 	addi	r2,r2,4
 20015f4:	10c00017 	ldw	r3,0(r2)
 20015f8:	00808074 	movhi	r2,513
 20015fc:	1082d904 	addi	r2,r2,2916
 2001600:	10c00115 	stw	r3,4(r2)
 2001604:	d0a02017 	ldw	r2,-32640(gp)
 2001608:	00c08074 	movhi	r3,513
 200160c:	18c2c404 	addi	r3,r3,2832
 2001610:	10800724 	muli	r2,r2,28
 2001614:	10c5883a 	add	r2,r2,r3
 2001618:	10800204 	addi	r2,r2,8
 200161c:	10c00017 	ldw	r3,0(r2)
 2001620:	00808074 	movhi	r2,513
 2001624:	1082d904 	addi	r2,r2,2916
 2001628:	10c00215 	stw	r3,8(r2)
 200162c:	d0a02017 	ldw	r2,-32640(gp)
 2001630:	00c08074 	movhi	r3,513
 2001634:	18c2c404 	addi	r3,r3,2832
 2001638:	10800724 	muli	r2,r2,28
 200163c:	10c5883a 	add	r2,r2,r3
 2001640:	10800304 	addi	r2,r2,12
 2001644:	10c00017 	ldw	r3,0(r2)
 2001648:	00808074 	movhi	r2,513
 200164c:	1082d904 	addi	r2,r2,2916
 2001650:	10c00315 	stw	r3,12(r2)
 2001654:	d0a02017 	ldw	r2,-32640(gp)
 2001658:	00c08074 	movhi	r3,513
 200165c:	18c2c404 	addi	r3,r3,2832
 2001660:	10800724 	muli	r2,r2,28
 2001664:	10c5883a 	add	r2,r2,r3
 2001668:	10800404 	addi	r2,r2,16
 200166c:	10c00017 	ldw	r3,0(r2)
 2001670:	00808074 	movhi	r2,513
 2001674:	1082d904 	addi	r2,r2,2916
 2001678:	10c00415 	stw	r3,16(r2)
 200167c:	d0a02017 	ldw	r2,-32640(gp)
 2001680:	00c08074 	movhi	r3,513
 2001684:	18c2c404 	addi	r3,r3,2832
 2001688:	10800724 	muli	r2,r2,28
 200168c:	10c5883a 	add	r2,r2,r3
 2001690:	10800504 	addi	r2,r2,20
 2001694:	10c00017 	ldw	r3,0(r2)
 2001698:	00808074 	movhi	r2,513
 200169c:	1082d904 	addi	r2,r2,2916
 20016a0:	10c00515 	stw	r3,20(r2)
 20016a4:	d0a02017 	ldw	r2,-32640(gp)
 20016a8:	00c08074 	movhi	r3,513
 20016ac:	18c2c404 	addi	r3,r3,2832
 20016b0:	10800724 	muli	r2,r2,28
 20016b4:	10c5883a 	add	r2,r2,r3
 20016b8:	10800604 	addi	r2,r2,24
 20016bc:	10c00017 	ldw	r3,0(r2)
 20016c0:	00808074 	movhi	r2,513
 20016c4:	1082d904 	addi	r2,r2,2916
 20016c8:	10c00615 	stw	r3,24(r2)
 20016cc:	01008074 	movhi	r4,513
 20016d0:	2102d904 	addi	r4,r4,2916
 20016d4:	01408074 	movhi	r5,513
 20016d8:	2942e004 	addi	r5,r5,2944
 20016dc:	200237c0 	call	200237c <transp_1x7>
 20016e0:	01008074 	movhi	r4,513
 20016e4:	21019104 	addi	r4,r4,1604
 20016e8:	01408074 	movhi	r5,513
 20016ec:	2942e004 	addi	r5,r5,2944
 20016f0:	01808074 	movhi	r6,513
 20016f4:	3182e704 	addi	r6,r6,2972
 20016f8:	200214c0 	call	200214c <M_7x7_7x1>
 20016fc:	01008074 	movhi	r4,513
 2001700:	2102d904 	addi	r4,r4,2916
 2001704:	01408074 	movhi	r5,513
 2001708:	2942e704 	addi	r5,r5,2972
 200170c:	d1a02104 	addi	r6,gp,-32636
 2001710:	20024340 	call	2002434 <M_1x7_7x1>
 2001714:	d1a02117 	ldw	r6,-32636(gp)
 2001718:	d0e02017 	ldw	r3,-32640(gp)
 200171c:	d1202017 	ldw	r4,-32640(gp)
 2001720:	01408074 	movhi	r5,513
 2001724:	297ac604 	addi	r5,r5,-5352
 2001728:	1805883a 	mov	r2,r3
 200172c:	1085883a 	add	r2,r2,r2
 2001730:	10c5883a 	add	r2,r2,r3
 2001734:	1105883a 	add	r2,r2,r4
 2001738:	1085883a 	add	r2,r2,r2
 200173c:	1085883a 	add	r2,r2,r2
 2001740:	1145883a 	add	r2,r2,r5
 2001744:	10800017 	ldw	r2,0(r2)
 2001748:	3085ff72 	custom	253,r2,r6,r2
 200174c:	d0a08615 	stw	r2,-32232(gp)
 2001750:	d0a08617 	ldw	r2,-32232(gp)
 2001754:	01008074 	movhi	r4,513
 2001758:	2102e704 	addi	r4,r4,2972
 200175c:	100b883a 	mov	r5,r2
 2001760:	01808074 	movhi	r6,513
 2001764:	3182ee04 	addi	r6,r6,3000
 2001768:	20026640 	call	2002664 <D_7x1_scale>
 200176c:	d0a02017 	ldw	r2,-32640(gp)
 2001770:	00c08074 	movhi	r3,513
 2001774:	18c2be04 	addi	r3,r3,2808
 2001778:	1085883a 	add	r2,r2,r2
 200177c:	1085883a 	add	r2,r2,r2
 2001780:	10c5883a 	add	r2,r2,r3
 2001784:	11000017 	ldw	r4,0(r2)
 2001788:	d0a02017 	ldw	r2,-32640(gp)
 200178c:	00c08074 	movhi	r3,513
 2001790:	18c2c104 	addi	r3,r3,2820
 2001794:	1085883a 	add	r2,r2,r2
 2001798:	1085883a 	add	r2,r2,r2
 200179c:	10c5883a 	add	r2,r2,r3
 20017a0:	10800017 	ldw	r2,0(r2)
 20017a4:	2085ffb2 	custom	254,r2,r4,r2
 20017a8:	d0a08b15 	stw	r2,-32212(gp)
 20017ac:	d0a08b17 	ldw	r2,-32212(gp)
 20017b0:	01008074 	movhi	r4,513
 20017b4:	2102ee04 	addi	r4,r4,3000
 20017b8:	100b883a 	mov	r5,r2
 20017bc:	01808074 	movhi	r6,513
 20017c0:	3182f504 	addi	r6,r6,3028
 20017c4:	200273c0 	call	200273c <M_7x1_scale>
 20017c8:	01008074 	movhi	r4,513
 20017cc:	2101c204 	addi	r4,r4,1800
 20017d0:	01408074 	movhi	r5,513
 20017d4:	2942f504 	addi	r5,r5,3028
 20017d8:	01808074 	movhi	r6,513
 20017dc:	3181c204 	addi	r6,r6,1800
 20017e0:	20027f40 	call	20027f4 <S_7x1>
 20017e4:	01008074 	movhi	r4,513
 20017e8:	2102e704 	addi	r4,r4,2972
 20017ec:	01408074 	movhi	r5,513
 20017f0:	2942fc04 	addi	r5,r5,3056
 20017f4:	20028e40 	call	20028e4 <transp_7x1>
 20017f8:	01008074 	movhi	r4,513
 20017fc:	2102ee04 	addi	r4,r4,3000
 2001800:	01408074 	movhi	r5,513
 2001804:	2942fc04 	addi	r5,r5,3056
 2001808:	01808074 	movhi	r6,513
 200180c:	31830304 	addi	r6,r6,3084
 2001810:	200299c0 	call	200299c <M_7x1_1x7>
 2001814:	01008074 	movhi	r4,513
 2001818:	21019104 	addi	r4,r4,1604
 200181c:	01408074 	movhi	r5,513
 2001820:	29430304 	addi	r5,r5,3084
 2001824:	01808074 	movhi	r6,513
 2001828:	31819104 	addi	r6,r6,1604
 200182c:	2002a640 	call	2002a64 <R_7x7>
 2001830:	d0a02017 	ldw	r2,-32640(gp)
 2001834:	10800044 	addi	r2,r2,1
 2001838:	d0a02015 	stw	r2,-32640(gp)
 200183c:	d0a02017 	ldw	r2,-32640(gp)
 2001840:	108000d0 	cmplti	r2,r2,3
 2001844:	103f5c1e 	bne	r2,zero,20015b8 <FiltroKalmanExtendido+0x13bc>
 2001848:	00808074 	movhi	r2,513
 200184c:	1081c204 	addi	r2,r2,1800
 2001850:	10c00017 	ldw	r3,0(r2)
 2001854:	00808074 	movhi	r2,513
 2001858:	1081c204 	addi	r2,r2,1800
 200185c:	10800017 	ldw	r2,0(r2)
 2001860:	1889ff32 	custom	252,r4,r3,r2
 2001864:	00808074 	movhi	r2,513
 2001868:	1081c204 	addi	r2,r2,1800
 200186c:	10c00117 	ldw	r3,4(r2)
 2001870:	00808074 	movhi	r2,513
 2001874:	1081c204 	addi	r2,r2,1800
 2001878:	10800117 	ldw	r2,4(r2)
 200187c:	1885ff32 	custom	252,r2,r3,r2
 2001880:	2089ff72 	custom	253,r4,r4,r2
 2001884:	00808074 	movhi	r2,513
 2001888:	1081c204 	addi	r2,r2,1800
 200188c:	10c00217 	ldw	r3,8(r2)
 2001890:	00808074 	movhi	r2,513
 2001894:	1081c204 	addi	r2,r2,1800
 2001898:	10800217 	ldw	r2,8(r2)
 200189c:	1885ff32 	custom	252,r2,r3,r2
 20018a0:	2089ff72 	custom	253,r4,r4,r2
 20018a4:	00808074 	movhi	r2,513
 20018a8:	1081c204 	addi	r2,r2,1800
 20018ac:	10c00317 	ldw	r3,12(r2)
 20018b0:	00808074 	movhi	r2,513
 20018b4:	1081c204 	addi	r2,r2,1800
 20018b8:	10800317 	ldw	r2,12(r2)
 20018bc:	1885ff32 	custom	252,r2,r3,r2
 20018c0:	2085ff72 	custom	253,r2,r4,r2
 20018c4:	1009883a 	mov	r4,r2
 20018c8:	2008d9c0 	call	2008d9c <__extendsfdf2>
 20018cc:	100b883a 	mov	r5,r2
 20018d0:	180d883a 	mov	r6,r3
 20018d4:	2809883a 	mov	r4,r5
 20018d8:	300b883a 	mov	r5,r6
 20018dc:	2004cd00 	call	2004cd0 <sqrt>
 20018e0:	100b883a 	mov	r5,r2
 20018e4:	180d883a 	mov	r6,r3
 20018e8:	2809883a 	mov	r4,r5
 20018ec:	300b883a 	mov	r5,r6
 20018f0:	2009d380 	call	2009d38 <__truncdfsf2>
 20018f4:	d0a06915 	stw	r2,-32348(gp)
 20018f8:	00808074 	movhi	r2,513
 20018fc:	1081c204 	addi	r2,r2,1800
 2001900:	10800017 	ldw	r2,0(r2)
 2001904:	d0e06917 	ldw	r3,-32348(gp)
 2001908:	1009883a 	mov	r4,r2
 200190c:	180b883a 	mov	r5,r3
 2001910:	20089940 	call	2008994 <__divsf3>
 2001914:	1007883a 	mov	r3,r2
 2001918:	00808074 	movhi	r2,513
 200191c:	1081c204 	addi	r2,r2,1800
 2001920:	10c00015 	stw	r3,0(r2)
 2001924:	00808074 	movhi	r2,513
 2001928:	1081c204 	addi	r2,r2,1800
 200192c:	10800117 	ldw	r2,4(r2)
 2001930:	d0e06917 	ldw	r3,-32348(gp)
 2001934:	1009883a 	mov	r4,r2
 2001938:	180b883a 	mov	r5,r3
 200193c:	20089940 	call	2008994 <__divsf3>
 2001940:	1007883a 	mov	r3,r2
 2001944:	00808074 	movhi	r2,513
 2001948:	1081c204 	addi	r2,r2,1800
 200194c:	10c00115 	stw	r3,4(r2)
 2001950:	00808074 	movhi	r2,513
 2001954:	1081c204 	addi	r2,r2,1800
 2001958:	10800217 	ldw	r2,8(r2)
 200195c:	d0e06917 	ldw	r3,-32348(gp)
 2001960:	1009883a 	mov	r4,r2
 2001964:	180b883a 	mov	r5,r3
 2001968:	20089940 	call	2008994 <__divsf3>
 200196c:	1007883a 	mov	r3,r2
 2001970:	00808074 	movhi	r2,513
 2001974:	1081c204 	addi	r2,r2,1800
 2001978:	10c00215 	stw	r3,8(r2)
 200197c:	00808074 	movhi	r2,513
 2001980:	1081c204 	addi	r2,r2,1800
 2001984:	10800317 	ldw	r2,12(r2)
 2001988:	d0e06917 	ldw	r3,-32348(gp)
 200198c:	1009883a 	mov	r4,r2
 2001990:	180b883a 	mov	r5,r3
 2001994:	20089940 	call	2008994 <__divsf3>
 2001998:	1007883a 	mov	r3,r2
 200199c:	00808074 	movhi	r2,513
 20019a0:	1081c204 	addi	r2,r2,1800
 20019a4:	10c00315 	stw	r3,12(r2)
 20019a8:	00808074 	movhi	r2,513
 20019ac:	1081c204 	addi	r2,r2,1800
 20019b0:	10800017 	ldw	r2,0(r2)
 20019b4:	d0a06415 	stw	r2,-32368(gp)
 20019b8:	00808074 	movhi	r2,513
 20019bc:	1081c204 	addi	r2,r2,1800
 20019c0:	10800117 	ldw	r2,4(r2)
 20019c4:	d0a03f15 	stw	r2,-32516(gp)
 20019c8:	00808074 	movhi	r2,513
 20019cc:	1081c204 	addi	r2,r2,1800
 20019d0:	10800217 	ldw	r2,8(r2)
 20019d4:	d0a06315 	stw	r2,-32372(gp)
 20019d8:	00808074 	movhi	r2,513
 20019dc:	1081c204 	addi	r2,r2,1800
 20019e0:	10800317 	ldw	r2,12(r2)
 20019e4:	d0a05915 	stw	r2,-32412(gp)
 20019e8:	d0e06417 	ldw	r3,-32368(gp)
 20019ec:	d0a03f17 	ldw	r2,-32516(gp)
 20019f0:	1889ff32 	custom	252,r4,r3,r2
 20019f4:	d0e06317 	ldw	r3,-32372(gp)
 20019f8:	d0a05917 	ldw	r2,-32412(gp)
 20019fc:	1885ff32 	custom	252,r2,r3,r2
 2001a00:	2085ff72 	custom	253,r2,r4,r2
 2001a04:	1085ff72 	custom	253,r2,r2,r2
 2001a08:	1009883a 	mov	r4,r2
 2001a0c:	2008d9c0 	call	2008d9c <__extendsfdf2>
 2001a10:	1021883a 	mov	r16,r2
 2001a14:	1823883a 	mov	r17,r3
 2001a18:	d0e03f17 	ldw	r3,-32516(gp)
 2001a1c:	d0a03f17 	ldw	r2,-32516(gp)
 2001a20:	1889ff32 	custom	252,r4,r3,r2
 2001a24:	d0e06317 	ldw	r3,-32372(gp)
 2001a28:	d0a06317 	ldw	r2,-32372(gp)
 2001a2c:	1885ff32 	custom	252,r2,r3,r2
 2001a30:	2087ff72 	custom	253,r3,r4,r2
 2001a34:	00b00034 	movhi	r2,49152
 2001a38:	1887ff32 	custom	252,r3,r3,r2
 2001a3c:	008fe034 	movhi	r2,16256
 2001a40:	1885ff72 	custom	253,r2,r3,r2
 2001a44:	1009883a 	mov	r4,r2
 2001a48:	2008d9c0 	call	2008d9c <__extendsfdf2>
 2001a4c:	100f883a 	mov	r7,r2
 2001a50:	1811883a 	mov	r8,r3
 2001a54:	8009883a 	mov	r4,r16
 2001a58:	880b883a 	mov	r5,r17
 2001a5c:	380d883a 	mov	r6,r7
 2001a60:	400f883a 	mov	r7,r8
 2001a64:	2004ccc0 	call	2004ccc <atan2>
 2001a68:	100b883a 	mov	r5,r2
 2001a6c:	180d883a 	mov	r6,r3
 2001a70:	2809883a 	mov	r4,r5
 2001a74:	300b883a 	mov	r5,r6
 2001a78:	2009d380 	call	2009d38 <__truncdfsf2>
 2001a7c:	d0a05315 	stw	r2,-32436(gp)
 2001a80:	d0a03f17 	ldw	r2,-32516(gp)
 2001a84:	1087ff72 	custom	253,r3,r2,r2
 2001a88:	d0a05917 	ldw	r2,-32412(gp)
 2001a8c:	1889ff32 	custom	252,r4,r3,r2
 2001a90:	d0e06417 	ldw	r3,-32368(gp)
 2001a94:	00b00034 	movhi	r2,49152
 2001a98:	1887ff32 	custom	252,r3,r3,r2
 2001a9c:	d0a06317 	ldw	r2,-32372(gp)
 2001aa0:	1885ff32 	custom	252,r2,r3,r2
 2001aa4:	2085ff72 	custom	253,r2,r4,r2
 2001aa8:	1009883a 	mov	r4,r2
 2001aac:	2008d9c0 	call	2008d9c <__extendsfdf2>
 2001ab0:	100b883a 	mov	r5,r2
 2001ab4:	180d883a 	mov	r6,r3
 2001ab8:	2809883a 	mov	r4,r5
 2001abc:	300b883a 	mov	r5,r6
 2001ac0:	2004b9c0 	call	2004b9c <asin>
 2001ac4:	100b883a 	mov	r5,r2
 2001ac8:	180d883a 	mov	r6,r3
 2001acc:	2809883a 	mov	r4,r5
 2001ad0:	300b883a 	mov	r5,r6
 2001ad4:	2009d380 	call	2009d38 <__truncdfsf2>
 2001ad8:	10a0003c 	xorhi	r2,r2,32768
 2001adc:	d0a08515 	stw	r2,-32236(gp)
 2001ae0:	d0e03f17 	ldw	r3,-32516(gp)
 2001ae4:	d0a06317 	ldw	r2,-32372(gp)
 2001ae8:	1889ff32 	custom	252,r4,r3,r2
 2001aec:	d0e06417 	ldw	r3,-32368(gp)
 2001af0:	d0a05917 	ldw	r2,-32412(gp)
 2001af4:	1885ff32 	custom	252,r2,r3,r2
 2001af8:	2085ff72 	custom	253,r2,r4,r2
 2001afc:	1085ff72 	custom	253,r2,r2,r2
 2001b00:	1009883a 	mov	r4,r2
 2001b04:	2008d9c0 	call	2008d9c <__extendsfdf2>
 2001b08:	1021883a 	mov	r16,r2
 2001b0c:	1823883a 	mov	r17,r3
 2001b10:	d0e06317 	ldw	r3,-32372(gp)
 2001b14:	d0a06317 	ldw	r2,-32372(gp)
 2001b18:	1889ff32 	custom	252,r4,r3,r2
 2001b1c:	d0e05917 	ldw	r3,-32412(gp)
 2001b20:	d0a05917 	ldw	r2,-32412(gp)
 2001b24:	1885ff32 	custom	252,r2,r3,r2
 2001b28:	2087ff72 	custom	253,r3,r4,r2
 2001b2c:	00b00034 	movhi	r2,49152
 2001b30:	1887ff32 	custom	252,r3,r3,r2
 2001b34:	008fe034 	movhi	r2,16256
 2001b38:	1885ff72 	custom	253,r2,r3,r2
 2001b3c:	1009883a 	mov	r4,r2
 2001b40:	2008d9c0 	call	2008d9c <__extendsfdf2>
 2001b44:	100f883a 	mov	r7,r2
 2001b48:	1811883a 	mov	r8,r3
 2001b4c:	8009883a 	mov	r4,r16
 2001b50:	880b883a 	mov	r5,r17
 2001b54:	380d883a 	mov	r6,r7
 2001b58:	400f883a 	mov	r7,r8
 2001b5c:	2004ccc0 	call	2004ccc <atan2>
 2001b60:	100b883a 	mov	r5,r2
 2001b64:	180d883a 	mov	r6,r3
 2001b68:	2809883a 	mov	r4,r5
 2001b6c:	300b883a 	mov	r5,r6
 2001b70:	2009d380 	call	2009d38 <__truncdfsf2>
 2001b74:	d0a07215 	stw	r2,-32312(gp)
 2001b78:	d0e05317 	ldw	r3,-32436(gp)
 2001b7c:	00909974 	movhi	r2,16997
 2001b80:	108bb804 	addi	r2,r2,12000
 2001b84:	1885ff32 	custom	252,r2,r3,r2
 2001b88:	d0a06f15 	stw	r2,-32324(gp)
 2001b8c:	d0e08517 	ldw	r3,-32236(gp)
 2001b90:	00909974 	movhi	r2,16997
 2001b94:	108bb804 	addi	r2,r2,12000
 2001b98:	1885ff32 	custom	252,r2,r3,r2
 2001b9c:	d0a06e15 	stw	r2,-32328(gp)
 2001ba0:	d0e07217 	ldw	r3,-32312(gp)
 2001ba4:	00909974 	movhi	r2,16997
 2001ba8:	108bb804 	addi	r2,r2,12000
 2001bac:	1885ff32 	custom	252,r2,r3,r2
 2001bb0:	d0a06a15 	stw	r2,-32344(gp)
 2001bb4:	d0a05317 	ldw	r2,-32436(gp)
 2001bb8:	1009883a 	mov	r4,r2
 2001bbc:	2008d9c0 	call	2008d9c <__extendsfdf2>
 2001bc0:	100b883a 	mov	r5,r2
 2001bc4:	180d883a 	mov	r6,r3
 2001bc8:	2809883a 	mov	r4,r5
 2001bcc:	300b883a 	mov	r5,r6
 2001bd0:	200482c0 	call	200482c <cos>
 2001bd4:	100b883a 	mov	r5,r2
 2001bd8:	180d883a 	mov	r6,r3
 2001bdc:	2809883a 	mov	r4,r5
 2001be0:	300b883a 	mov	r5,r6
 2001be4:	2009d380 	call	2009d38 <__truncdfsf2>
 2001be8:	d0a08a15 	stw	r2,-32216(gp)
 2001bec:	d0a05317 	ldw	r2,-32436(gp)
 2001bf0:	1009883a 	mov	r4,r2
 2001bf4:	2008d9c0 	call	2008d9c <__extendsfdf2>
 2001bf8:	100b883a 	mov	r5,r2
 2001bfc:	180d883a 	mov	r6,r3
 2001c00:	2809883a 	mov	r4,r5
 2001c04:	300b883a 	mov	r5,r6
 2001c08:	20049940 	call	2004994 <sin>
 2001c0c:	100b883a 	mov	r5,r2
 2001c10:	180d883a 	mov	r6,r3
 2001c14:	2809883a 	mov	r4,r5
 2001c18:	300b883a 	mov	r5,r6
 2001c1c:	2009d380 	call	2009d38 <__truncdfsf2>
 2001c20:	d0a05f15 	stw	r2,-32388(gp)
 2001c24:	d0a08517 	ldw	r2,-32236(gp)
 2001c28:	1009883a 	mov	r4,r2
 2001c2c:	2008d9c0 	call	2008d9c <__extendsfdf2>
 2001c30:	100b883a 	mov	r5,r2
 2001c34:	180d883a 	mov	r6,r3
 2001c38:	2809883a 	mov	r4,r5
 2001c3c:	300b883a 	mov	r5,r6
 2001c40:	200482c0 	call	200482c <cos>
 2001c44:	100b883a 	mov	r5,r2
 2001c48:	180d883a 	mov	r6,r3
 2001c4c:	2809883a 	mov	r4,r5
 2001c50:	300b883a 	mov	r5,r6
 2001c54:	2009d380 	call	2009d38 <__truncdfsf2>
 2001c58:	d0a02215 	stw	r2,-32632(gp)
 2001c5c:	d0a08517 	ldw	r2,-32236(gp)
 2001c60:	1009883a 	mov	r4,r2
 2001c64:	2008d9c0 	call	2008d9c <__extendsfdf2>
 2001c68:	100b883a 	mov	r5,r2
 2001c6c:	180d883a 	mov	r6,r3
 2001c70:	2809883a 	mov	r4,r5
 2001c74:	300b883a 	mov	r5,r6
 2001c78:	20049940 	call	2004994 <sin>
 2001c7c:	100b883a 	mov	r5,r2
 2001c80:	180d883a 	mov	r6,r3
 2001c84:	2809883a 	mov	r4,r5
 2001c88:	300b883a 	mov	r5,r6
 2001c8c:	2009d380 	call	2009d38 <__truncdfsf2>
 2001c90:	d0a04415 	stw	r2,-32496(gp)
 2001c94:	d0e06117 	ldw	r3,-32380(gp)
 2001c98:	d0a02217 	ldw	r2,-32632(gp)
 2001c9c:	1889ff32 	custom	252,r4,r3,r2
 2001ca0:	d0e07417 	ldw	r3,-32304(gp)
 2001ca4:	d0a05f17 	ldw	r2,-32388(gp)
 2001ca8:	1887ff32 	custom	252,r3,r3,r2
 2001cac:	d0a04417 	ldw	r2,-32496(gp)
 2001cb0:	1885ff32 	custom	252,r2,r3,r2
 2001cb4:	2089ff72 	custom	253,r4,r4,r2
 2001cb8:	d0e07e17 	ldw	r3,-32264(gp)
 2001cbc:	d0a08a17 	ldw	r2,-32216(gp)
 2001cc0:	1887ff32 	custom	252,r3,r3,r2
 2001cc4:	d0a04417 	ldw	r2,-32496(gp)
 2001cc8:	1885ff32 	custom	252,r2,r3,r2
 2001ccc:	2085ff72 	custom	253,r2,r4,r2
 2001cd0:	d0a03515 	stw	r2,-32556(gp)
 2001cd4:	d0e07417 	ldw	r3,-32304(gp)
 2001cd8:	d0a08a17 	ldw	r2,-32216(gp)
 2001cdc:	1889ff32 	custom	252,r4,r3,r2
 2001ce0:	d0e07e17 	ldw	r3,-32264(gp)
 2001ce4:	d0a05f17 	ldw	r2,-32388(gp)
 2001ce8:	1885ff32 	custom	252,r2,r3,r2
 2001cec:	2085ffb2 	custom	254,r2,r4,r2
 2001cf0:	d0a04a15 	stw	r2,-32472(gp)
 2001cf4:	d0a04a17 	ldw	r2,-32472(gp)
 2001cf8:	10a0003c 	xorhi	r2,r2,32768
 2001cfc:	1009883a 	mov	r4,r2
 2001d00:	2008d9c0 	call	2008d9c <__extendsfdf2>
 2001d04:	1021883a 	mov	r16,r2
 2001d08:	1823883a 	mov	r17,r3
 2001d0c:	d0a03517 	ldw	r2,-32556(gp)
 2001d10:	1009883a 	mov	r4,r2
 2001d14:	2008d9c0 	call	2008d9c <__extendsfdf2>
 2001d18:	100f883a 	mov	r7,r2
 2001d1c:	1811883a 	mov	r8,r3
 2001d20:	8009883a 	mov	r4,r16
 2001d24:	880b883a 	mov	r5,r17
 2001d28:	380d883a 	mov	r6,r7
 2001d2c:	400f883a 	mov	r7,r8
 2001d30:	2004ccc0 	call	2004ccc <atan2>
 2001d34:	100b883a 	mov	r5,r2
 2001d38:	180d883a 	mov	r6,r3
 2001d3c:	2809883a 	mov	r4,r5
 2001d40:	300b883a 	mov	r5,r6
 2001d44:	2009d380 	call	2009d38 <__truncdfsf2>
 2001d48:	d0a07515 	stw	r2,-32300(gp)
 2001d4c:	d0e07517 	ldw	r3,-32300(gp)
 2001d50:	00909974 	movhi	r2,16997
 2001d54:	108bb804 	addi	r2,r2,12000
 2001d58:	1885ff32 	custom	252,r2,r3,r2
 2001d5c:	d0a08315 	stw	r2,-32244(gp)
 2001d60:	d0a02517 	ldw	r2,-32620(gp)
 2001d64:	10a0003c 	xorhi	r2,r2,32768
 2001d68:	d0a02515 	stw	r2,-32620(gp)
 2001d6c:	e037883a 	mov	sp,fp
 2001d70:	dfc00317 	ldw	ra,12(sp)
 2001d74:	df000217 	ldw	fp,8(sp)
 2001d78:	dc400117 	ldw	r17,4(sp)
 2001d7c:	dc000017 	ldw	r16,0(sp)
 2001d80:	dec00404 	addi	sp,sp,16
 2001d84:	f800283a 	ret

02001d88 <M_7x7_7x7>:
 2001d88:	defffc04 	addi	sp,sp,-16
 2001d8c:	df000315 	stw	fp,12(sp)
 2001d90:	df000304 	addi	fp,sp,12
 2001d94:	e13ffd15 	stw	r4,-12(fp)
 2001d98:	e17ffe15 	stw	r5,-8(fp)
 2001d9c:	e1bfff15 	stw	r6,-4(fp)
 2001da0:	d0201b15 	stw	zero,-32660(gp)
 2001da4:	00007c06 	br	2001f98 <M_7x7_7x7+0x210>
 2001da8:	d0201c15 	stw	zero,-32656(gp)
 2001dac:	00007406 	br	2001f80 <M_7x7_7x7+0x1f8>
 2001db0:	d0a01b17 	ldw	r2,-32660(gp)
 2001db4:	10800724 	muli	r2,r2,28
 2001db8:	1007883a 	mov	r3,r2
 2001dbc:	e0bfff17 	ldw	r2,-4(fp)
 2001dc0:	188b883a 	add	r5,r3,r2
 2001dc4:	d1a01c17 	ldw	r6,-32656(gp)
 2001dc8:	d0a01b17 	ldw	r2,-32660(gp)
 2001dcc:	10800724 	muli	r2,r2,28
 2001dd0:	1007883a 	mov	r3,r2
 2001dd4:	e0bffd17 	ldw	r2,-12(fp)
 2001dd8:	1885883a 	add	r2,r3,r2
 2001ddc:	11000017 	ldw	r4,0(r2)
 2001de0:	d0a01c17 	ldw	r2,-32656(gp)
 2001de4:	e0fffe17 	ldw	r3,-8(fp)
 2001de8:	1085883a 	add	r2,r2,r2
 2001dec:	1085883a 	add	r2,r2,r2
 2001df0:	10c5883a 	add	r2,r2,r3
 2001df4:	10800017 	ldw	r2,0(r2)
 2001df8:	208fff32 	custom	252,r7,r4,r2
 2001dfc:	d0a01b17 	ldw	r2,-32660(gp)
 2001e00:	10800724 	muli	r2,r2,28
 2001e04:	1007883a 	mov	r3,r2
 2001e08:	e0bffd17 	ldw	r2,-12(fp)
 2001e0c:	1885883a 	add	r2,r3,r2
 2001e10:	11000117 	ldw	r4,4(r2)
 2001e14:	e0bffe17 	ldw	r2,-8(fp)
 2001e18:	10c00704 	addi	r3,r2,28
 2001e1c:	d0a01c17 	ldw	r2,-32656(gp)
 2001e20:	1085883a 	add	r2,r2,r2
 2001e24:	1085883a 	add	r2,r2,r2
 2001e28:	10c5883a 	add	r2,r2,r3
 2001e2c:	10800017 	ldw	r2,0(r2)
 2001e30:	2085ff32 	custom	252,r2,r4,r2
 2001e34:	388fff72 	custom	253,r7,r7,r2
 2001e38:	d0a01b17 	ldw	r2,-32660(gp)
 2001e3c:	10800724 	muli	r2,r2,28
 2001e40:	1007883a 	mov	r3,r2
 2001e44:	e0bffd17 	ldw	r2,-12(fp)
 2001e48:	1885883a 	add	r2,r3,r2
 2001e4c:	11000217 	ldw	r4,8(r2)
 2001e50:	e0bffe17 	ldw	r2,-8(fp)
 2001e54:	10c00e04 	addi	r3,r2,56
 2001e58:	d0a01c17 	ldw	r2,-32656(gp)
 2001e5c:	1085883a 	add	r2,r2,r2
 2001e60:	1085883a 	add	r2,r2,r2
 2001e64:	10c5883a 	add	r2,r2,r3
 2001e68:	10800017 	ldw	r2,0(r2)
 2001e6c:	2085ff32 	custom	252,r2,r4,r2
 2001e70:	388fff72 	custom	253,r7,r7,r2
 2001e74:	d0a01b17 	ldw	r2,-32660(gp)
 2001e78:	10800724 	muli	r2,r2,28
 2001e7c:	1007883a 	mov	r3,r2
 2001e80:	e0bffd17 	ldw	r2,-12(fp)
 2001e84:	1885883a 	add	r2,r3,r2
 2001e88:	11000317 	ldw	r4,12(r2)
 2001e8c:	e0bffe17 	ldw	r2,-8(fp)
 2001e90:	10c01504 	addi	r3,r2,84
 2001e94:	d0a01c17 	ldw	r2,-32656(gp)
 2001e98:	1085883a 	add	r2,r2,r2
 2001e9c:	1085883a 	add	r2,r2,r2
 2001ea0:	10c5883a 	add	r2,r2,r3
 2001ea4:	10800017 	ldw	r2,0(r2)
 2001ea8:	2085ff32 	custom	252,r2,r4,r2
 2001eac:	388fff72 	custom	253,r7,r7,r2
 2001eb0:	d0a01b17 	ldw	r2,-32660(gp)
 2001eb4:	10800724 	muli	r2,r2,28
 2001eb8:	1007883a 	mov	r3,r2
 2001ebc:	e0bffd17 	ldw	r2,-12(fp)
 2001ec0:	1885883a 	add	r2,r3,r2
 2001ec4:	11000417 	ldw	r4,16(r2)
 2001ec8:	e0bffe17 	ldw	r2,-8(fp)
 2001ecc:	10c01c04 	addi	r3,r2,112
 2001ed0:	d0a01c17 	ldw	r2,-32656(gp)
 2001ed4:	1085883a 	add	r2,r2,r2
 2001ed8:	1085883a 	add	r2,r2,r2
 2001edc:	10c5883a 	add	r2,r2,r3
 2001ee0:	10800017 	ldw	r2,0(r2)
 2001ee4:	2085ff32 	custom	252,r2,r4,r2
 2001ee8:	388fff72 	custom	253,r7,r7,r2
 2001eec:	d0a01b17 	ldw	r2,-32660(gp)
 2001ef0:	10800724 	muli	r2,r2,28
 2001ef4:	1007883a 	mov	r3,r2
 2001ef8:	e0bffd17 	ldw	r2,-12(fp)
 2001efc:	1885883a 	add	r2,r3,r2
 2001f00:	11000517 	ldw	r4,20(r2)
 2001f04:	e0bffe17 	ldw	r2,-8(fp)
 2001f08:	10c02304 	addi	r3,r2,140
 2001f0c:	d0a01c17 	ldw	r2,-32656(gp)
 2001f10:	1085883a 	add	r2,r2,r2
 2001f14:	1085883a 	add	r2,r2,r2
 2001f18:	10c5883a 	add	r2,r2,r3
 2001f1c:	10800017 	ldw	r2,0(r2)
 2001f20:	2085ff32 	custom	252,r2,r4,r2
 2001f24:	388fff72 	custom	253,r7,r7,r2
 2001f28:	d0a01b17 	ldw	r2,-32660(gp)
 2001f2c:	10800724 	muli	r2,r2,28
 2001f30:	1007883a 	mov	r3,r2
 2001f34:	e0bffd17 	ldw	r2,-12(fp)
 2001f38:	1885883a 	add	r2,r3,r2
 2001f3c:	11000617 	ldw	r4,24(r2)
 2001f40:	e0bffe17 	ldw	r2,-8(fp)
 2001f44:	10c02a04 	addi	r3,r2,168
 2001f48:	d0a01c17 	ldw	r2,-32656(gp)
 2001f4c:	1085883a 	add	r2,r2,r2
 2001f50:	1085883a 	add	r2,r2,r2
 2001f54:	10c5883a 	add	r2,r2,r3
 2001f58:	10800017 	ldw	r2,0(r2)
 2001f5c:	2085ff32 	custom	252,r2,r4,r2
 2001f60:	3887ff72 	custom	253,r3,r7,r2
 2001f64:	3185883a 	add	r2,r6,r6
 2001f68:	1085883a 	add	r2,r2,r2
 2001f6c:	1145883a 	add	r2,r2,r5
 2001f70:	10c00015 	stw	r3,0(r2)
 2001f74:	d0a01c17 	ldw	r2,-32656(gp)
 2001f78:	10800044 	addi	r2,r2,1
 2001f7c:	d0a01c15 	stw	r2,-32656(gp)
 2001f80:	d0a01c17 	ldw	r2,-32656(gp)
 2001f84:	108001d0 	cmplti	r2,r2,7
 2001f88:	103f891e 	bne	r2,zero,2001db0 <M_7x7_7x7+0x28>
 2001f8c:	d0a01b17 	ldw	r2,-32660(gp)
 2001f90:	10800044 	addi	r2,r2,1
 2001f94:	d0a01b15 	stw	r2,-32660(gp)
 2001f98:	d0a01b17 	ldw	r2,-32660(gp)
 2001f9c:	108001d0 	cmplti	r2,r2,7
 2001fa0:	103f811e 	bne	r2,zero,2001da8 <M_7x7_7x7+0x20>
 2001fa4:	e037883a 	mov	sp,fp
 2001fa8:	df000017 	ldw	fp,0(sp)
 2001fac:	dec00104 	addi	sp,sp,4
 2001fb0:	f800283a 	ret

02001fb4 <transp_7x7>:
 2001fb4:	defffd04 	addi	sp,sp,-12
 2001fb8:	df000215 	stw	fp,8(sp)
 2001fbc:	df000204 	addi	fp,sp,8
 2001fc0:	e13ffe15 	stw	r4,-8(fp)
 2001fc4:	e17fff15 	stw	r5,-4(fp)
 2001fc8:	d0201b15 	stw	zero,-32660(gp)
 2001fcc:	00001f06 	br	200204c <transp_7x7+0x98>
 2001fd0:	d0201c15 	stw	zero,-32656(gp)
 2001fd4:	00001706 	br	2002034 <transp_7x7+0x80>
 2001fd8:	d0a01c17 	ldw	r2,-32656(gp)
 2001fdc:	10800724 	muli	r2,r2,28
 2001fe0:	1007883a 	mov	r3,r2
 2001fe4:	e0bfff17 	ldw	r2,-4(fp)
 2001fe8:	188b883a 	add	r5,r3,r2
 2001fec:	d1201b17 	ldw	r4,-32660(gp)
 2001ff0:	d0a01b17 	ldw	r2,-32660(gp)
 2001ff4:	10800724 	muli	r2,r2,28
 2001ff8:	1007883a 	mov	r3,r2
 2001ffc:	e0bffe17 	ldw	r2,-8(fp)
 2002000:	1887883a 	add	r3,r3,r2
 2002004:	d0a01c17 	ldw	r2,-32656(gp)
 2002008:	1085883a 	add	r2,r2,r2
 200200c:	1085883a 	add	r2,r2,r2
 2002010:	10c5883a 	add	r2,r2,r3
 2002014:	10c00017 	ldw	r3,0(r2)
 2002018:	2105883a 	add	r2,r4,r4
 200201c:	1085883a 	add	r2,r2,r2
 2002020:	1145883a 	add	r2,r2,r5
 2002024:	10c00015 	stw	r3,0(r2)
 2002028:	d0a01c17 	ldw	r2,-32656(gp)
 200202c:	10800044 	addi	r2,r2,1
 2002030:	d0a01c15 	stw	r2,-32656(gp)
 2002034:	d0a01c17 	ldw	r2,-32656(gp)
 2002038:	108001d0 	cmplti	r2,r2,7
 200203c:	103fe61e 	bne	r2,zero,2001fd8 <transp_7x7+0x24>
 2002040:	d0a01b17 	ldw	r2,-32660(gp)
 2002044:	10800044 	addi	r2,r2,1
 2002048:	d0a01b15 	stw	r2,-32660(gp)
 200204c:	d0a01b17 	ldw	r2,-32660(gp)
 2002050:	108001d0 	cmplti	r2,r2,7
 2002054:	103fde1e 	bne	r2,zero,2001fd0 <transp_7x7+0x1c>
 2002058:	e037883a 	mov	sp,fp
 200205c:	df000017 	ldw	fp,0(sp)
 2002060:	dec00104 	addi	sp,sp,4
 2002064:	f800283a 	ret

02002068 <S_7x7>:
 2002068:	defffc04 	addi	sp,sp,-16
 200206c:	df000315 	stw	fp,12(sp)
 2002070:	df000304 	addi	fp,sp,12
 2002074:	e13ffd15 	stw	r4,-12(fp)
 2002078:	e17ffe15 	stw	r5,-8(fp)
 200207c:	e1bfff15 	stw	r6,-4(fp)
 2002080:	d0201b15 	stw	zero,-32660(gp)
 2002084:	00002a06 	br	2002130 <S_7x7+0xc8>
 2002088:	d0201c15 	stw	zero,-32656(gp)
 200208c:	00002206 	br	2002118 <S_7x7+0xb0>
 2002090:	d0a01b17 	ldw	r2,-32660(gp)
 2002094:	10800724 	muli	r2,r2,28
 2002098:	1007883a 	mov	r3,r2
 200209c:	e0bfff17 	ldw	r2,-4(fp)
 20020a0:	1889883a 	add	r4,r3,r2
 20020a4:	d1601c17 	ldw	r5,-32656(gp)
 20020a8:	d0a01b17 	ldw	r2,-32660(gp)
 20020ac:	10800724 	muli	r2,r2,28
 20020b0:	1007883a 	mov	r3,r2
 20020b4:	e0bffd17 	ldw	r2,-12(fp)
 20020b8:	1887883a 	add	r3,r3,r2
 20020bc:	d0a01c17 	ldw	r2,-32656(gp)
 20020c0:	1085883a 	add	r2,r2,r2
 20020c4:	1085883a 	add	r2,r2,r2
 20020c8:	10c5883a 	add	r2,r2,r3
 20020cc:	11800017 	ldw	r6,0(r2)
 20020d0:	d0a01b17 	ldw	r2,-32660(gp)
 20020d4:	10800724 	muli	r2,r2,28
 20020d8:	1007883a 	mov	r3,r2
 20020dc:	e0bffe17 	ldw	r2,-8(fp)
 20020e0:	1887883a 	add	r3,r3,r2
 20020e4:	d0a01c17 	ldw	r2,-32656(gp)
 20020e8:	1085883a 	add	r2,r2,r2
 20020ec:	1085883a 	add	r2,r2,r2
 20020f0:	10c5883a 	add	r2,r2,r3
 20020f4:	10800017 	ldw	r2,0(r2)
 20020f8:	3087ff72 	custom	253,r3,r6,r2
 20020fc:	2945883a 	add	r2,r5,r5
 2002100:	1085883a 	add	r2,r2,r2
 2002104:	1105883a 	add	r2,r2,r4
 2002108:	10c00015 	stw	r3,0(r2)
 200210c:	d0a01c17 	ldw	r2,-32656(gp)
 2002110:	10800044 	addi	r2,r2,1
 2002114:	d0a01c15 	stw	r2,-32656(gp)
 2002118:	d0a01c17 	ldw	r2,-32656(gp)
 200211c:	108001d0 	cmplti	r2,r2,7
 2002120:	103fdb1e 	bne	r2,zero,2002090 <S_7x7+0x28>
 2002124:	d0a01b17 	ldw	r2,-32660(gp)
 2002128:	10800044 	addi	r2,r2,1
 200212c:	d0a01b15 	stw	r2,-32660(gp)
 2002130:	d0a01b17 	ldw	r2,-32660(gp)
 2002134:	108001d0 	cmplti	r2,r2,7
 2002138:	103fd31e 	bne	r2,zero,2002088 <S_7x7+0x20>
 200213c:	e037883a 	mov	sp,fp
 2002140:	df000017 	ldw	fp,0(sp)
 2002144:	dec00104 	addi	sp,sp,4
 2002148:	f800283a 	ret

0200214c <M_7x7_7x1>:
 200214c:	defffc04 	addi	sp,sp,-16
 2002150:	df000315 	stw	fp,12(sp)
 2002154:	df000304 	addi	fp,sp,12
 2002158:	e13ffd15 	stw	r4,-12(fp)
 200215c:	e17ffe15 	stw	r5,-8(fp)
 2002160:	e1bfff15 	stw	r6,-4(fp)
 2002164:	d0201b15 	stw	zero,-32660(gp)
 2002168:	00007d06 	br	2002360 <M_7x7_7x1+0x214>
 200216c:	d0201c15 	stw	zero,-32656(gp)
 2002170:	00007506 	br	2002348 <M_7x7_7x1+0x1fc>
 2002174:	d0a01b17 	ldw	r2,-32660(gp)
 2002178:	1085883a 	add	r2,r2,r2
 200217c:	1085883a 	add	r2,r2,r2
 2002180:	1007883a 	mov	r3,r2
 2002184:	e0bfff17 	ldw	r2,-4(fp)
 2002188:	188b883a 	add	r5,r3,r2
 200218c:	d1a01c17 	ldw	r6,-32656(gp)
 2002190:	d0a01b17 	ldw	r2,-32660(gp)
 2002194:	10800724 	muli	r2,r2,28
 2002198:	1007883a 	mov	r3,r2
 200219c:	e0bffd17 	ldw	r2,-12(fp)
 20021a0:	1885883a 	add	r2,r3,r2
 20021a4:	11000017 	ldw	r4,0(r2)
 20021a8:	d0a01c17 	ldw	r2,-32656(gp)
 20021ac:	e0fffe17 	ldw	r3,-8(fp)
 20021b0:	1085883a 	add	r2,r2,r2
 20021b4:	1085883a 	add	r2,r2,r2
 20021b8:	10c5883a 	add	r2,r2,r3
 20021bc:	10800017 	ldw	r2,0(r2)
 20021c0:	208fff32 	custom	252,r7,r4,r2
 20021c4:	d0a01b17 	ldw	r2,-32660(gp)
 20021c8:	10800724 	muli	r2,r2,28
 20021cc:	1007883a 	mov	r3,r2
 20021d0:	e0bffd17 	ldw	r2,-12(fp)
 20021d4:	1885883a 	add	r2,r3,r2
 20021d8:	11000117 	ldw	r4,4(r2)
 20021dc:	e0bffe17 	ldw	r2,-8(fp)
 20021e0:	10c00104 	addi	r3,r2,4
 20021e4:	d0a01c17 	ldw	r2,-32656(gp)
 20021e8:	1085883a 	add	r2,r2,r2
 20021ec:	1085883a 	add	r2,r2,r2
 20021f0:	10c5883a 	add	r2,r2,r3
 20021f4:	10800017 	ldw	r2,0(r2)
 20021f8:	2085ff32 	custom	252,r2,r4,r2
 20021fc:	388fff72 	custom	253,r7,r7,r2
 2002200:	d0a01b17 	ldw	r2,-32660(gp)
 2002204:	10800724 	muli	r2,r2,28
 2002208:	1007883a 	mov	r3,r2
 200220c:	e0bffd17 	ldw	r2,-12(fp)
 2002210:	1885883a 	add	r2,r3,r2
 2002214:	11000217 	ldw	r4,8(r2)
 2002218:	e0bffe17 	ldw	r2,-8(fp)
 200221c:	10c00204 	addi	r3,r2,8
 2002220:	d0a01c17 	ldw	r2,-32656(gp)
 2002224:	1085883a 	add	r2,r2,r2
 2002228:	1085883a 	add	r2,r2,r2
 200222c:	10c5883a 	add	r2,r2,r3
 2002230:	10800017 	ldw	r2,0(r2)
 2002234:	2085ff32 	custom	252,r2,r4,r2
 2002238:	388fff72 	custom	253,r7,r7,r2
 200223c:	d0a01b17 	ldw	r2,-32660(gp)
 2002240:	10800724 	muli	r2,r2,28
 2002244:	1007883a 	mov	r3,r2
 2002248:	e0bffd17 	ldw	r2,-12(fp)
 200224c:	1885883a 	add	r2,r3,r2
 2002250:	11000317 	ldw	r4,12(r2)
 2002254:	e0bffe17 	ldw	r2,-8(fp)
 2002258:	10c00304 	addi	r3,r2,12
 200225c:	d0a01c17 	ldw	r2,-32656(gp)
 2002260:	1085883a 	add	r2,r2,r2
 2002264:	1085883a 	add	r2,r2,r2
 2002268:	10c5883a 	add	r2,r2,r3
 200226c:	10800017 	ldw	r2,0(r2)
 2002270:	2085ff32 	custom	252,r2,r4,r2
 2002274:	388fff72 	custom	253,r7,r7,r2
 2002278:	d0a01b17 	ldw	r2,-32660(gp)
 200227c:	10800724 	muli	r2,r2,28
 2002280:	1007883a 	mov	r3,r2
 2002284:	e0bffd17 	ldw	r2,-12(fp)
 2002288:	1885883a 	add	r2,r3,r2
 200228c:	11000417 	ldw	r4,16(r2)
 2002290:	e0bffe17 	ldw	r2,-8(fp)
 2002294:	10c00404 	addi	r3,r2,16
 2002298:	d0a01c17 	ldw	r2,-32656(gp)
 200229c:	1085883a 	add	r2,r2,r2
 20022a0:	1085883a 	add	r2,r2,r2
 20022a4:	10c5883a 	add	r2,r2,r3
 20022a8:	10800017 	ldw	r2,0(r2)
 20022ac:	2085ff32 	custom	252,r2,r4,r2
 20022b0:	388fff72 	custom	253,r7,r7,r2
 20022b4:	d0a01b17 	ldw	r2,-32660(gp)
 20022b8:	10800724 	muli	r2,r2,28
 20022bc:	1007883a 	mov	r3,r2
 20022c0:	e0bffd17 	ldw	r2,-12(fp)
 20022c4:	1885883a 	add	r2,r3,r2
 20022c8:	11000517 	ldw	r4,20(r2)
 20022cc:	e0bffe17 	ldw	r2,-8(fp)
 20022d0:	10c00504 	addi	r3,r2,20
 20022d4:	d0a01c17 	ldw	r2,-32656(gp)
 20022d8:	1085883a 	add	r2,r2,r2
 20022dc:	1085883a 	add	r2,r2,r2
 20022e0:	10c5883a 	add	r2,r2,r3
 20022e4:	10800017 	ldw	r2,0(r2)
 20022e8:	2085ff32 	custom	252,r2,r4,r2
 20022ec:	388fff72 	custom	253,r7,r7,r2
 20022f0:	d0a01b17 	ldw	r2,-32660(gp)
 20022f4:	10800724 	muli	r2,r2,28
 20022f8:	1007883a 	mov	r3,r2
 20022fc:	e0bffd17 	ldw	r2,-12(fp)
 2002300:	1885883a 	add	r2,r3,r2
 2002304:	11000617 	ldw	r4,24(r2)
 2002308:	e0bffe17 	ldw	r2,-8(fp)
 200230c:	10c00604 	addi	r3,r2,24
 2002310:	d0a01c17 	ldw	r2,-32656(gp)
 2002314:	1085883a 	add	r2,r2,r2
 2002318:	1085883a 	add	r2,r2,r2
 200231c:	10c5883a 	add	r2,r2,r3
 2002320:	10800017 	ldw	r2,0(r2)
 2002324:	2085ff32 	custom	252,r2,r4,r2
 2002328:	3887ff72 	custom	253,r3,r7,r2
 200232c:	3185883a 	add	r2,r6,r6
 2002330:	1085883a 	add	r2,r2,r2
 2002334:	1145883a 	add	r2,r2,r5
 2002338:	10c00015 	stw	r3,0(r2)
 200233c:	d0a01c17 	ldw	r2,-32656(gp)
 2002340:	10800044 	addi	r2,r2,1
 2002344:	d0a01c15 	stw	r2,-32656(gp)
 2002348:	d0a01c17 	ldw	r2,-32656(gp)
 200234c:	10800050 	cmplti	r2,r2,1
 2002350:	103f881e 	bne	r2,zero,2002174 <M_7x7_7x1+0x28>
 2002354:	d0a01b17 	ldw	r2,-32660(gp)
 2002358:	10800044 	addi	r2,r2,1
 200235c:	d0a01b15 	stw	r2,-32660(gp)
 2002360:	d0a01b17 	ldw	r2,-32660(gp)
 2002364:	108001d0 	cmplti	r2,r2,7
 2002368:	103f801e 	bne	r2,zero,200216c <M_7x7_7x1+0x20>
 200236c:	e037883a 	mov	sp,fp
 2002370:	df000017 	ldw	fp,0(sp)
 2002374:	dec00104 	addi	sp,sp,4
 2002378:	f800283a 	ret

0200237c <transp_1x7>:
 200237c:	defffd04 	addi	sp,sp,-12
 2002380:	df000215 	stw	fp,8(sp)
 2002384:	df000204 	addi	fp,sp,8
 2002388:	e13ffe15 	stw	r4,-8(fp)
 200238c:	e17fff15 	stw	r5,-4(fp)
 2002390:	d0201b15 	stw	zero,-32660(gp)
 2002394:	00002006 	br	2002418 <transp_1x7+0x9c>
 2002398:	d0201c15 	stw	zero,-32656(gp)
 200239c:	00001806 	br	2002400 <transp_1x7+0x84>
 20023a0:	d0a01c17 	ldw	r2,-32656(gp)
 20023a4:	1085883a 	add	r2,r2,r2
 20023a8:	1085883a 	add	r2,r2,r2
 20023ac:	1007883a 	mov	r3,r2
 20023b0:	e0bfff17 	ldw	r2,-4(fp)
 20023b4:	188b883a 	add	r5,r3,r2
 20023b8:	d1201b17 	ldw	r4,-32660(gp)
 20023bc:	d0a01b17 	ldw	r2,-32660(gp)
 20023c0:	10800724 	muli	r2,r2,28
 20023c4:	1007883a 	mov	r3,r2
 20023c8:	e0bffe17 	ldw	r2,-8(fp)
 20023cc:	1887883a 	add	r3,r3,r2
 20023d0:	d0a01c17 	ldw	r2,-32656(gp)
 20023d4:	1085883a 	add	r2,r2,r2
 20023d8:	1085883a 	add	r2,r2,r2
 20023dc:	10c5883a 	add	r2,r2,r3
 20023e0:	10c00017 	ldw	r3,0(r2)
 20023e4:	2105883a 	add	r2,r4,r4
 20023e8:	1085883a 	add	r2,r2,r2
 20023ec:	1145883a 	add	r2,r2,r5
 20023f0:	10c00015 	stw	r3,0(r2)
 20023f4:	d0a01c17 	ldw	r2,-32656(gp)
 20023f8:	10800044 	addi	r2,r2,1
 20023fc:	d0a01c15 	stw	r2,-32656(gp)
 2002400:	d0a01c17 	ldw	r2,-32656(gp)
 2002404:	108001d0 	cmplti	r2,r2,7
 2002408:	103fe51e 	bne	r2,zero,20023a0 <transp_1x7+0x24>
 200240c:	d0a01b17 	ldw	r2,-32660(gp)
 2002410:	10800044 	addi	r2,r2,1
 2002414:	d0a01b15 	stw	r2,-32660(gp)
 2002418:	d0a01b17 	ldw	r2,-32660(gp)
 200241c:	10800050 	cmplti	r2,r2,1
 2002420:	103fdd1e 	bne	r2,zero,2002398 <transp_1x7+0x1c>
 2002424:	e037883a 	mov	sp,fp
 2002428:	df000017 	ldw	fp,0(sp)
 200242c:	dec00104 	addi	sp,sp,4
 2002430:	f800283a 	ret

02002434 <M_1x7_7x1>:
 2002434:	defffc04 	addi	sp,sp,-16
 2002438:	df000315 	stw	fp,12(sp)
 200243c:	df000304 	addi	fp,sp,12
 2002440:	e13ffd15 	stw	r4,-12(fp)
 2002444:	e17ffe15 	stw	r5,-8(fp)
 2002448:	e1bfff15 	stw	r6,-4(fp)
 200244c:	d0201b15 	stw	zero,-32660(gp)
 2002450:	00007d06 	br	2002648 <M_1x7_7x1+0x214>
 2002454:	d0201c15 	stw	zero,-32656(gp)
 2002458:	00007506 	br	2002630 <M_1x7_7x1+0x1fc>
 200245c:	d0a01b17 	ldw	r2,-32660(gp)
 2002460:	1085883a 	add	r2,r2,r2
 2002464:	1085883a 	add	r2,r2,r2
 2002468:	1007883a 	mov	r3,r2
 200246c:	e0bfff17 	ldw	r2,-4(fp)
 2002470:	188b883a 	add	r5,r3,r2
 2002474:	d1a01c17 	ldw	r6,-32656(gp)
 2002478:	d0a01b17 	ldw	r2,-32660(gp)
 200247c:	10800724 	muli	r2,r2,28
 2002480:	1007883a 	mov	r3,r2
 2002484:	e0bffd17 	ldw	r2,-12(fp)
 2002488:	1885883a 	add	r2,r3,r2
 200248c:	11000017 	ldw	r4,0(r2)
 2002490:	d0a01c17 	ldw	r2,-32656(gp)
 2002494:	e0fffe17 	ldw	r3,-8(fp)
 2002498:	1085883a 	add	r2,r2,r2
 200249c:	1085883a 	add	r2,r2,r2
 20024a0:	10c5883a 	add	r2,r2,r3
 20024a4:	10800017 	ldw	r2,0(r2)
 20024a8:	208fff32 	custom	252,r7,r4,r2
 20024ac:	d0a01b17 	ldw	r2,-32660(gp)
 20024b0:	10800724 	muli	r2,r2,28
 20024b4:	1007883a 	mov	r3,r2
 20024b8:	e0bffd17 	ldw	r2,-12(fp)
 20024bc:	1885883a 	add	r2,r3,r2
 20024c0:	11000117 	ldw	r4,4(r2)
 20024c4:	e0bffe17 	ldw	r2,-8(fp)
 20024c8:	10c00104 	addi	r3,r2,4
 20024cc:	d0a01c17 	ldw	r2,-32656(gp)
 20024d0:	1085883a 	add	r2,r2,r2
 20024d4:	1085883a 	add	r2,r2,r2
 20024d8:	10c5883a 	add	r2,r2,r3
 20024dc:	10800017 	ldw	r2,0(r2)
 20024e0:	2085ff32 	custom	252,r2,r4,r2
 20024e4:	388fff72 	custom	253,r7,r7,r2
 20024e8:	d0a01b17 	ldw	r2,-32660(gp)
 20024ec:	10800724 	muli	r2,r2,28
 20024f0:	1007883a 	mov	r3,r2
 20024f4:	e0bffd17 	ldw	r2,-12(fp)
 20024f8:	1885883a 	add	r2,r3,r2
 20024fc:	11000217 	ldw	r4,8(r2)
 2002500:	e0bffe17 	ldw	r2,-8(fp)
 2002504:	10c00204 	addi	r3,r2,8
 2002508:	d0a01c17 	ldw	r2,-32656(gp)
 200250c:	1085883a 	add	r2,r2,r2
 2002510:	1085883a 	add	r2,r2,r2
 2002514:	10c5883a 	add	r2,r2,r3
 2002518:	10800017 	ldw	r2,0(r2)
 200251c:	2085ff32 	custom	252,r2,r4,r2
 2002520:	388fff72 	custom	253,r7,r7,r2
 2002524:	d0a01b17 	ldw	r2,-32660(gp)
 2002528:	10800724 	muli	r2,r2,28
 200252c:	1007883a 	mov	r3,r2
 2002530:	e0bffd17 	ldw	r2,-12(fp)
 2002534:	1885883a 	add	r2,r3,r2
 2002538:	11000317 	ldw	r4,12(r2)
 200253c:	e0bffe17 	ldw	r2,-8(fp)
 2002540:	10c00304 	addi	r3,r2,12
 2002544:	d0a01c17 	ldw	r2,-32656(gp)
 2002548:	1085883a 	add	r2,r2,r2
 200254c:	1085883a 	add	r2,r2,r2
 2002550:	10c5883a 	add	r2,r2,r3
 2002554:	10800017 	ldw	r2,0(r2)
 2002558:	2085ff32 	custom	252,r2,r4,r2
 200255c:	388fff72 	custom	253,r7,r7,r2
 2002560:	d0a01b17 	ldw	r2,-32660(gp)
 2002564:	10800724 	muli	r2,r2,28
 2002568:	1007883a 	mov	r3,r2
 200256c:	e0bffd17 	ldw	r2,-12(fp)
 2002570:	1885883a 	add	r2,r3,r2
 2002574:	11000417 	ldw	r4,16(r2)
 2002578:	e0bffe17 	ldw	r2,-8(fp)
 200257c:	10c00404 	addi	r3,r2,16
 2002580:	d0a01c17 	ldw	r2,-32656(gp)
 2002584:	1085883a 	add	r2,r2,r2
 2002588:	1085883a 	add	r2,r2,r2
 200258c:	10c5883a 	add	r2,r2,r3
 2002590:	10800017 	ldw	r2,0(r2)
 2002594:	2085ff32 	custom	252,r2,r4,r2
 2002598:	388fff72 	custom	253,r7,r7,r2
 200259c:	d0a01b17 	ldw	r2,-32660(gp)
 20025a0:	10800724 	muli	r2,r2,28
 20025a4:	1007883a 	mov	r3,r2
 20025a8:	e0bffd17 	ldw	r2,-12(fp)
 20025ac:	1885883a 	add	r2,r3,r2
 20025b0:	11000517 	ldw	r4,20(r2)
 20025b4:	e0bffe17 	ldw	r2,-8(fp)
 20025b8:	10c00504 	addi	r3,r2,20
 20025bc:	d0a01c17 	ldw	r2,-32656(gp)
 20025c0:	1085883a 	add	r2,r2,r2
 20025c4:	1085883a 	add	r2,r2,r2
 20025c8:	10c5883a 	add	r2,r2,r3
 20025cc:	10800017 	ldw	r2,0(r2)
 20025d0:	2085ff32 	custom	252,r2,r4,r2
 20025d4:	388fff72 	custom	253,r7,r7,r2
 20025d8:	d0a01b17 	ldw	r2,-32660(gp)
 20025dc:	10800724 	muli	r2,r2,28
 20025e0:	1007883a 	mov	r3,r2
 20025e4:	e0bffd17 	ldw	r2,-12(fp)
 20025e8:	1885883a 	add	r2,r3,r2
 20025ec:	11000617 	ldw	r4,24(r2)
 20025f0:	e0bffe17 	ldw	r2,-8(fp)
 20025f4:	10c00604 	addi	r3,r2,24
 20025f8:	d0a01c17 	ldw	r2,-32656(gp)
 20025fc:	1085883a 	add	r2,r2,r2
 2002600:	1085883a 	add	r2,r2,r2
 2002604:	10c5883a 	add	r2,r2,r3
 2002608:	10800017 	ldw	r2,0(r2)
 200260c:	2085ff32 	custom	252,r2,r4,r2
 2002610:	3887ff72 	custom	253,r3,r7,r2
 2002614:	3185883a 	add	r2,r6,r6
 2002618:	1085883a 	add	r2,r2,r2
 200261c:	1145883a 	add	r2,r2,r5
 2002620:	10c00015 	stw	r3,0(r2)
 2002624:	d0a01c17 	ldw	r2,-32656(gp)
 2002628:	10800044 	addi	r2,r2,1
 200262c:	d0a01c15 	stw	r2,-32656(gp)
 2002630:	d0a01c17 	ldw	r2,-32656(gp)
 2002634:	10800050 	cmplti	r2,r2,1
 2002638:	103f881e 	bne	r2,zero,200245c <M_1x7_7x1+0x28>
 200263c:	d0a01b17 	ldw	r2,-32660(gp)
 2002640:	10800044 	addi	r2,r2,1
 2002644:	d0a01b15 	stw	r2,-32660(gp)
 2002648:	d0a01b17 	ldw	r2,-32660(gp)
 200264c:	10800050 	cmplti	r2,r2,1
 2002650:	103f801e 	bne	r2,zero,2002454 <M_1x7_7x1+0x20>
 2002654:	e037883a 	mov	sp,fp
 2002658:	df000017 	ldw	fp,0(sp)
 200265c:	dec00104 	addi	sp,sp,4
 2002660:	f800283a 	ret

02002664 <D_7x1_scale>:
 2002664:	defff904 	addi	sp,sp,-28
 2002668:	dfc00615 	stw	ra,24(sp)
 200266c:	df000515 	stw	fp,20(sp)
 2002670:	dc400415 	stw	r17,16(sp)
 2002674:	dc000315 	stw	r16,12(sp)
 2002678:	df000304 	addi	fp,sp,12
 200267c:	e13ffd15 	stw	r4,-12(fp)
 2002680:	e17ffe15 	stw	r5,-8(fp)
 2002684:	e1bfff15 	stw	r6,-4(fp)
 2002688:	d0201b15 	stw	zero,-32660(gp)
 200268c:	00002106 	br	2002714 <D_7x1_scale+0xb0>
 2002690:	d0201c15 	stw	zero,-32656(gp)
 2002694:	00001906 	br	20026fc <D_7x1_scale+0x98>
 2002698:	d0a01b17 	ldw	r2,-32660(gp)
 200269c:	1085883a 	add	r2,r2,r2
 20026a0:	1085883a 	add	r2,r2,r2
 20026a4:	1007883a 	mov	r3,r2
 20026a8:	e0bfff17 	ldw	r2,-4(fp)
 20026ac:	18a3883a 	add	r17,r3,r2
 20026b0:	d4201c17 	ldw	r16,-32656(gp)
 20026b4:	d0a01b17 	ldw	r2,-32660(gp)
 20026b8:	1085883a 	add	r2,r2,r2
 20026bc:	1085883a 	add	r2,r2,r2
 20026c0:	1007883a 	mov	r3,r2
 20026c4:	e0bffd17 	ldw	r2,-12(fp)
 20026c8:	1885883a 	add	r2,r3,r2
 20026cc:	10800017 	ldw	r2,0(r2)
 20026d0:	1009883a 	mov	r4,r2
 20026d4:	e17ffe17 	ldw	r5,-8(fp)
 20026d8:	20089940 	call	2008994 <__divsf3>
 20026dc:	1007883a 	mov	r3,r2
 20026e0:	8405883a 	add	r2,r16,r16
 20026e4:	1085883a 	add	r2,r2,r2
 20026e8:	1445883a 	add	r2,r2,r17
 20026ec:	10c00015 	stw	r3,0(r2)
 20026f0:	d0a01c17 	ldw	r2,-32656(gp)
 20026f4:	10800044 	addi	r2,r2,1
 20026f8:	d0a01c15 	stw	r2,-32656(gp)
 20026fc:	d0a01c17 	ldw	r2,-32656(gp)
 2002700:	10800050 	cmplti	r2,r2,1
 2002704:	103fe41e 	bne	r2,zero,2002698 <D_7x1_scale+0x34>
 2002708:	d0a01b17 	ldw	r2,-32660(gp)
 200270c:	10800044 	addi	r2,r2,1
 2002710:	d0a01b15 	stw	r2,-32660(gp)
 2002714:	d0a01b17 	ldw	r2,-32660(gp)
 2002718:	108001d0 	cmplti	r2,r2,7
 200271c:	103fdc1e 	bne	r2,zero,2002690 <D_7x1_scale+0x2c>
 2002720:	e037883a 	mov	sp,fp
 2002724:	dfc00317 	ldw	ra,12(sp)
 2002728:	df000217 	ldw	fp,8(sp)
 200272c:	dc400117 	ldw	r17,4(sp)
 2002730:	dc000017 	ldw	r16,0(sp)
 2002734:	dec00404 	addi	sp,sp,16
 2002738:	f800283a 	ret

0200273c <M_7x1_scale>:
 200273c:	defffc04 	addi	sp,sp,-16
 2002740:	df000315 	stw	fp,12(sp)
 2002744:	df000304 	addi	fp,sp,12
 2002748:	e13ffd15 	stw	r4,-12(fp)
 200274c:	e17ffe15 	stw	r5,-8(fp)
 2002750:	e1bfff15 	stw	r6,-4(fp)
 2002754:	d0201b15 	stw	zero,-32660(gp)
 2002758:	00001f06 	br	20027d8 <M_7x1_scale+0x9c>
 200275c:	d0201c15 	stw	zero,-32656(gp)
 2002760:	00001706 	br	20027c0 <M_7x1_scale+0x84>
 2002764:	d0a01b17 	ldw	r2,-32660(gp)
 2002768:	1085883a 	add	r2,r2,r2
 200276c:	1085883a 	add	r2,r2,r2
 2002770:	1007883a 	mov	r3,r2
 2002774:	e0bfff17 	ldw	r2,-4(fp)
 2002778:	188b883a 	add	r5,r3,r2
 200277c:	d1201c17 	ldw	r4,-32656(gp)
 2002780:	d0a01b17 	ldw	r2,-32660(gp)
 2002784:	1085883a 	add	r2,r2,r2
 2002788:	1085883a 	add	r2,r2,r2
 200278c:	1007883a 	mov	r3,r2
 2002790:	e0bffd17 	ldw	r2,-12(fp)
 2002794:	1885883a 	add	r2,r3,r2
 2002798:	10c00017 	ldw	r3,0(r2)
 200279c:	e0bffe17 	ldw	r2,-8(fp)
 20027a0:	1887ff32 	custom	252,r3,r3,r2
 20027a4:	2105883a 	add	r2,r4,r4
 20027a8:	1085883a 	add	r2,r2,r2
 20027ac:	1145883a 	add	r2,r2,r5
 20027b0:	10c00015 	stw	r3,0(r2)
 20027b4:	d0a01c17 	ldw	r2,-32656(gp)
 20027b8:	10800044 	addi	r2,r2,1
 20027bc:	d0a01c15 	stw	r2,-32656(gp)
 20027c0:	d0a01c17 	ldw	r2,-32656(gp)
 20027c4:	10800050 	cmplti	r2,r2,1
 20027c8:	103fe61e 	bne	r2,zero,2002764 <M_7x1_scale+0x28>
 20027cc:	d0a01b17 	ldw	r2,-32660(gp)
 20027d0:	10800044 	addi	r2,r2,1
 20027d4:	d0a01b15 	stw	r2,-32660(gp)
 20027d8:	d0a01b17 	ldw	r2,-32660(gp)
 20027dc:	108001d0 	cmplti	r2,r2,7
 20027e0:	103fde1e 	bne	r2,zero,200275c <M_7x1_scale+0x20>
 20027e4:	e037883a 	mov	sp,fp
 20027e8:	df000017 	ldw	fp,0(sp)
 20027ec:	dec00104 	addi	sp,sp,4
 20027f0:	f800283a 	ret

020027f4 <S_7x1>:
 20027f4:	defffc04 	addi	sp,sp,-16
 20027f8:	df000315 	stw	fp,12(sp)
 20027fc:	df000304 	addi	fp,sp,12
 2002800:	e13ffd15 	stw	r4,-12(fp)
 2002804:	e17ffe15 	stw	r5,-8(fp)
 2002808:	e1bfff15 	stw	r6,-4(fp)
 200280c:	d0201b15 	stw	zero,-32660(gp)
 2002810:	00002d06 	br	20028c8 <S_7x1+0xd4>
 2002814:	d0201c15 	stw	zero,-32656(gp)
 2002818:	00002506 	br	20028b0 <S_7x1+0xbc>
 200281c:	d0a01b17 	ldw	r2,-32660(gp)
 2002820:	1085883a 	add	r2,r2,r2
 2002824:	1085883a 	add	r2,r2,r2
 2002828:	1007883a 	mov	r3,r2
 200282c:	e0bfff17 	ldw	r2,-4(fp)
 2002830:	1889883a 	add	r4,r3,r2
 2002834:	d1601c17 	ldw	r5,-32656(gp)
 2002838:	d0a01b17 	ldw	r2,-32660(gp)
 200283c:	1085883a 	add	r2,r2,r2
 2002840:	1085883a 	add	r2,r2,r2
 2002844:	1007883a 	mov	r3,r2
 2002848:	e0bffd17 	ldw	r2,-12(fp)
 200284c:	1887883a 	add	r3,r3,r2
 2002850:	d0a01c17 	ldw	r2,-32656(gp)
 2002854:	1085883a 	add	r2,r2,r2
 2002858:	1085883a 	add	r2,r2,r2
 200285c:	10c5883a 	add	r2,r2,r3
 2002860:	11800017 	ldw	r6,0(r2)
 2002864:	d0a01b17 	ldw	r2,-32660(gp)
 2002868:	1085883a 	add	r2,r2,r2
 200286c:	1085883a 	add	r2,r2,r2
 2002870:	1007883a 	mov	r3,r2
 2002874:	e0bffe17 	ldw	r2,-8(fp)
 2002878:	1887883a 	add	r3,r3,r2
 200287c:	d0a01c17 	ldw	r2,-32656(gp)
 2002880:	1085883a 	add	r2,r2,r2
 2002884:	1085883a 	add	r2,r2,r2
 2002888:	10c5883a 	add	r2,r2,r3
 200288c:	10800017 	ldw	r2,0(r2)
 2002890:	3087ff72 	custom	253,r3,r6,r2
 2002894:	2945883a 	add	r2,r5,r5
 2002898:	1085883a 	add	r2,r2,r2
 200289c:	1105883a 	add	r2,r2,r4
 20028a0:	10c00015 	stw	r3,0(r2)
 20028a4:	d0a01c17 	ldw	r2,-32656(gp)
 20028a8:	10800044 	addi	r2,r2,1
 20028ac:	d0a01c15 	stw	r2,-32656(gp)
 20028b0:	d0a01c17 	ldw	r2,-32656(gp)
 20028b4:	10800050 	cmplti	r2,r2,1
 20028b8:	103fd81e 	bne	r2,zero,200281c <S_7x1+0x28>
 20028bc:	d0a01b17 	ldw	r2,-32660(gp)
 20028c0:	10800044 	addi	r2,r2,1
 20028c4:	d0a01b15 	stw	r2,-32660(gp)
 20028c8:	d0a01b17 	ldw	r2,-32660(gp)
 20028cc:	108001d0 	cmplti	r2,r2,7
 20028d0:	103fd01e 	bne	r2,zero,2002814 <S_7x1+0x20>
 20028d4:	e037883a 	mov	sp,fp
 20028d8:	df000017 	ldw	fp,0(sp)
 20028dc:	dec00104 	addi	sp,sp,4
 20028e0:	f800283a 	ret

020028e4 <transp_7x1>:
 20028e4:	defffd04 	addi	sp,sp,-12
 20028e8:	df000215 	stw	fp,8(sp)
 20028ec:	df000204 	addi	fp,sp,8
 20028f0:	e13ffe15 	stw	r4,-8(fp)
 20028f4:	e17fff15 	stw	r5,-4(fp)
 20028f8:	d0201b15 	stw	zero,-32660(gp)
 20028fc:	00002006 	br	2002980 <transp_7x1+0x9c>
 2002900:	d0201c15 	stw	zero,-32656(gp)
 2002904:	00001806 	br	2002968 <transp_7x1+0x84>
 2002908:	d0a01c17 	ldw	r2,-32656(gp)
 200290c:	10800724 	muli	r2,r2,28
 2002910:	1007883a 	mov	r3,r2
 2002914:	e0bfff17 	ldw	r2,-4(fp)
 2002918:	188b883a 	add	r5,r3,r2
 200291c:	d1201b17 	ldw	r4,-32660(gp)
 2002920:	d0a01b17 	ldw	r2,-32660(gp)
 2002924:	1085883a 	add	r2,r2,r2
 2002928:	1085883a 	add	r2,r2,r2
 200292c:	1007883a 	mov	r3,r2
 2002930:	e0bffe17 	ldw	r2,-8(fp)
 2002934:	1887883a 	add	r3,r3,r2
 2002938:	d0a01c17 	ldw	r2,-32656(gp)
 200293c:	1085883a 	add	r2,r2,r2
 2002940:	1085883a 	add	r2,r2,r2
 2002944:	10c5883a 	add	r2,r2,r3
 2002948:	10c00017 	ldw	r3,0(r2)
 200294c:	2105883a 	add	r2,r4,r4
 2002950:	1085883a 	add	r2,r2,r2
 2002954:	1145883a 	add	r2,r2,r5
 2002958:	10c00015 	stw	r3,0(r2)
 200295c:	d0a01c17 	ldw	r2,-32656(gp)
 2002960:	10800044 	addi	r2,r2,1
 2002964:	d0a01c15 	stw	r2,-32656(gp)
 2002968:	d0a01c17 	ldw	r2,-32656(gp)
 200296c:	10800050 	cmplti	r2,r2,1
 2002970:	103fe51e 	bne	r2,zero,2002908 <transp_7x1+0x24>
 2002974:	d0a01b17 	ldw	r2,-32660(gp)
 2002978:	10800044 	addi	r2,r2,1
 200297c:	d0a01b15 	stw	r2,-32660(gp)
 2002980:	d0a01b17 	ldw	r2,-32660(gp)
 2002984:	108001d0 	cmplti	r2,r2,7
 2002988:	103fdd1e 	bne	r2,zero,2002900 <transp_7x1+0x1c>
 200298c:	e037883a 	mov	sp,fp
 2002990:	df000017 	ldw	fp,0(sp)
 2002994:	dec00104 	addi	sp,sp,4
 2002998:	f800283a 	ret

0200299c <M_7x1_1x7>:
 200299c:	defffc04 	addi	sp,sp,-16
 20029a0:	df000315 	stw	fp,12(sp)
 20029a4:	df000304 	addi	fp,sp,12
 20029a8:	e13ffd15 	stw	r4,-12(fp)
 20029ac:	e17ffe15 	stw	r5,-8(fp)
 20029b0:	e1bfff15 	stw	r6,-4(fp)
 20029b4:	d0201b15 	stw	zero,-32660(gp)
 20029b8:	00002306 	br	2002a48 <M_7x1_1x7+0xac>
 20029bc:	d0201c15 	stw	zero,-32656(gp)
 20029c0:	00001b06 	br	2002a30 <M_7x1_1x7+0x94>
 20029c4:	d0a01b17 	ldw	r2,-32660(gp)
 20029c8:	10800724 	muli	r2,r2,28
 20029cc:	1007883a 	mov	r3,r2
 20029d0:	e0bfff17 	ldw	r2,-4(fp)
 20029d4:	188b883a 	add	r5,r3,r2
 20029d8:	d1a01c17 	ldw	r6,-32656(gp)
 20029dc:	d0a01b17 	ldw	r2,-32660(gp)
 20029e0:	1085883a 	add	r2,r2,r2
 20029e4:	1085883a 	add	r2,r2,r2
 20029e8:	1007883a 	mov	r3,r2
 20029ec:	e0bffd17 	ldw	r2,-12(fp)
 20029f0:	1885883a 	add	r2,r3,r2
 20029f4:	11000017 	ldw	r4,0(r2)
 20029f8:	d0a01c17 	ldw	r2,-32656(gp)
 20029fc:	e0fffe17 	ldw	r3,-8(fp)
 2002a00:	1085883a 	add	r2,r2,r2
 2002a04:	1085883a 	add	r2,r2,r2
 2002a08:	10c5883a 	add	r2,r2,r3
 2002a0c:	10800017 	ldw	r2,0(r2)
 2002a10:	2087ff32 	custom	252,r3,r4,r2
 2002a14:	3185883a 	add	r2,r6,r6
 2002a18:	1085883a 	add	r2,r2,r2
 2002a1c:	1145883a 	add	r2,r2,r5
 2002a20:	10c00015 	stw	r3,0(r2)
 2002a24:	d0a01c17 	ldw	r2,-32656(gp)
 2002a28:	10800044 	addi	r2,r2,1
 2002a2c:	d0a01c15 	stw	r2,-32656(gp)
 2002a30:	d0a01c17 	ldw	r2,-32656(gp)
 2002a34:	108001d0 	cmplti	r2,r2,7
 2002a38:	103fe21e 	bne	r2,zero,20029c4 <M_7x1_1x7+0x28>
 2002a3c:	d0a01b17 	ldw	r2,-32660(gp)
 2002a40:	10800044 	addi	r2,r2,1
 2002a44:	d0a01b15 	stw	r2,-32660(gp)
 2002a48:	d0a01b17 	ldw	r2,-32660(gp)
 2002a4c:	108001d0 	cmplti	r2,r2,7
 2002a50:	103fda1e 	bne	r2,zero,20029bc <M_7x1_1x7+0x20>
 2002a54:	e037883a 	mov	sp,fp
 2002a58:	df000017 	ldw	fp,0(sp)
 2002a5c:	dec00104 	addi	sp,sp,4
 2002a60:	f800283a 	ret

02002a64 <R_7x7>:
 2002a64:	defffc04 	addi	sp,sp,-16
 2002a68:	df000315 	stw	fp,12(sp)
 2002a6c:	df000304 	addi	fp,sp,12
 2002a70:	e13ffd15 	stw	r4,-12(fp)
 2002a74:	e17ffe15 	stw	r5,-8(fp)
 2002a78:	e1bfff15 	stw	r6,-4(fp)
 2002a7c:	d0201b15 	stw	zero,-32660(gp)
 2002a80:	00002a06 	br	2002b2c <R_7x7+0xc8>
 2002a84:	d0201c15 	stw	zero,-32656(gp)
 2002a88:	00002206 	br	2002b14 <R_7x7+0xb0>
 2002a8c:	d0a01b17 	ldw	r2,-32660(gp)
 2002a90:	10800724 	muli	r2,r2,28
 2002a94:	1007883a 	mov	r3,r2
 2002a98:	e0bfff17 	ldw	r2,-4(fp)
 2002a9c:	1889883a 	add	r4,r3,r2
 2002aa0:	d1601c17 	ldw	r5,-32656(gp)
 2002aa4:	d0a01b17 	ldw	r2,-32660(gp)
 2002aa8:	10800724 	muli	r2,r2,28
 2002aac:	1007883a 	mov	r3,r2
 2002ab0:	e0bffd17 	ldw	r2,-12(fp)
 2002ab4:	1887883a 	add	r3,r3,r2
 2002ab8:	d0a01c17 	ldw	r2,-32656(gp)
 2002abc:	1085883a 	add	r2,r2,r2
 2002ac0:	1085883a 	add	r2,r2,r2
 2002ac4:	10c5883a 	add	r2,r2,r3
 2002ac8:	11800017 	ldw	r6,0(r2)
 2002acc:	d0a01b17 	ldw	r2,-32660(gp)
 2002ad0:	10800724 	muli	r2,r2,28
 2002ad4:	1007883a 	mov	r3,r2
 2002ad8:	e0bffe17 	ldw	r2,-8(fp)
 2002adc:	1887883a 	add	r3,r3,r2
 2002ae0:	d0a01c17 	ldw	r2,-32656(gp)
 2002ae4:	1085883a 	add	r2,r2,r2
 2002ae8:	1085883a 	add	r2,r2,r2
 2002aec:	10c5883a 	add	r2,r2,r3
 2002af0:	10800017 	ldw	r2,0(r2)
 2002af4:	3087ffb2 	custom	254,r3,r6,r2
 2002af8:	2945883a 	add	r2,r5,r5
 2002afc:	1085883a 	add	r2,r2,r2
 2002b00:	1105883a 	add	r2,r2,r4
 2002b04:	10c00015 	stw	r3,0(r2)
 2002b08:	d0a01c17 	ldw	r2,-32656(gp)
 2002b0c:	10800044 	addi	r2,r2,1
 2002b10:	d0a01c15 	stw	r2,-32656(gp)
 2002b14:	d0a01c17 	ldw	r2,-32656(gp)
 2002b18:	108001d0 	cmplti	r2,r2,7
 2002b1c:	103fdb1e 	bne	r2,zero,2002a8c <R_7x7+0x28>
 2002b20:	d0a01b17 	ldw	r2,-32660(gp)
 2002b24:	10800044 	addi	r2,r2,1
 2002b28:	d0a01b15 	stw	r2,-32660(gp)
 2002b2c:	d0a01b17 	ldw	r2,-32660(gp)
 2002b30:	108001d0 	cmplti	r2,r2,7
 2002b34:	103fd31e 	bne	r2,zero,2002a84 <R_7x7+0x20>
 2002b38:	e037883a 	mov	sp,fp
 2002b3c:	df000017 	ldw	fp,0(sp)
 2002b40:	dec00104 	addi	sp,sp,4
 2002b44:	f800283a 	ret

02002b48 <qPID_Init>:
 2002b48:	defffe04 	addi	sp,sp,-8
 2002b4c:	df000115 	stw	fp,4(sp)
 2002b50:	df000104 	addi	fp,sp,4
 2002b54:	e13fff15 	stw	r4,-4(fp)
 2002b58:	e0bfff17 	ldw	r2,-4(fp)
 2002b5c:	10000f15 	stw	zero,60(r2)
 2002b60:	e0bfff17 	ldw	r2,-4(fp)
 2002b64:	10001015 	stw	zero,64(r2)
 2002b68:	e0bfff17 	ldw	r2,-4(fp)
 2002b6c:	10000e15 	stw	zero,56(r2)
 2002b70:	e0bfff17 	ldw	r2,-4(fp)
 2002b74:	10001115 	stw	zero,68(r2)
 2002b78:	e037883a 	mov	sp,fp
 2002b7c:	df000017 	ldw	fp,0(sp)
 2002b80:	dec00104 	addi	sp,sp,4
 2002b84:	f800283a 	ret

02002b88 <qPID_Process_>:
 2002b88:	deffed04 	addi	sp,sp,-76
 2002b8c:	dfc01215 	stw	ra,72(sp)
 2002b90:	df001115 	stw	fp,68(sp)
 2002b94:	dc001015 	stw	r16,64(sp)
 2002b98:	df001004 	addi	fp,sp,64
 2002b9c:	e13ffb15 	stw	r4,-20(fp)
 2002ba0:	e17ffc15 	stw	r5,-16(fp)
 2002ba4:	e1bffd15 	stw	r6,-12(fp)
 2002ba8:	e1fffe15 	stw	r7,-8(fp)
 2002bac:	e0bffb17 	ldw	r2,-20(fp)
 2002bb0:	10c00117 	ldw	r3,4(r2)
 2002bb4:	00a00034 	movhi	r2,32768
 2002bb8:	10bfffc4 	addi	r2,r2,-1
 2002bbc:	1884703a 	and	r2,r3,r2
 2002bc0:	1009883a 	mov	r4,r2
 2002bc4:	014cf5f4 	movhi	r5,13271
 2002bc8:	296fe544 	addi	r5,r5,-16491
 2002bcc:	2008bf80 	call	2008bf8 <__ltsf2>
 2002bd0:	1004803a 	cmplt	r2,r2,zero
 2002bd4:	1000011e 	bne	r2,zero,2002bdc <qPID_Process_+0x54>
 2002bd8:	00000406 	br	2002bec <qPID_Process_+0x64>
 2002bdc:	e0fffb17 	ldw	r3,-20(fp)
 2002be0:	008cf5f4 	movhi	r2,13271
 2002be4:	10afe544 	addi	r2,r2,-16491
 2002be8:	18800115 	stw	r2,4(r3)
 2002bec:	e0bffb17 	ldw	r2,-20(fp)
 2002bf0:	10800017 	ldw	r2,0(r2)
 2002bf4:	e0bff615 	stw	r2,-40(fp)
 2002bf8:	e0bffb17 	ldw	r2,-20(fp)
 2002bfc:	10c00017 	ldw	r3,0(r2)
 2002c00:	e0bffb17 	ldw	r2,-20(fp)
 2002c04:	10800917 	ldw	r2,36(r2)
 2002c08:	1887ff32 	custom	252,r3,r3,r2
 2002c0c:	e0bffb17 	ldw	r2,-20(fp)
 2002c10:	10800117 	ldw	r2,4(r2)
 2002c14:	1809883a 	mov	r4,r3
 2002c18:	100b883a 	mov	r5,r2
 2002c1c:	20089940 	call	2008994 <__divsf3>
 2002c20:	e0bff515 	stw	r2,-44(fp)
 2002c24:	e0bffb17 	ldw	r2,-20(fp)
 2002c28:	11000217 	ldw	r4,8(r2)
 2002c2c:	e0bffb17 	ldw	r2,-20(fp)
 2002c30:	11400217 	ldw	r5,8(r2)
 2002c34:	e0bffb17 	ldw	r2,-20(fp)
 2002c38:	10c00617 	ldw	r3,24(r2)
 2002c3c:	e0bffb17 	ldw	r2,-20(fp)
 2002c40:	10800917 	ldw	r2,36(r2)
 2002c44:	1885ff32 	custom	252,r2,r3,r2
 2002c48:	2885ff72 	custom	253,r2,r5,r2
 2002c4c:	100b883a 	mov	r5,r2
 2002c50:	20089940 	call	2008994 <__divsf3>
 2002c54:	e0bff415 	stw	r2,-48(fp)
 2002c58:	e0bffb17 	ldw	r2,-20(fp)
 2002c5c:	10c00017 	ldw	r3,0(r2)
 2002c60:	e0bffb17 	ldw	r2,-20(fp)
 2002c64:	10800217 	ldw	r2,8(r2)
 2002c68:	1887ff32 	custom	252,r3,r3,r2
 2002c6c:	e0bffb17 	ldw	r2,-20(fp)
 2002c70:	10800617 	ldw	r2,24(r2)
 2002c74:	1889ff32 	custom	252,r4,r3,r2
 2002c78:	e0bffb17 	ldw	r2,-20(fp)
 2002c7c:	11400217 	ldw	r5,8(r2)
 2002c80:	e0bffb17 	ldw	r2,-20(fp)
 2002c84:	10c00617 	ldw	r3,24(r2)
 2002c88:	e0bffb17 	ldw	r2,-20(fp)
 2002c8c:	10800917 	ldw	r2,36(r2)
 2002c90:	1885ff32 	custom	252,r2,r3,r2
 2002c94:	2885ff72 	custom	253,r2,r5,r2
 2002c98:	100b883a 	mov	r5,r2
 2002c9c:	20089940 	call	2008994 <__divsf3>
 2002ca0:	e0bff315 	stw	r2,-52(fp)
 2002ca4:	e0bffb17 	ldw	r2,-20(fp)
 2002ca8:	10c00817 	ldw	r3,32(r2)
 2002cac:	e0bffb17 	ldw	r2,-20(fp)
 2002cb0:	10800017 	ldw	r2,0(r2)
 2002cb4:	1887ff32 	custom	252,r3,r3,r2
 2002cb8:	e0bffb17 	ldw	r2,-20(fp)
 2002cbc:	10800217 	ldw	r2,8(r2)
 2002cc0:	1887ff32 	custom	252,r3,r3,r2
 2002cc4:	e0bffb17 	ldw	r2,-20(fp)
 2002cc8:	10800617 	ldw	r2,24(r2)
 2002ccc:	1889ff32 	custom	252,r4,r3,r2
 2002cd0:	e0bffb17 	ldw	r2,-20(fp)
 2002cd4:	11400217 	ldw	r5,8(r2)
 2002cd8:	e0bffb17 	ldw	r2,-20(fp)
 2002cdc:	10c00617 	ldw	r3,24(r2)
 2002ce0:	e0bffb17 	ldw	r2,-20(fp)
 2002ce4:	10800917 	ldw	r2,36(r2)
 2002ce8:	1885ff32 	custom	252,r2,r3,r2
 2002cec:	2885ff72 	custom	253,r2,r5,r2
 2002cf0:	100b883a 	mov	r5,r2
 2002cf4:	20089940 	call	2008994 <__divsf3>
 2002cf8:	e0bff215 	stw	r2,-56(fp)
 2002cfc:	e0bffb17 	ldw	r2,-20(fp)
 2002d00:	10c00717 	ldw	r3,28(r2)
 2002d04:	e0bffc17 	ldw	r2,-16(fp)
 2002d08:	1887ff32 	custom	252,r3,r3,r2
 2002d0c:	e0bffd17 	ldw	r2,-12(fp)
 2002d10:	1887ffb2 	custom	254,r3,r3,r2
 2002d14:	e0bff617 	ldw	r2,-40(fp)
 2002d18:	1885ff32 	custom	252,r2,r3,r2
 2002d1c:	e0bff915 	stw	r2,-28(fp)
 2002d20:	e0bffb17 	ldw	r2,-20(fp)
 2002d24:	10c01017 	ldw	r3,64(r2)
 2002d28:	e0bff417 	ldw	r2,-48(fp)
 2002d2c:	1889ff32 	custom	252,r4,r3,r2
 2002d30:	e0bffb17 	ldw	r2,-20(fp)
 2002d34:	10c00e17 	ldw	r3,56(r2)
 2002d38:	e0bffd17 	ldw	r2,-12(fp)
 2002d3c:	10c7ffb2 	custom	254,r3,r2,r3
 2002d40:	e0bff317 	ldw	r2,-52(fp)
 2002d44:	1885ff32 	custom	252,r2,r3,r2
 2002d48:	2089ffb2 	custom	254,r4,r4,r2
 2002d4c:	e0bffb17 	ldw	r2,-20(fp)
 2002d50:	10c01117 	ldw	r3,68(r2)
 2002d54:	e0bffc17 	ldw	r2,-16(fp)
 2002d58:	10c7ffb2 	custom	254,r3,r2,r3
 2002d5c:	e0bff217 	ldw	r2,-56(fp)
 2002d60:	1885ff32 	custom	252,r2,r3,r2
 2002d64:	2085ff72 	custom	253,r2,r4,r2
 2002d68:	e0bff715 	stw	r2,-36(fp)
 2002d6c:	e0bffb17 	ldw	r2,-20(fp)
 2002d70:	10800f17 	ldw	r2,60(r2)
 2002d74:	e0bff815 	stw	r2,-32(fp)
 2002d78:	e0bffb17 	ldw	r2,-20(fp)
 2002d7c:	10800a17 	ldw	r2,40(r2)
 2002d80:	e0bfff15 	stw	r2,-4(fp)
 2002d84:	e0ffff17 	ldw	r3,-4(fp)
 2002d88:	18800060 	cmpeqi	r2,r3,1
 2002d8c:	1000111e 	bne	r2,zero,2002dd4 <qPID_Process_+0x24c>
 2002d90:	e0ffff17 	ldw	r3,-4(fp)
 2002d94:	18800070 	cmpltui	r2,r3,1
 2002d98:	1000041e 	bne	r2,zero,2002dac <qPID_Process_+0x224>
 2002d9c:	e0ffff17 	ldw	r3,-4(fp)
 2002da0:	188000a0 	cmpeqi	r2,r3,2
 2002da4:	10002b1e 	bne	r2,zero,2002e54 <qPID_Process_+0x2cc>
 2002da8:	00003b06 	br	2002e98 <qPID_Process_+0x310>
 2002dac:	e0bffc17 	ldw	r2,-16(fp)
 2002db0:	e0bffa15 	stw	r2,-24(fp)
 2002db4:	e0bffb17 	ldw	r2,-20(fp)
 2002db8:	10800c17 	ldw	r2,48(r2)
 2002dbc:	10800058 	cmpnei	r2,r2,1
 2002dc0:	1000371e 	bne	r2,zero,2002ea0 <qPID_Process_+0x318>
 2002dc4:	e0fffb17 	ldw	r3,-20(fp)
 2002dc8:	e0bffd17 	ldw	r2,-12(fp)
 2002dcc:	18800f15 	stw	r2,60(r3)
 2002dd0:	00003306 	br	2002ea0 <qPID_Process_+0x318>
 2002dd4:	e0fff917 	ldw	r3,-28(fp)
 2002dd8:	e0bff817 	ldw	r2,-32(fp)
 2002ddc:	1887ff72 	custom	253,r3,r3,r2
 2002de0:	e0bff717 	ldw	r2,-36(fp)
 2002de4:	1885ff72 	custom	253,r2,r3,r2
 2002de8:	e0bffa15 	stw	r2,-24(fp)
 2002dec:	e0bffa17 	ldw	r2,-24(fp)
 2002df0:	e0bff115 	stw	r2,-60(fp)
 2002df4:	e0bffb17 	ldw	r2,-20(fp)
 2002df8:	10800417 	ldw	r2,16(r2)
 2002dfc:	1009883a 	mov	r4,r2
 2002e00:	e17ffa17 	ldw	r5,-24(fp)
 2002e04:	2008bf80 	call	2008bf8 <__ltsf2>
 2002e08:	1004803a 	cmplt	r2,r2,zero
 2002e0c:	1000011e 	bne	r2,zero,2002e14 <qPID_Process_+0x28c>
 2002e10:	00000406 	br	2002e24 <qPID_Process_+0x29c>
 2002e14:	e0bffb17 	ldw	r2,-20(fp)
 2002e18:	10800417 	ldw	r2,16(r2)
 2002e1c:	e0bffa15 	stw	r2,-24(fp)
 2002e20:	00001f06 	br	2002ea0 <qPID_Process_+0x318>
 2002e24:	e0bffb17 	ldw	r2,-20(fp)
 2002e28:	10800517 	ldw	r2,20(r2)
 2002e2c:	1009883a 	mov	r4,r2
 2002e30:	e17ffa17 	ldw	r5,-24(fp)
 2002e34:	2008b080 	call	2008b08 <__gtsf2>
 2002e38:	10800048 	cmpgei	r2,r2,1
 2002e3c:	1000011e 	bne	r2,zero,2002e44 <qPID_Process_+0x2bc>
 2002e40:	00001706 	br	2002ea0 <qPID_Process_+0x318>
 2002e44:	e0bffb17 	ldw	r2,-20(fp)
 2002e48:	10800517 	ldw	r2,20(r2)
 2002e4c:	e0bffa15 	stw	r2,-24(fp)
 2002e50:	00001306 	br	2002ea0 <qPID_Process_+0x318>
 2002e54:	e0fffc17 	ldw	r3,-16(fp)
 2002e58:	e0bffd17 	ldw	r2,-12(fp)
 2002e5c:	1885ffb2 	custom	254,r2,r3,r2
 2002e60:	1009883a 	mov	r4,r2
 2002e64:	000b883a 	mov	r5,zero
 2002e68:	2008b800 	call	2008b80 <__gesf2>
 2002e6c:	1004403a 	cmpge	r2,r2,zero
 2002e70:	1000011e 	bne	r2,zero,2002e78 <qPID_Process_+0x2f0>
 2002e74:	00000406 	br	2002e88 <qPID_Process_+0x300>
 2002e78:	e0bffb17 	ldw	r2,-20(fp)
 2002e7c:	10800417 	ldw	r2,16(r2)
 2002e80:	e0bffa15 	stw	r2,-24(fp)
 2002e84:	00000606 	br	2002ea0 <qPID_Process_+0x318>
 2002e88:	e0bffb17 	ldw	r2,-20(fp)
 2002e8c:	10800517 	ldw	r2,20(r2)
 2002e90:	e0bffa15 	stw	r2,-24(fp)
 2002e94:	00000206 	br	2002ea0 <qPID_Process_+0x318>
 2002e98:	009ff034 	movhi	r2,32704
 2002e9c:	e0bffa15 	stw	r2,-24(fp)
 2002ea0:	e0bffe17 	ldw	r2,-8(fp)
 2002ea4:	1005003a 	cmpeq	r2,r2,zero
 2002ea8:	10000b1e 	bne	r2,zero,2002ed8 <qPID_Process_+0x350>
 2002eac:	e0fffe17 	ldw	r3,-8(fp)
 2002eb0:	e0bff917 	ldw	r2,-28(fp)
 2002eb4:	18800015 	stw	r2,0(r3)
 2002eb8:	e0bffe17 	ldw	r2,-8(fp)
 2002ebc:	10c00104 	addi	r3,r2,4
 2002ec0:	e0bff817 	ldw	r2,-32(fp)
 2002ec4:	18800015 	stw	r2,0(r3)
 2002ec8:	e0bffe17 	ldw	r2,-8(fp)
 2002ecc:	10c00204 	addi	r3,r2,8
 2002ed0:	e0bff717 	ldw	r2,-36(fp)
 2002ed4:	18800015 	stw	r2,0(r3)
 2002ed8:	e0bffb17 	ldw	r2,-20(fp)
 2002edc:	11000f17 	ldw	r4,60(r2)
 2002ee0:	e0fffc17 	ldw	r3,-16(fp)
 2002ee4:	e0bffd17 	ldw	r2,-12(fp)
 2002ee8:	1887ffb2 	custom	254,r3,r3,r2
 2002eec:	e0bff517 	ldw	r2,-44(fp)
 2002ef0:	1885ff32 	custom	252,r2,r3,r2
 2002ef4:	2085ff72 	custom	253,r2,r4,r2
 2002ef8:	e0bff815 	stw	r2,-32(fp)
 2002efc:	e03ff015 	stw	zero,-64(fp)
 2002f00:	e0bffb17 	ldw	r2,-20(fp)
 2002f04:	10800b17 	ldw	r2,44(r2)
 2002f08:	10800058 	cmpnei	r2,r2,1
 2002f0c:	1000391e 	bne	r2,zero,2002ff4 <qPID_Process_+0x46c>
 2002f10:	e0bffb17 	ldw	r2,-20(fp)
 2002f14:	10800a17 	ldw	r2,40(r2)
 2002f18:	10800058 	cmpnei	r2,r2,1
 2002f1c:	1000351e 	bne	r2,zero,2002ff4 <qPID_Process_+0x46c>
 2002f20:	e0bffb17 	ldw	r2,-20(fp)
 2002f24:	10800417 	ldw	r2,16(r2)
 2002f28:	1009883a 	mov	r4,r2
 2002f2c:	e17ff117 	ldw	r5,-60(fp)
 2002f30:	2008bf80 	call	2008bf8 <__ltsf2>
 2002f34:	1004803a 	cmplt	r2,r2,zero
 2002f38:	1000011e 	bne	r2,zero,2002f40 <qPID_Process_+0x3b8>
 2002f3c:	00001306 	br	2002f8c <qPID_Process_+0x404>
 2002f40:	e0bffb17 	ldw	r2,-20(fp)
 2002f44:	14000917 	ldw	r16,36(r2)
 2002f48:	e0bffb17 	ldw	r2,-20(fp)
 2002f4c:	10800317 	ldw	r2,12(r2)
 2002f50:	010fe034 	movhi	r4,16256
 2002f54:	100b883a 	mov	r5,r2
 2002f58:	20089940 	call	2008994 <__divsf3>
 2002f5c:	8089ff32 	custom	252,r4,r16,r2
 2002f60:	e0bffb17 	ldw	r2,-20(fp)
 2002f64:	10c00417 	ldw	r3,16(r2)
 2002f68:	e0bff117 	ldw	r2,-60(fp)
 2002f6c:	1885ffb2 	custom	254,r2,r3,r2
 2002f70:	2085ff32 	custom	252,r2,r4,r2
 2002f74:	e0bff015 	stw	r2,-64(fp)
 2002f78:	e0fff817 	ldw	r3,-32(fp)
 2002f7c:	e0bff017 	ldw	r2,-64(fp)
 2002f80:	1885ff72 	custom	253,r2,r3,r2
 2002f84:	e0bff815 	stw	r2,-32(fp)
 2002f88:	00001a06 	br	2002ff4 <qPID_Process_+0x46c>
 2002f8c:	e0bffb17 	ldw	r2,-20(fp)
 2002f90:	10800517 	ldw	r2,20(r2)
 2002f94:	1009883a 	mov	r4,r2
 2002f98:	e17ff117 	ldw	r5,-60(fp)
 2002f9c:	2008b080 	call	2008b08 <__gtsf2>
 2002fa0:	10800048 	cmpgei	r2,r2,1
 2002fa4:	1000011e 	bne	r2,zero,2002fac <qPID_Process_+0x424>
 2002fa8:	00001206 	br	2002ff4 <qPID_Process_+0x46c>
 2002fac:	e0bffb17 	ldw	r2,-20(fp)
 2002fb0:	14000917 	ldw	r16,36(r2)
 2002fb4:	e0bffb17 	ldw	r2,-20(fp)
 2002fb8:	10800317 	ldw	r2,12(r2)
 2002fbc:	010fe034 	movhi	r4,16256
 2002fc0:	100b883a 	mov	r5,r2
 2002fc4:	20089940 	call	2008994 <__divsf3>
 2002fc8:	8089ff32 	custom	252,r4,r16,r2
 2002fcc:	e0bffb17 	ldw	r2,-20(fp)
 2002fd0:	10c00517 	ldw	r3,20(r2)
 2002fd4:	e0bff117 	ldw	r2,-60(fp)
 2002fd8:	1885ffb2 	custom	254,r2,r3,r2
 2002fdc:	2085ff32 	custom	252,r2,r4,r2
 2002fe0:	e0bff015 	stw	r2,-64(fp)
 2002fe4:	e0fff817 	ldw	r3,-32(fp)
 2002fe8:	e0bff017 	ldw	r2,-64(fp)
 2002fec:	1885ff72 	custom	253,r2,r3,r2
 2002ff0:	e0bff815 	stw	r2,-32(fp)
 2002ff4:	e0bffb17 	ldw	r2,-20(fp)
 2002ff8:	10800d17 	ldw	r2,52(r2)
 2002ffc:	1004c03a 	cmpne	r2,r2,zero
 2003000:	1000011e 	bne	r2,zero,2003008 <qPID_Process_+0x480>
 2003004:	e03ff815 	stw	zero,-32(fp)
 2003008:	e0fffb17 	ldw	r3,-20(fp)
 200300c:	e0bff817 	ldw	r2,-32(fp)
 2003010:	18800f15 	stw	r2,60(r3)
 2003014:	e0fffb17 	ldw	r3,-20(fp)
 2003018:	e0bff717 	ldw	r2,-36(fp)
 200301c:	18801015 	stw	r2,64(r3)
 2003020:	e0fffb17 	ldw	r3,-20(fp)
 2003024:	e0bffd17 	ldw	r2,-12(fp)
 2003028:	18800e15 	stw	r2,56(r3)
 200302c:	e0fffb17 	ldw	r3,-20(fp)
 2003030:	e0bffc17 	ldw	r2,-16(fp)
 2003034:	18801115 	stw	r2,68(r3)
 2003038:	e0bffa17 	ldw	r2,-24(fp)
 200303c:	e037883a 	mov	sp,fp
 2003040:	dfc00217 	ldw	ra,8(sp)
 2003044:	df000117 	ldw	fp,4(sp)
 2003048:	dc000017 	ldw	r16,0(sp)
 200304c:	dec00304 	addi	sp,sp,12
 2003050:	f800283a 	ret

02003054 <UART_SendChar>:
 2003054:	defffe04 	addi	sp,sp,-8
 2003058:	df000115 	stw	fp,4(sp)
 200305c:	df000104 	addi	fp,sp,4
 2003060:	e13fff05 	stb	r4,-4(fp)
 2003064:	e0bfff07 	ldb	r2,-4(fp)
 2003068:	10ffc014 	ori	r3,r2,65280
 200306c:	00810034 	movhi	r2,1024
 2003070:	10887404 	addi	r2,r2,8656
 2003074:	10c00035 	stwio	r3,0(r2)
 2003078:	00810034 	movhi	r2,1024
 200307c:	10887404 	addi	r2,r2,8656
 2003080:	10000035 	stwio	zero,0(r2)
 2003084:	e037883a 	mov	sp,fp
 2003088:	df000017 	ldw	fp,0(sp)
 200308c:	dec00104 	addi	sp,sp,4
 2003090:	f800283a 	ret

02003094 <UART_SendString>:
 2003094:	defffc04 	addi	sp,sp,-16
 2003098:	dfc00315 	stw	ra,12(sp)
 200309c:	df000215 	stw	fp,8(sp)
 20030a0:	df000204 	addi	fp,sp,8
 20030a4:	e13fff15 	stw	r4,-4(fp)
 20030a8:	e0bfff17 	ldw	r2,-4(fp)
 20030ac:	e0bffe15 	stw	r2,-8(fp)
 20030b0:	00000906 	br	20030d8 <UART_SendString+0x44>
 20030b4:	e0bffe17 	ldw	r2,-8(fp)
 20030b8:	10800003 	ldbu	r2,0(r2)
 20030bc:	11003fcc 	andi	r4,r2,255
 20030c0:	2100201c 	xori	r4,r4,128
 20030c4:	213fe004 	addi	r4,r4,-128
 20030c8:	e0bffe17 	ldw	r2,-8(fp)
 20030cc:	10800044 	addi	r2,r2,1
 20030d0:	e0bffe15 	stw	r2,-8(fp)
 20030d4:	20030540 	call	2003054 <UART_SendChar>
 20030d8:	e0bffe17 	ldw	r2,-8(fp)
 20030dc:	10800003 	ldbu	r2,0(r2)
 20030e0:	10803fcc 	andi	r2,r2,255
 20030e4:	1080201c 	xori	r2,r2,128
 20030e8:	10bfe004 	addi	r2,r2,-128
 20030ec:	1004c03a 	cmpne	r2,r2,zero
 20030f0:	103ff01e 	bne	r2,zero,20030b4 <UART_SendString+0x20>
 20030f4:	e037883a 	mov	sp,fp
 20030f8:	dfc00117 	ldw	ra,4(sp)
 20030fc:	df000017 	ldw	fp,0(sp)
 2003100:	dec00204 	addi	sp,sp,8
 2003104:	f800283a 	ret

02003108 <UART_SendInt>:
 2003108:	defff704 	addi	sp,sp,-36
 200310c:	dfc00815 	stw	ra,32(sp)
 2003110:	df000715 	stw	fp,28(sp)
 2003114:	df000704 	addi	fp,sp,28
 2003118:	e13fff15 	stw	r4,-4(fp)
 200311c:	e03ffb15 	stw	zero,-20(fp)
 2003120:	e13fff17 	ldw	r4,-4(fp)
 2003124:	01400284 	movi	r5,10
 2003128:	2009e280 	call	2009e28 <__divsi3>
 200312c:	10c002a4 	muli	r3,r2,10
 2003130:	e0bfff17 	ldw	r2,-4(fp)
 2003134:	10c5c83a 	sub	r2,r2,r3
 2003138:	e0bffa15 	stw	r2,-24(fp)
 200313c:	e13fff17 	ldw	r4,-4(fp)
 2003140:	01400284 	movi	r5,10
 2003144:	2009e280 	call	2009e28 <__divsi3>
 2003148:	e0bfff15 	stw	r2,-4(fp)
 200314c:	e0bffa17 	ldw	r2,-24(fp)
 2003150:	10800c04 	addi	r2,r2,48
 2003154:	e0bffa15 	stw	r2,-24(fp)
 2003158:	e13ffb17 	ldw	r4,-20(fp)
 200315c:	e0bffa17 	ldw	r2,-24(fp)
 2003160:	1007883a 	mov	r3,r2
 2003164:	e0bffc04 	addi	r2,fp,-16
 2003168:	1105883a 	add	r2,r2,r4
 200316c:	10c00005 	stb	r3,0(r2)
 2003170:	e0bffb17 	ldw	r2,-20(fp)
 2003174:	10800044 	addi	r2,r2,1
 2003178:	e0bffb15 	stw	r2,-20(fp)
 200317c:	e0bfff17 	ldw	r2,-4(fp)
 2003180:	1004c03a 	cmpne	r2,r2,zero
 2003184:	103fe61e 	bne	r2,zero,2003120 <UART_SendInt+0x18>
 2003188:	e0bffb17 	ldw	r2,-20(fp)
 200318c:	10bfffc4 	addi	r2,r2,-1
 2003190:	e0bff915 	stw	r2,-28(fp)
 2003194:	00000b06 	br	20031c4 <UART_SendInt+0xbc>
 2003198:	e0fff917 	ldw	r3,-28(fp)
 200319c:	e0bffc04 	addi	r2,fp,-16
 20031a0:	10c5883a 	add	r2,r2,r3
 20031a4:	10800003 	ldbu	r2,0(r2)
 20031a8:	11003fcc 	andi	r4,r2,255
 20031ac:	2100201c 	xori	r4,r4,128
 20031b0:	213fe004 	addi	r4,r4,-128
 20031b4:	e0bff917 	ldw	r2,-28(fp)
 20031b8:	10bfffc4 	addi	r2,r2,-1
 20031bc:	e0bff915 	stw	r2,-28(fp)
 20031c0:	20030540 	call	2003054 <UART_SendChar>
 20031c4:	e0fff917 	ldw	r3,-28(fp)
 20031c8:	e0bffc04 	addi	r2,fp,-16
 20031cc:	10c5883a 	add	r2,r2,r3
 20031d0:	10800003 	ldbu	r2,0(r2)
 20031d4:	10803fcc 	andi	r2,r2,255
 20031d8:	1080201c 	xori	r2,r2,128
 20031dc:	10bfe004 	addi	r2,r2,-128
 20031e0:	1004c03a 	cmpne	r2,r2,zero
 20031e4:	103fec1e 	bne	r2,zero,2003198 <UART_SendInt+0x90>
 20031e8:	e037883a 	mov	sp,fp
 20031ec:	dfc00117 	ldw	ra,4(sp)
 20031f0:	df000017 	ldw	fp,0(sp)
 20031f4:	dec00204 	addi	sp,sp,8
 20031f8:	f800283a 	ret

020031fc <a_2decimales>:
 20031fc:	defffa04 	addi	sp,sp,-24
 2003200:	dfc00515 	stw	ra,20(sp)
 2003204:	df000415 	stw	fp,16(sp)
 2003208:	df000404 	addi	fp,sp,16
 200320c:	e13fff15 	stw	r4,-4(fp)
 2003210:	e13fff17 	ldw	r4,-4(fp)
 2003214:	01401904 	movi	r5,100
 2003218:	2009e280 	call	2009e28 <__divsi3>
 200321c:	e0bffe15 	stw	r2,-8(fp)
 2003220:	e13fff17 	ldw	r4,-4(fp)
 2003224:	01401904 	movi	r5,100
 2003228:	2009e880 	call	2009e88 <__modsi3>
 200322c:	1009883a 	mov	r4,r2
 2003230:	01400284 	movi	r5,10
 2003234:	2009e280 	call	2009e28 <__divsi3>
 2003238:	e0bffd15 	stw	r2,-12(fp)
 200323c:	e13fff17 	ldw	r4,-4(fp)
 2003240:	01400284 	movi	r5,10
 2003244:	2009e880 	call	2009e88 <__modsi3>
 2003248:	e0bffc15 	stw	r2,-16(fp)
 200324c:	e13ffe17 	ldw	r4,-8(fp)
 2003250:	20031080 	call	2003108 <UART_SendInt>
 2003254:	01000b04 	movi	r4,44
 2003258:	20030540 	call	2003054 <UART_SendChar>
 200325c:	e13ffd17 	ldw	r4,-12(fp)
 2003260:	20031080 	call	2003108 <UART_SendInt>
 2003264:	e13ffc17 	ldw	r4,-16(fp)
 2003268:	20031080 	call	2003108 <UART_SendInt>
 200326c:	e037883a 	mov	sp,fp
 2003270:	dfc00117 	ldw	ra,4(sp)
 2003274:	df000017 	ldw	fp,0(sp)
 2003278:	dec00204 	addi	sp,sp,8
 200327c:	f800283a 	ret

02003280 <SendTrama>:
 2003280:	defffa04 	addi	sp,sp,-24
 2003284:	dfc00515 	stw	ra,20(sp)
 2003288:	df000415 	stw	fp,16(sp)
 200328c:	df000404 	addi	fp,sp,16
 2003290:	e13ffe15 	stw	r4,-8(fp)
 2003294:	e17fff15 	stw	r5,-4(fp)
 2003298:	e03ffc15 	stw	zero,-16(fp)
 200329c:	00001106 	br	20032e4 <SendTrama+0x64>
 20032a0:	e17ffc17 	ldw	r5,-16(fp)
 20032a4:	e0bffc17 	ldw	r2,-16(fp)
 20032a8:	1085883a 	add	r2,r2,r2
 20032ac:	1085883a 	add	r2,r2,r2
 20032b0:	1007883a 	mov	r3,r2
 20032b4:	e0bffe17 	ldw	r2,-8(fp)
 20032b8:	1885883a 	add	r2,r3,r2
 20032bc:	11000017 	ldw	r4,0(r2)
 20032c0:	00c08074 	movhi	r3,513
 20032c4:	18c34204 	addi	r3,r3,3336
 20032c8:	2945883a 	add	r2,r5,r5
 20032cc:	1085883a 	add	r2,r2,r2
 20032d0:	10c5883a 	add	r2,r2,r3
 20032d4:	11000015 	stw	r4,0(r2)
 20032d8:	e0bffc17 	ldw	r2,-16(fp)
 20032dc:	10800044 	addi	r2,r2,1
 20032e0:	e0bffc15 	stw	r2,-16(fp)
 20032e4:	e0fffc17 	ldw	r3,-16(fp)
 20032e8:	e0bfff17 	ldw	r2,-4(fp)
 20032ec:	18bfec16 	blt	r3,r2,20032a0 <SendTrama+0x20>
 20032f0:	01001604 	movi	r4,88
 20032f4:	20030540 	call	2003054 <UART_SendChar>
 20032f8:	e03ffd15 	stw	zero,-12(fp)
 20032fc:	00001206 	br	2003348 <SendTrama+0xc8>
 2003300:	e0fffd17 	ldw	r3,-12(fp)
 2003304:	00808074 	movhi	r2,513
 2003308:	10834204 	addi	r2,r2,3336
 200330c:	10c5883a 	add	r2,r2,r3
 2003310:	10800003 	ldbu	r2,0(r2)
 2003314:	10803fcc 	andi	r2,r2,255
 2003318:	1080201c 	xori	r2,r2,128
 200331c:	10bfe004 	addi	r2,r2,-128
 2003320:	10ffc014 	ori	r3,r2,65280
 2003324:	00810034 	movhi	r2,1024
 2003328:	10887404 	addi	r2,r2,8656
 200332c:	10c00035 	stwio	r3,0(r2)
 2003330:	00810034 	movhi	r2,1024
 2003334:	10887404 	addi	r2,r2,8656
 2003338:	10000035 	stwio	zero,0(r2)
 200333c:	e0bffd17 	ldw	r2,-12(fp)
 2003340:	10800044 	addi	r2,r2,1
 2003344:	e0bffd15 	stw	r2,-12(fp)
 2003348:	e0fffd17 	ldw	r3,-12(fp)
 200334c:	e0bfff17 	ldw	r2,-4(fp)
 2003350:	1085883a 	add	r2,r2,r2
 2003354:	1085883a 	add	r2,r2,r2
 2003358:	10bfffc4 	addi	r2,r2,-1
 200335c:	10ffe82e 	bgeu	r2,r3,2003300 <SendTrama+0x80>
 2003360:	01001684 	movi	r4,90
 2003364:	20030540 	call	2003054 <UART_SendChar>
 2003368:	e037883a 	mov	sp,fp
 200336c:	dfc00117 	ldw	ra,4(sp)
 2003370:	df000017 	ldw	fp,0(sp)
 2003374:	dec00204 	addi	sp,sp,8
 2003378:	f800283a 	ret

0200337c <isr_handler_timer>:
 200337c:	defffd04 	addi	sp,sp,-12
 2003380:	df000215 	stw	fp,8(sp)
 2003384:	df000204 	addi	fp,sp,8
 2003388:	e13ffe15 	stw	r4,-8(fp)
 200338c:	e17fff15 	stw	r5,-4(fp)
 2003390:	00800044 	movi	r2,1
 2003394:	d0a0a015 	stw	r2,-32128(gp)
 2003398:	00810034 	movhi	r2,1024
 200339c:	10880004 	addi	r2,r2,8192
 20033a0:	10000035 	stwio	zero,0(r2)
 20033a4:	e037883a 	mov	sp,fp
 20033a8:	df000017 	ldw	fp,0(sp)
 20033ac:	dec00104 	addi	sp,sp,4
 20033b0:	f800283a 	ret

020033b4 <isr_handler_TimerONOF>:
 20033b4:	defff804 	addi	sp,sp,-32
 20033b8:	dfc00715 	stw	ra,28(sp)
 20033bc:	df000615 	stw	fp,24(sp)
 20033c0:	df000604 	addi	fp,sp,24
 20033c4:	e13ffa15 	stw	r4,-24(fp)
 20033c8:	e17ffb15 	stw	r5,-20(fp)
 20033cc:	d0a09217 	ldw	r2,-32184(gp)
 20033d0:	e03fff05 	stb	zero,-4(fp)
 20033d4:	1009883a 	mov	r4,r2
 20033d8:	014facf4 	movhi	r5,16051
 20033dc:	296e30c4 	addi	r5,r5,-18237
 20033e0:	2008b080 	call	2008b08 <__gtsf2>
 20033e4:	10800048 	cmpgei	r2,r2,1
 20033e8:	1000011e 	bne	r2,zero,20033f0 <isr_handler_TimerONOF+0x3c>
 20033ec:	00000206 	br	20033f8 <isr_handler_TimerONOF+0x44>
 20033f0:	00800044 	movi	r2,1
 20033f4:	e0bfff05 	stb	r2,-4(fp)
 20033f8:	e0ffff03 	ldbu	r3,-4(fp)
 20033fc:	1880005c 	xori	r2,r3,1
 2003400:	10803fcc 	andi	r2,r2,255
 2003404:	1004c03a 	cmpne	r2,r2,zero
 2003408:	10003e1e 	bne	r2,zero,2003504 <isr_handler_TimerONOF+0x150>
 200340c:	d0a09117 	ldw	r2,-32188(gp)
 2003410:	e03ffe05 	stb	zero,-8(fp)
 2003414:	1009883a 	mov	r4,r2
 2003418:	016facf4 	movhi	r5,48819
 200341c:	296e30c4 	addi	r5,r5,-18237
 2003420:	2008bf80 	call	2008bf8 <__ltsf2>
 2003424:	1004803a 	cmplt	r2,r2,zero
 2003428:	1000011e 	bne	r2,zero,2003430 <isr_handler_TimerONOF+0x7c>
 200342c:	00000206 	br	2003438 <isr_handler_TimerONOF+0x84>
 2003430:	00800044 	movi	r2,1
 2003434:	e0bffe05 	stb	r2,-8(fp)
 2003438:	e0fffe03 	ldbu	r3,-8(fp)
 200343c:	1880005c 	xori	r2,r3,1
 2003440:	10803fcc 	andi	r2,r2,255
 2003444:	1004c03a 	cmpne	r2,r2,zero
 2003448:	10002e1e 	bne	r2,zero,2003504 <isr_handler_TimerONOF+0x150>
 200344c:	d0a09417 	ldw	r2,-32176(gp)
 2003450:	e03ffd05 	stb	zero,-12(fp)
 2003454:	1009883a 	mov	r4,r2
 2003458:	014fc034 	movhi	r5,16128
 200345c:	2008bf80 	call	2008bf8 <__ltsf2>
 2003460:	1004803a 	cmplt	r2,r2,zero
 2003464:	1000011e 	bne	r2,zero,200346c <isr_handler_TimerONOF+0xb8>
 2003468:	00000206 	br	2003474 <isr_handler_TimerONOF+0xc0>
 200346c:	00800044 	movi	r2,1
 2003470:	e0bffd05 	stb	r2,-12(fp)
 2003474:	e0fffd03 	ldbu	r3,-12(fp)
 2003478:	1880005c 	xori	r2,r3,1
 200347c:	10803fcc 	andi	r2,r2,255
 2003480:	1004c03a 	cmpne	r2,r2,zero
 2003484:	10001f1e 	bne	r2,zero,2003504 <isr_handler_TimerONOF+0x150>
 2003488:	d0a09717 	ldw	r2,-32164(gp)
 200348c:	e03ffc05 	stb	zero,-16(fp)
 2003490:	1009883a 	mov	r4,r2
 2003494:	017001b4 	movhi	r5,49158
 2003498:	2942a484 	addi	r5,r5,2706
 200349c:	2008bf80 	call	2008bf8 <__ltsf2>
 20034a0:	1004803a 	cmplt	r2,r2,zero
 20034a4:	1000011e 	bne	r2,zero,20034ac <isr_handler_TimerONOF+0xf8>
 20034a8:	00000206 	br	20034b4 <isr_handler_TimerONOF+0x100>
 20034ac:	00800044 	movi	r2,1
 20034b0:	e0bffc05 	stb	r2,-16(fp)
 20034b4:	e0fffc03 	ldbu	r3,-16(fp)
 20034b8:	1880005c 	xori	r2,r3,1
 20034bc:	10803fcc 	andi	r2,r2,255
 20034c0:	1004c03a 	cmpne	r2,r2,zero
 20034c4:	10000f1e 	bne	r2,zero,2003504 <isr_handler_TimerONOF+0x150>
 20034c8:	d0a0a217 	ldw	r2,-32120(gp)
 20034cc:	10800044 	addi	r2,r2,1
 20034d0:	d0a0a215 	stw	r2,-32120(gp)
 20034d4:	d0a0a217 	ldw	r2,-32120(gp)
 20034d8:	10800910 	cmplti	r2,r2,36
 20034dc:	1000101e 	bne	r2,zero,2003520 <isr_handler_TimerONOF+0x16c>
 20034e0:	d020a215 	stw	zero,-32120(gp)
 20034e4:	d0a00c17 	ldw	r2,-32720(gp)
 20034e8:	10800050 	cmplti	r2,r2,1
 20034ec:	1000021e 	bne	r2,zero,20034f8 <isr_handler_TimerONOF+0x144>
 20034f0:	d0200c15 	stw	zero,-32720(gp)
 20034f4:	00000a06 	br	2003520 <isr_handler_TimerONOF+0x16c>
 20034f8:	00800044 	movi	r2,1
 20034fc:	d0a00c15 	stw	r2,-32720(gp)
 2003500:	00000706 	br	2003520 <isr_handler_TimerONOF+0x16c>
 2003504:	d0a0a217 	ldw	r2,-32120(gp)
 2003508:	10bfffc4 	addi	r2,r2,-1
 200350c:	d0a0a215 	stw	r2,-32120(gp)
 2003510:	d0a0a217 	ldw	r2,-32120(gp)
 2003514:	1004403a 	cmpge	r2,r2,zero
 2003518:	1000011e 	bne	r2,zero,2003520 <isr_handler_TimerONOF+0x16c>
 200351c:	d020a215 	stw	zero,-32120(gp)
 2003520:	00810034 	movhi	r2,1024
 2003524:	10882004 	addi	r2,r2,8320
 2003528:	10000035 	stwio	zero,0(r2)
 200352c:	e037883a 	mov	sp,fp
 2003530:	dfc00117 	ldw	ra,4(sp)
 2003534:	df000017 	ldw	fp,0(sp)
 2003538:	dec00204 	addi	sp,sp,8
 200353c:	f800283a 	ret

02003540 <main>:
 2003540:	deffec04 	addi	sp,sp,-80
 2003544:	dfc01315 	stw	ra,76(sp)
 2003548:	df001215 	stw	fp,72(sp)
 200354c:	df001204 	addi	fp,sp,72
 2003550:	d0e00917 	ldw	r3,-32732(gp)
 2003554:	d0a00a17 	ldw	r2,-32728(gp)
 2003558:	1120003c 	xorhi	r4,r2,32768
 200355c:	d1600b17 	ldw	r5,-32724(gp)
 2003560:	d1a00917 	ldw	r6,-32732(gp)
 2003564:	d1e00a17 	ldw	r7,-32728(gp)
 2003568:	d0a00b17 	ldw	r2,-32724(gp)
 200356c:	1220003c 	xorhi	r8,r2,32768
 2003570:	d2600917 	ldw	r9,-32732(gp)
 2003574:	d2a00a17 	ldw	r10,-32728(gp)
 2003578:	d2e00b17 	ldw	r11,-32724(gp)
 200357c:	d3200917 	ldw	r12,-32732(gp)
 2003580:	d0a00a17 	ldw	r2,-32728(gp)
 2003584:	1360003c 	xorhi	r13,r2,32768
 2003588:	d0a00b17 	ldw	r2,-32724(gp)
 200358c:	10a0003c 	xorhi	r2,r2,32768
 2003590:	e0ffef15 	stw	r3,-68(fp)
 2003594:	e03ff015 	stw	zero,-64(fp)
 2003598:	e13ff115 	stw	r4,-60(fp)
 200359c:	e17ff215 	stw	r5,-56(fp)
 20035a0:	e1bff315 	stw	r6,-52(fp)
 20035a4:	e1fff415 	stw	r7,-48(fp)
 20035a8:	e03ff515 	stw	zero,-44(fp)
 20035ac:	e23ff615 	stw	r8,-40(fp)
 20035b0:	e27ff715 	stw	r9,-36(fp)
 20035b4:	e03ff815 	stw	zero,-32(fp)
 20035b8:	e2bff915 	stw	r10,-28(fp)
 20035bc:	e2fffa15 	stw	r11,-24(fp)
 20035c0:	e33ffb15 	stw	r12,-20(fp)
 20035c4:	e37ffc15 	stw	r13,-16(fp)
 20035c8:	e03ffd15 	stw	zero,-12(fp)
 20035cc:	e0bffe15 	stw	r2,-8(fp)
 20035d0:	00c10034 	movhi	r3,1024
 20035d4:	18c80104 	addi	r3,r3,8196
 20035d8:	008001c4 	movi	r2,7
 20035dc:	18800035 	stwio	r2,0(r3)
 20035e0:	01000044 	movi	r4,1
 20035e4:	000b883a 	mov	r5,zero
 20035e8:	01808034 	movhi	r6,512
 20035ec:	318cdf04 	addi	r6,r6,13180
 20035f0:	200a8300 	call	200a830 <alt_irq_register>
 20035f4:	00c10034 	movhi	r3,1024
 20035f8:	18c82104 	addi	r3,r3,8324
 20035fc:	008001c4 	movi	r2,7
 2003600:	18800035 	stwio	r2,0(r3)
 2003604:	01000144 	movi	r4,5
 2003608:	000b883a 	mov	r5,zero
 200360c:	01808034 	movhi	r6,512
 2003610:	318ced04 	addi	r6,r6,13236
 2003614:	200a8300 	call	200a830 <alt_irq_register>
 2003618:	20038280 	call	2003828 <Config_PIDs>
 200361c:	00800104 	movi	r2,4
 2003620:	e0bfee15 	stw	r2,-72(fp)
 2003624:	00c10034 	movhi	r3,1024
 2003628:	18c85404 	addi	r3,r3,8528
 200362c:	00806404 	movi	r2,400
 2003630:	18800035 	stwio	r2,0(r3)
 2003634:	00c10034 	movhi	r3,1024
 2003638:	18c85804 	addi	r3,r3,8544
 200363c:	00806404 	movi	r2,400
 2003640:	18800035 	stwio	r2,0(r3)
 2003644:	00c10034 	movhi	r3,1024
 2003648:	18c85c04 	addi	r3,r3,8560
 200364c:	00806404 	movi	r2,400
 2003650:	18800035 	stwio	r2,0(r3)
 2003654:	00c10034 	movhi	r3,1024
 2003658:	18c86004 	addi	r3,r3,8576
 200365c:	00806404 	movi	r2,400
 2003660:	18800035 	stwio	r2,0(r3)
 2003664:	00001e06 	br	20036e0 <main+0x1a0>
 2003668:	d0a0a017 	ldw	r2,-32128(gp)
 200366c:	1005003a 	cmpeq	r2,r2,zero
 2003670:	10001b1e 	bne	r2,zero,20036e0 <main+0x1a0>
 2003674:	d020a015 	stw	zero,-32128(gp)
 2003678:	d0a08f17 	ldw	r2,-32196(gp)
 200367c:	10800044 	addi	r2,r2,1
 2003680:	d0a08f15 	stw	r2,-32196(gp)
 2003684:	d0a0a117 	ldw	r2,-32124(gp)
 2003688:	1007883a 	mov	r3,r2
 200368c:	00810034 	movhi	r2,1024
 2003690:	10885404 	addi	r2,r2,8528
 2003694:	10c00035 	stwio	r3,0(r2)
 2003698:	d0a0a117 	ldw	r2,-32124(gp)
 200369c:	1007883a 	mov	r3,r2
 20036a0:	00810034 	movhi	r2,1024
 20036a4:	10885804 	addi	r2,r2,8544
 20036a8:	10c00035 	stwio	r3,0(r2)
 20036ac:	d0a0a117 	ldw	r2,-32124(gp)
 20036b0:	1007883a 	mov	r3,r2
 20036b4:	00810034 	movhi	r2,1024
 20036b8:	10885c04 	addi	r2,r2,8560
 20036bc:	10c00035 	stwio	r3,0(r2)
 20036c0:	d0a0a117 	ldw	r2,-32124(gp)
 20036c4:	1007883a 	mov	r3,r2
 20036c8:	00810034 	movhi	r2,1024
 20036cc:	10886004 	addi	r2,r2,8576
 20036d0:	10c00035 	stwio	r3,0(r2)
 20036d4:	d0a0a117 	ldw	r2,-32124(gp)
 20036d8:	10800144 	addi	r2,r2,5
 20036dc:	d0a0a115 	stw	r2,-32124(gp)
 20036e0:	d0a08f17 	ldw	r2,-32196(gp)
 20036e4:	10807d10 	cmplti	r2,r2,500
 20036e8:	103fdf1e 	bne	r2,zero,2003668 <main+0x128>
 20036ec:	d0208f15 	stw	zero,-32196(gp)
 20036f0:	00000006 	br	20036f4 <main+0x1b4>
 20036f4:	d0a0a017 	ldw	r2,-32128(gp)
 20036f8:	1005003a 	cmpeq	r2,r2,zero
 20036fc:	103ffd1e 	bne	r2,zero,20036f4 <main+0x1b4>
 2003700:	d020a015 	stw	zero,-32128(gp)
 2003704:	20001fc0 	call	20001fc <FiltroKalmanExtendido>
 2003708:	20040340 	call	2004034 <SetPoints>
 200370c:	d0a0a317 	ldw	r2,-32116(gp)
 2003710:	e0bfff15 	stw	r2,-4(fp)
 2003714:	e0ffff17 	ldw	r3,-4(fp)
 2003718:	1805003a 	cmpeq	r2,r3,zero
 200371c:	1000041e 	bne	r2,zero,2003730 <main+0x1f0>
 2003720:	e0ffff17 	ldw	r3,-4(fp)
 2003724:	18800060 	cmpeqi	r2,r3,1
 2003728:	1000171e 	bne	r2,zero,2003788 <main+0x248>
 200372c:	00001c06 	br	20037a0 <main+0x260>
 2003730:	d0a00c17 	ldw	r2,-32720(gp)
 2003734:	10800048 	cmpgei	r2,r2,1
 2003738:	1000021e 	bne	r2,zero,2003744 <main+0x204>
 200373c:	00800044 	movi	r2,1
 2003740:	d0a0a315 	stw	r2,-32116(gp)
 2003744:	00c10034 	movhi	r3,1024
 2003748:	18c85404 	addi	r3,r3,8528
 200374c:	00864004 	movi	r2,6400
 2003750:	18800035 	stwio	r2,0(r3)
 2003754:	00c10034 	movhi	r3,1024
 2003758:	18c85804 	addi	r3,r3,8544
 200375c:	00864004 	movi	r2,6400
 2003760:	18800035 	stwio	r2,0(r3)
 2003764:	00c10034 	movhi	r3,1024
 2003768:	18c85c04 	addi	r3,r3,8560
 200376c:	00864004 	movi	r2,6400
 2003770:	18800035 	stwio	r2,0(r3)
 2003774:	00c10034 	movhi	r3,1024
 2003778:	18c86004 	addi	r3,r3,8576
 200377c:	00864004 	movi	r2,6400
 2003780:	18800035 	stwio	r2,0(r3)
 2003784:	00000606 	br	20037a0 <main+0x260>
 2003788:	d0a00c17 	ldw	r2,-32720(gp)
 200378c:	1005003a 	cmpeq	r2,r2,zero
 2003790:	1000011e 	bne	r2,zero,2003798 <main+0x258>
 2003794:	d020a315 	stw	zero,-32116(gp)
 2003798:	e13fef04 	addi	r4,fp,-68
 200379c:	2003b380 	call	2003b38 <AlgoritmoControl>
 20037a0:	e0bfee17 	ldw	r2,-72(fp)
 20037a4:	10800110 	cmplti	r2,r2,4
 20037a8:	1000061e 	bne	r2,zero,20037c4 <main+0x284>
 20037ac:	e03fee15 	stw	zero,-72(fp)
 20037b0:	20043880 	call	2004388 <Data_to_GCS>
 20037b4:	d1600217 	ldw	r5,-32760(gp)
 20037b8:	01008074 	movhi	r4,513
 20037bc:	21035604 	addi	r4,r4,3416
 20037c0:	20032800 	call	2003280 <SendTrama>
 20037c4:	e0bfee17 	ldw	r2,-72(fp)
 20037c8:	10800044 	addi	r2,r2,1
 20037cc:	e0bfee15 	stw	r2,-72(fp)
 20037d0:	d0a08f17 	ldw	r2,-32196(gp)
 20037d4:	10800044 	addi	r2,r2,1
 20037d8:	d0a08f15 	stw	r2,-32196(gp)
 20037dc:	003fc506 	br	20036f4 <main+0x1b4>

020037e0 <init_uart>:
 20037e0:	defffd04 	addi	sp,sp,-12
 20037e4:	dfc00215 	stw	ra,8(sp)
 20037e8:	df000115 	stw	fp,4(sp)
 20037ec:	df000104 	addi	fp,sp,4
 20037f0:	00c10034 	movhi	r3,1024
 20037f4:	18c81b04 	addi	r3,r3,8300
 20037f8:	00802004 	movi	r2,128
 20037fc:	18800035 	stwio	r2,0(r3)
 2003800:	01000104 	movi	r4,4
 2003804:	e17fff04 	addi	r5,fp,-4
 2003808:	01808034 	movhi	r6,512
 200380c:	3191cb04 	addi	r6,r6,18220
 2003810:	200a8300 	call	200a830 <alt_irq_register>
 2003814:	e037883a 	mov	sp,fp
 2003818:	dfc00117 	ldw	ra,4(sp)
 200381c:	df000017 	ldw	fp,0(sp)
 2003820:	dec00204 	addi	sp,sp,8
 2003824:	f800283a 	ret

02003828 <Config_PIDs>:
 2003828:	defffe04 	addi	sp,sp,-8
 200382c:	dfc00115 	stw	ra,4(sp)
 2003830:	df000015 	stw	fp,0(sp)
 2003834:	d839883a 	mov	fp,sp
 2003838:	00c08074 	movhi	r3,513
 200383c:	18c39304 	addi	r3,r3,3660
 2003840:	00800044 	movi	r2,1
 2003844:	18800b15 	stw	r2,44(r3)
 2003848:	00c08074 	movhi	r3,513
 200384c:	18c39304 	addi	r3,r3,3660
 2003850:	00800044 	movi	r2,1
 2003854:	18800c15 	stw	r2,48(r3)
 2003858:	00c08074 	movhi	r3,513
 200385c:	18c39304 	addi	r3,r3,3660
 2003860:	00800044 	movi	r2,1
 2003864:	18800d15 	stw	r2,52(r3)
 2003868:	00c08074 	movhi	r3,513
 200386c:	18c37904 	addi	r3,r3,3556
 2003870:	00800044 	movi	r2,1
 2003874:	18800b15 	stw	r2,44(r3)
 2003878:	00c08074 	movhi	r3,513
 200387c:	18c37904 	addi	r3,r3,3556
 2003880:	00800044 	movi	r2,1
 2003884:	18800c15 	stw	r2,48(r3)
 2003888:	00c08074 	movhi	r3,513
 200388c:	18c37904 	addi	r3,r3,3556
 2003890:	00800044 	movi	r2,1
 2003894:	18800d15 	stw	r2,52(r3)
 2003898:	00c08074 	movhi	r3,513
 200389c:	18c36304 	addi	r3,r3,3468
 20038a0:	00800044 	movi	r2,1
 20038a4:	18800b15 	stw	r2,44(r3)
 20038a8:	00c08074 	movhi	r3,513
 20038ac:	18c36304 	addi	r3,r3,3468
 20038b0:	00800044 	movi	r2,1
 20038b4:	18800c15 	stw	r2,48(r3)
 20038b8:	00c08074 	movhi	r3,513
 20038bc:	18c36304 	addi	r3,r3,3468
 20038c0:	00800044 	movi	r2,1
 20038c4:	18800d15 	stw	r2,52(r3)
 20038c8:	00c08074 	movhi	r3,513
 20038cc:	18c39304 	addi	r3,r3,3660
 20038d0:	00800044 	movi	r2,1
 20038d4:	18800a15 	stw	r2,40(r3)
 20038d8:	00c08074 	movhi	r3,513
 20038dc:	18c37904 	addi	r3,r3,3556
 20038e0:	00800044 	movi	r2,1
 20038e4:	18800a15 	stw	r2,40(r3)
 20038e8:	00c08074 	movhi	r3,513
 20038ec:	18c36304 	addi	r3,r3,3468
 20038f0:	00800044 	movi	r2,1
 20038f4:	18800a15 	stw	r2,40(r3)
 20038f8:	00c08074 	movhi	r3,513
 20038fc:	18c39304 	addi	r3,r3,3660
 2003900:	008fe034 	movhi	r2,16256
 2003904:	18800315 	stw	r2,12(r3)
 2003908:	00c08074 	movhi	r3,513
 200390c:	18c37904 	addi	r3,r3,3556
 2003910:	008fe034 	movhi	r2,16256
 2003914:	18800315 	stw	r2,12(r3)
 2003918:	00c08074 	movhi	r3,513
 200391c:	18c36304 	addi	r3,r3,3468
 2003920:	008f7374 	movhi	r2,15821
 2003924:	10b33344 	addi	r2,r2,-13107
 2003928:	18800315 	stw	r2,12(r3)
 200392c:	00c08074 	movhi	r3,513
 2003930:	18c39304 	addi	r3,r3,3660
 2003934:	008fe034 	movhi	r2,16256
 2003938:	18800415 	stw	r2,16(r3)
 200393c:	00c08074 	movhi	r3,513
 2003940:	18c39304 	addi	r3,r3,3660
 2003944:	00afe034 	movhi	r2,49024
 2003948:	18800515 	stw	r2,20(r3)
 200394c:	00c08074 	movhi	r3,513
 2003950:	18c37904 	addi	r3,r3,3556
 2003954:	008fe034 	movhi	r2,16256
 2003958:	18800415 	stw	r2,16(r3)
 200395c:	00c08074 	movhi	r3,513
 2003960:	18c37904 	addi	r3,r3,3556
 2003964:	00afe034 	movhi	r2,49024
 2003968:	18800515 	stw	r2,20(r3)
 200396c:	00c08074 	movhi	r3,513
 2003970:	18c36304 	addi	r3,r3,3468
 2003974:	008fe034 	movhi	r2,16256
 2003978:	18800415 	stw	r2,16(r3)
 200397c:	00c08074 	movhi	r3,513
 2003980:	18c36304 	addi	r3,r3,3468
 2003984:	00afe034 	movhi	r2,49024
 2003988:	18800515 	stw	r2,20(r3)
 200398c:	00c08074 	movhi	r3,513
 2003990:	18c39304 	addi	r3,r3,3660
 2003994:	008ef974 	movhi	r2,15333
 2003998:	10981084 	addi	r2,r2,24642
 200399c:	18800915 	stw	r2,36(r3)
 20039a0:	00c08074 	movhi	r3,513
 20039a4:	18c37904 	addi	r3,r3,3556
 20039a8:	008ef974 	movhi	r2,15333
 20039ac:	10981084 	addi	r2,r2,24642
 20039b0:	18800915 	stw	r2,36(r3)
 20039b4:	00c08074 	movhi	r3,513
 20039b8:	18c36304 	addi	r3,r3,3468
 20039bc:	008ef974 	movhi	r2,15333
 20039c0:	10981084 	addi	r2,r2,24642
 20039c4:	18800915 	stw	r2,36(r3)
 20039c8:	00c08074 	movhi	r3,513
 20039cc:	18c39304 	addi	r3,r3,3660
 20039d0:	008fe034 	movhi	r2,16256
 20039d4:	18800715 	stw	r2,28(r3)
 20039d8:	00c08074 	movhi	r3,513
 20039dc:	18c39304 	addi	r3,r3,3660
 20039e0:	008fe034 	movhi	r2,16256
 20039e4:	18800815 	stw	r2,32(r3)
 20039e8:	00c08074 	movhi	r3,513
 20039ec:	18c37904 	addi	r3,r3,3556
 20039f0:	008fe034 	movhi	r2,16256
 20039f4:	18800715 	stw	r2,28(r3)
 20039f8:	00c08074 	movhi	r3,513
 20039fc:	18c37904 	addi	r3,r3,3556
 2003a00:	008fe034 	movhi	r2,16256
 2003a04:	18800815 	stw	r2,32(r3)
 2003a08:	00c08074 	movhi	r3,513
 2003a0c:	18c36304 	addi	r3,r3,3468
 2003a10:	008fe034 	movhi	r2,16256
 2003a14:	18800715 	stw	r2,28(r3)
 2003a18:	00c08074 	movhi	r3,513
 2003a1c:	18c36304 	addi	r3,r3,3468
 2003a20:	008fe034 	movhi	r2,16256
 2003a24:	18800815 	stw	r2,32(r3)
 2003a28:	01008074 	movhi	r4,513
 2003a2c:	21039304 	addi	r4,r4,3660
 2003a30:	2002b480 	call	2002b48 <qPID_Init>
 2003a34:	01008074 	movhi	r4,513
 2003a38:	21037904 	addi	r4,r4,3556
 2003a3c:	2002b480 	call	2002b48 <qPID_Init>
 2003a40:	01008074 	movhi	r4,513
 2003a44:	21036304 	addi	r4,r4,3468
 2003a48:	2002b480 	call	2002b48 <qPID_Init>
 2003a4c:	00c08074 	movhi	r3,513
 2003a50:	18c39304 	addi	r3,r3,3660
 2003a54:	008f8534 	movhi	r2,15892
 2003a58:	109eb844 	addi	r2,r2,31457
 2003a5c:	18800015 	stw	r2,0(r3)
 2003a60:	00c08074 	movhi	r3,513
 2003a64:	18c39304 	addi	r3,r3,3660
 2003a68:	009023f4 	movhi	r2,16527
 2003a6c:	10970a44 	addi	r2,r2,23593
 2003a70:	18800115 	stw	r2,4(r3)
 2003a74:	00c08074 	movhi	r3,513
 2003a78:	18c39304 	addi	r3,r3,3660
 2003a7c:	008f81f4 	movhi	r2,15879
 2003a80:	1097dc04 	addi	r2,r2,24432
 2003a84:	18800215 	stw	r2,8(r3)
 2003a88:	00c08074 	movhi	r3,513
 2003a8c:	18c39304 	addi	r3,r3,3660
 2003a90:	00906834 	movhi	r2,16800
 2003a94:	18800615 	stw	r2,24(r3)
 2003a98:	00c08074 	movhi	r3,513
 2003a9c:	18c37904 	addi	r3,r3,3556
 2003aa0:	008f83f4 	movhi	r2,15887
 2003aa4:	10970a44 	addi	r2,r2,23593
 2003aa8:	18800015 	stw	r2,0(r3)
 2003aac:	00c08074 	movhi	r3,513
 2003ab0:	18c37904 	addi	r3,r3,3556
 2003ab4:	00903e74 	movhi	r2,16633
 2003ab8:	10a8f5c4 	addi	r2,r2,-23593
 2003abc:	18800115 	stw	r2,4(r3)
 2003ac0:	00c08074 	movhi	r3,513
 2003ac4:	18c37904 	addi	r3,r3,3556
 2003ac8:	008f5374 	movhi	r2,15693
 2003acc:	10b33344 	addi	r2,r2,-13107
 2003ad0:	18800215 	stw	r2,8(r3)
 2003ad4:	00c08074 	movhi	r3,513
 2003ad8:	18c37904 	addi	r3,r3,3556
 2003adc:	00906834 	movhi	r2,16800
 2003ae0:	18800615 	stw	r2,24(r3)
 2003ae4:	00c08074 	movhi	r3,513
 2003ae8:	18c36304 	addi	r3,r3,3468
 2003aec:	00900ef4 	movhi	r2,16443
 2003af0:	10bc6a84 	addi	r2,r2,-3670
 2003af4:	18800015 	stw	r2,0(r3)
 2003af8:	00c08074 	movhi	r3,513
 2003afc:	18c36304 	addi	r3,r3,3468
 2003b00:	00902034 	movhi	r2,16512
 2003b04:	18800115 	stw	r2,4(r3)
 2003b08:	00808074 	movhi	r2,513
 2003b0c:	10836304 	addi	r2,r2,3468
 2003b10:	10000215 	stw	zero,8(r2)
 2003b14:	00c08074 	movhi	r3,513
 2003b18:	18c36304 	addi	r3,r3,3468
 2003b1c:	00904834 	movhi	r2,16672
 2003b20:	18800615 	stw	r2,24(r3)
 2003b24:	e037883a 	mov	sp,fp
 2003b28:	dfc00117 	ldw	ra,4(sp)
 2003b2c:	df000017 	ldw	fp,0(sp)
 2003b30:	dec00204 	addi	sp,sp,8
 2003b34:	f800283a 	ret

02003b38 <AlgoritmoControl>:
 2003b38:	defffb04 	addi	sp,sp,-20
 2003b3c:	dfc00415 	stw	ra,16(sp)
 2003b40:	df000315 	stw	fp,12(sp)
 2003b44:	df000304 	addi	fp,sp,12
 2003b48:	e13fff15 	stw	r4,-4(fp)
 2003b4c:	e03ffe15 	stw	zero,-8(fp)
 2003b50:	e03ffd15 	stw	zero,-12(fp)
 2003b54:	d0e09117 	ldw	r3,-32188(gp)
 2003b58:	d0a05317 	ldw	r2,-32436(gp)
 2003b5c:	1887ffb2 	custom	254,r3,r3,r2
 2003b60:	00808074 	movhi	r2,513
 2003b64:	10833404 	addi	r2,r2,3280
 2003b68:	10c00015 	stw	r3,0(r2)
 2003b6c:	00808074 	movhi	r2,513
 2003b70:	10833404 	addi	r2,r2,3280
 2003b74:	10c00017 	ldw	r3,0(r2)
 2003b78:	d0a00317 	ldw	r2,-32756(gp)
 2003b7c:	1887ff32 	custom	252,r3,r3,r2
 2003b80:	d0a09e17 	ldw	r2,-32136(gp)
 2003b84:	1887ff72 	custom	253,r3,r3,r2
 2003b88:	00808074 	movhi	r2,513
 2003b8c:	10836004 	addi	r2,r2,3456
 2003b90:	10c00015 	stw	r3,0(r2)
 2003b94:	00808074 	movhi	r2,513
 2003b98:	10833704 	addi	r2,r2,3292
 2003b9c:	11000017 	ldw	r4,0(r2)
 2003ba0:	00808074 	movhi	r2,513
 2003ba4:	10833404 	addi	r2,r2,3280
 2003ba8:	10c00017 	ldw	r3,0(r2)
 2003bac:	d0a00817 	ldw	r2,-32736(gp)
 2003bb0:	1885ff32 	custom	252,r2,r3,r2
 2003bb4:	2087ff72 	custom	253,r3,r4,r2
 2003bb8:	00808074 	movhi	r2,513
 2003bbc:	10833704 	addi	r2,r2,3292
 2003bc0:	10c00015 	stw	r3,0(r2)
 2003bc4:	00808074 	movhi	r2,513
 2003bc8:	10833704 	addi	r2,r2,3292
 2003bcc:	10c00017 	ldw	r3,0(r2)
 2003bd0:	d0a00717 	ldw	r2,-32740(gp)
 2003bd4:	1885ff32 	custom	252,r2,r3,r2
 2003bd8:	d0a09e15 	stw	r2,-32136(gp)
 2003bdc:	00808074 	movhi	r2,513
 2003be0:	10836004 	addi	r2,r2,3456
 2003be4:	10800017 	ldw	r2,0(r2)
 2003be8:	d0a09515 	stw	r2,-32172(gp)
 2003bec:	d0e09217 	ldw	r3,-32184(gp)
 2003bf0:	d0a08517 	ldw	r2,-32236(gp)
 2003bf4:	1887ffb2 	custom	254,r3,r3,r2
 2003bf8:	00808074 	movhi	r2,513
 2003bfc:	10833404 	addi	r2,r2,3280
 2003c00:	10c00115 	stw	r3,4(r2)
 2003c04:	00808074 	movhi	r2,513
 2003c08:	10833404 	addi	r2,r2,3280
 2003c0c:	10c00117 	ldw	r3,4(r2)
 2003c10:	d0a00417 	ldw	r2,-32752(gp)
 2003c14:	1887ff32 	custom	252,r3,r3,r2
 2003c18:	d0a09d17 	ldw	r2,-32140(gp)
 2003c1c:	1887ff72 	custom	253,r3,r3,r2
 2003c20:	00808074 	movhi	r2,513
 2003c24:	10836004 	addi	r2,r2,3456
 2003c28:	10c00115 	stw	r3,4(r2)
 2003c2c:	00808074 	movhi	r2,513
 2003c30:	10833704 	addi	r2,r2,3292
 2003c34:	11000117 	ldw	r4,4(r2)
 2003c38:	00808074 	movhi	r2,513
 2003c3c:	10833404 	addi	r2,r2,3280
 2003c40:	10c00117 	ldw	r3,4(r2)
 2003c44:	d0a00817 	ldw	r2,-32736(gp)
 2003c48:	1885ff32 	custom	252,r2,r3,r2
 2003c4c:	2087ff72 	custom	253,r3,r4,r2
 2003c50:	00808074 	movhi	r2,513
 2003c54:	10833704 	addi	r2,r2,3292
 2003c58:	10c00115 	stw	r3,4(r2)
 2003c5c:	00808074 	movhi	r2,513
 2003c60:	10833704 	addi	r2,r2,3292
 2003c64:	10c00117 	ldw	r3,4(r2)
 2003c68:	d0a00617 	ldw	r2,-32744(gp)
 2003c6c:	1885ff32 	custom	252,r2,r3,r2
 2003c70:	d0a09d15 	stw	r2,-32140(gp)
 2003c74:	00808074 	movhi	r2,513
 2003c78:	10836004 	addi	r2,r2,3456
 2003c7c:	10800117 	ldw	r2,4(r2)
 2003c80:	d0a09615 	stw	r2,-32168(gp)
 2003c84:	d0e09417 	ldw	r3,-32176(gp)
 2003c88:	00808074 	movhi	r2,513
 2003c8c:	10838f04 	addi	r2,r2,3644
 2003c90:	10c00015 	stw	r3,0(r2)
 2003c94:	d0a09517 	ldw	r2,-32172(gp)
 2003c98:	d0e03417 	ldw	r3,-32560(gp)
 2003c9c:	01008074 	movhi	r4,513
 2003ca0:	21039304 	addi	r4,r4,3660
 2003ca4:	100b883a 	mov	r5,r2
 2003ca8:	180d883a 	mov	r6,r3
 2003cac:	000f883a 	mov	r7,zero
 2003cb0:	2002b880 	call	2002b88 <qPID_Process_>
 2003cb4:	1007883a 	mov	r3,r2
 2003cb8:	00808074 	movhi	r2,513
 2003cbc:	10838f04 	addi	r2,r2,3644
 2003cc0:	10c00115 	stw	r3,4(r2)
 2003cc4:	d0a09617 	ldw	r2,-32168(gp)
 2003cc8:	d0e07d17 	ldw	r3,-32268(gp)
 2003ccc:	01008074 	movhi	r4,513
 2003cd0:	21037904 	addi	r4,r4,3556
 2003cd4:	100b883a 	mov	r5,r2
 2003cd8:	180d883a 	mov	r6,r3
 2003cdc:	000f883a 	mov	r7,zero
 2003ce0:	2002b880 	call	2002b88 <qPID_Process_>
 2003ce4:	1007883a 	mov	r3,r2
 2003ce8:	00808074 	movhi	r2,513
 2003cec:	10838f04 	addi	r2,r2,3644
 2003cf0:	10c00215 	stw	r3,8(r2)
 2003cf4:	d0a09717 	ldw	r2,-32164(gp)
 2003cf8:	d0e02517 	ldw	r3,-32620(gp)
 2003cfc:	01008074 	movhi	r4,513
 2003d00:	21036304 	addi	r4,r4,3468
 2003d04:	100b883a 	mov	r5,r2
 2003d08:	180d883a 	mov	r6,r3
 2003d0c:	000f883a 	mov	r7,zero
 2003d10:	2002b880 	call	2002b88 <qPID_Process_>
 2003d14:	1007883a 	mov	r3,r2
 2003d18:	00808074 	movhi	r2,513
 2003d1c:	10838f04 	addi	r2,r2,3644
 2003d20:	10c00315 	stw	r3,12(r2)
 2003d24:	e03ffe15 	stw	zero,-8(fp)
 2003d28:	00003506 	br	2003e00 <AlgoritmoControl+0x2c8>
 2003d2c:	e17ffe17 	ldw	r5,-8(fp)
 2003d30:	e0bffe17 	ldw	r2,-8(fp)
 2003d34:	1004913a 	slli	r2,r2,4
 2003d38:	1007883a 	mov	r3,r2
 2003d3c:	e0bfff17 	ldw	r2,-4(fp)
 2003d40:	1885883a 	add	r2,r3,r2
 2003d44:	10c00017 	ldw	r3,0(r2)
 2003d48:	00808074 	movhi	r2,513
 2003d4c:	10838f04 	addi	r2,r2,3644
 2003d50:	10800017 	ldw	r2,0(r2)
 2003d54:	1889ff32 	custom	252,r4,r3,r2
 2003d58:	e0bffe17 	ldw	r2,-8(fp)
 2003d5c:	1004913a 	slli	r2,r2,4
 2003d60:	1007883a 	mov	r3,r2
 2003d64:	e0bfff17 	ldw	r2,-4(fp)
 2003d68:	1885883a 	add	r2,r3,r2
 2003d6c:	10c00117 	ldw	r3,4(r2)
 2003d70:	00808074 	movhi	r2,513
 2003d74:	10838f04 	addi	r2,r2,3644
 2003d78:	10800117 	ldw	r2,4(r2)
 2003d7c:	1885ff32 	custom	252,r2,r3,r2
 2003d80:	2089ff72 	custom	253,r4,r4,r2
 2003d84:	e0bffe17 	ldw	r2,-8(fp)
 2003d88:	1004913a 	slli	r2,r2,4
 2003d8c:	1007883a 	mov	r3,r2
 2003d90:	e0bfff17 	ldw	r2,-4(fp)
 2003d94:	1885883a 	add	r2,r3,r2
 2003d98:	10c00217 	ldw	r3,8(r2)
 2003d9c:	00808074 	movhi	r2,513
 2003da0:	10838f04 	addi	r2,r2,3644
 2003da4:	10800217 	ldw	r2,8(r2)
 2003da8:	1885ff32 	custom	252,r2,r3,r2
 2003dac:	2089ff72 	custom	253,r4,r4,r2
 2003db0:	e0bffe17 	ldw	r2,-8(fp)
 2003db4:	1004913a 	slli	r2,r2,4
 2003db8:	1007883a 	mov	r3,r2
 2003dbc:	e0bfff17 	ldw	r2,-4(fp)
 2003dc0:	1885883a 	add	r2,r3,r2
 2003dc4:	10c00317 	ldw	r3,12(r2)
 2003dc8:	00808074 	movhi	r2,513
 2003dcc:	10838f04 	addi	r2,r2,3644
 2003dd0:	10800317 	ldw	r2,12(r2)
 2003dd4:	1885ff32 	custom	252,r2,r3,r2
 2003dd8:	2089ff72 	custom	253,r4,r4,r2
 2003ddc:	00c08074 	movhi	r3,513
 2003de0:	18c37504 	addi	r3,r3,3540
 2003de4:	2945883a 	add	r2,r5,r5
 2003de8:	1085883a 	add	r2,r2,r2
 2003dec:	10c5883a 	add	r2,r2,r3
 2003df0:	11000015 	stw	r4,0(r2)
 2003df4:	e0bffe17 	ldw	r2,-8(fp)
 2003df8:	10800044 	addi	r2,r2,1
 2003dfc:	e0bffe15 	stw	r2,-8(fp)
 2003e00:	e0bffe17 	ldw	r2,-8(fp)
 2003e04:	10800110 	cmplti	r2,r2,4
 2003e08:	103fc81e 	bne	r2,zero,2003d2c <AlgoritmoControl+0x1f4>
 2003e0c:	00808074 	movhi	r2,513
 2003e10:	10837504 	addi	r2,r2,3540
 2003e14:	10c00017 	ldw	r3,0(r2)
 2003e18:	00916bf4 	movhi	r2,17839
 2003e1c:	1887ff32 	custom	252,r3,r3,r2
 2003e20:	00917574 	movhi	r2,17877
 2003e24:	10a00004 	addi	r2,r2,-32768
 2003e28:	1887ff72 	custom	253,r3,r3,r2
 2003e2c:	00808074 	movhi	r2,513
 2003e30:	10838b04 	addi	r2,r2,3628
 2003e34:	10c00015 	stw	r3,0(r2)
 2003e38:	00808074 	movhi	r2,513
 2003e3c:	10837504 	addi	r2,r2,3540
 2003e40:	10c00117 	ldw	r3,4(r2)
 2003e44:	00916bf4 	movhi	r2,17839
 2003e48:	1887ff32 	custom	252,r3,r3,r2
 2003e4c:	00917574 	movhi	r2,17877
 2003e50:	10a00004 	addi	r2,r2,-32768
 2003e54:	1887ff72 	custom	253,r3,r3,r2
 2003e58:	00808074 	movhi	r2,513
 2003e5c:	10838b04 	addi	r2,r2,3628
 2003e60:	10c00115 	stw	r3,4(r2)
 2003e64:	00808074 	movhi	r2,513
 2003e68:	10837504 	addi	r2,r2,3540
 2003e6c:	10c00217 	ldw	r3,8(r2)
 2003e70:	00916bf4 	movhi	r2,17839
 2003e74:	1887ff32 	custom	252,r3,r3,r2
 2003e78:	00917574 	movhi	r2,17877
 2003e7c:	10a00004 	addi	r2,r2,-32768
 2003e80:	1887ff72 	custom	253,r3,r3,r2
 2003e84:	00808074 	movhi	r2,513
 2003e88:	10838b04 	addi	r2,r2,3628
 2003e8c:	10c00215 	stw	r3,8(r2)
 2003e90:	00808074 	movhi	r2,513
 2003e94:	10837504 	addi	r2,r2,3540
 2003e98:	10c00317 	ldw	r3,12(r2)
 2003e9c:	00916bf4 	movhi	r2,17839
 2003ea0:	1887ff32 	custom	252,r3,r3,r2
 2003ea4:	00917574 	movhi	r2,17877
 2003ea8:	10a00004 	addi	r2,r2,-32768
 2003eac:	1887ff72 	custom	253,r3,r3,r2
 2003eb0:	00808074 	movhi	r2,513
 2003eb4:	10838b04 	addi	r2,r2,3628
 2003eb8:	10c00315 	stw	r3,12(r2)
 2003ebc:	e03ffd15 	stw	zero,-12(fp)
 2003ec0:	00003006 	br	2003f84 <AlgoritmoControl+0x44c>
 2003ec4:	e0bffd17 	ldw	r2,-12(fp)
 2003ec8:	00c08074 	movhi	r3,513
 2003ecc:	18c38b04 	addi	r3,r3,3628
 2003ed0:	1085883a 	add	r2,r2,r2
 2003ed4:	1085883a 	add	r2,r2,r2
 2003ed8:	10c5883a 	add	r2,r2,r3
 2003edc:	10800017 	ldw	r2,0(r2)
 2003ee0:	1009883a 	mov	r4,r2
 2003ee4:	01517234 	movhi	r5,17864
 2003ee8:	2008bf80 	call	2008bf8 <__ltsf2>
 2003eec:	1004803a 	cmplt	r2,r2,zero
 2003ef0:	1000011e 	bne	r2,zero,2003ef8 <AlgoritmoControl+0x3c0>
 2003ef4:	00000906 	br	2003f1c <AlgoritmoControl+0x3e4>
 2003ef8:	e0bffd17 	ldw	r2,-12(fp)
 2003efc:	00c08074 	movhi	r3,513
 2003f00:	18c38b04 	addi	r3,r3,3628
 2003f04:	1085883a 	add	r2,r2,r2
 2003f08:	1085883a 	add	r2,r2,r2
 2003f0c:	10c7883a 	add	r3,r2,r3
 2003f10:	00917234 	movhi	r2,17864
 2003f14:	18800015 	stw	r2,0(r3)
 2003f18:	00001706 	br	2003f78 <AlgoritmoControl+0x440>
 2003f1c:	e0bffd17 	ldw	r2,-12(fp)
 2003f20:	00c08074 	movhi	r3,513
 2003f24:	18c38b04 	addi	r3,r3,3628
 2003f28:	1085883a 	add	r2,r2,r2
 2003f2c:	1085883a 	add	r2,r2,r2
 2003f30:	10c5883a 	add	r2,r2,r3
 2003f34:	10800017 	ldw	r2,0(r2)
 2003f38:	1009883a 	mov	r4,r2
 2003f3c:	015193b4 	movhi	r5,17998
 2003f40:	29500004 	addi	r5,r5,16384
 2003f44:	2008b080 	call	2008b08 <__gtsf2>
 2003f48:	10800048 	cmpgei	r2,r2,1
 2003f4c:	1000011e 	bne	r2,zero,2003f54 <AlgoritmoControl+0x41c>
 2003f50:	00000906 	br	2003f78 <AlgoritmoControl+0x440>
 2003f54:	e0bffd17 	ldw	r2,-12(fp)
 2003f58:	00c08074 	movhi	r3,513
 2003f5c:	18c38b04 	addi	r3,r3,3628
 2003f60:	1085883a 	add	r2,r2,r2
 2003f64:	1085883a 	add	r2,r2,r2
 2003f68:	10c7883a 	add	r3,r2,r3
 2003f6c:	009193b4 	movhi	r2,17998
 2003f70:	10900004 	addi	r2,r2,16384
 2003f74:	18800015 	stw	r2,0(r3)
 2003f78:	e0bffd17 	ldw	r2,-12(fp)
 2003f7c:	10800044 	addi	r2,r2,1
 2003f80:	e0bffd15 	stw	r2,-12(fp)
 2003f84:	e0bffd17 	ldw	r2,-12(fp)
 2003f88:	10800110 	cmplti	r2,r2,4
 2003f8c:	103fcd1e 	bne	r2,zero,2003ec4 <AlgoritmoControl+0x38c>
 2003f90:	00808074 	movhi	r2,513
 2003f94:	10838b04 	addi	r2,r2,3628
 2003f98:	10800017 	ldw	r2,0(r2)
 2003f9c:	1009883a 	mov	r4,r2
 2003fa0:	2008d080 	call	2008d08 <__fixsfsi>
 2003fa4:	1007883a 	mov	r3,r2
 2003fa8:	00810034 	movhi	r2,1024
 2003fac:	10885404 	addi	r2,r2,8528
 2003fb0:	10c00035 	stwio	r3,0(r2)
 2003fb4:	00808074 	movhi	r2,513
 2003fb8:	10838b04 	addi	r2,r2,3628
 2003fbc:	10800117 	ldw	r2,4(r2)
 2003fc0:	1009883a 	mov	r4,r2
 2003fc4:	2008d080 	call	2008d08 <__fixsfsi>
 2003fc8:	1007883a 	mov	r3,r2
 2003fcc:	00810034 	movhi	r2,1024
 2003fd0:	10885804 	addi	r2,r2,8544
 2003fd4:	10c00035 	stwio	r3,0(r2)
 2003fd8:	00808074 	movhi	r2,513
 2003fdc:	10838b04 	addi	r2,r2,3628
 2003fe0:	10800217 	ldw	r2,8(r2)
 2003fe4:	1009883a 	mov	r4,r2
 2003fe8:	2008d080 	call	2008d08 <__fixsfsi>
 2003fec:	1007883a 	mov	r3,r2
 2003ff0:	00810034 	movhi	r2,1024
 2003ff4:	10885c04 	addi	r2,r2,8560
 2003ff8:	10c00035 	stwio	r3,0(r2)
 2003ffc:	00808074 	movhi	r2,513
 2004000:	10838b04 	addi	r2,r2,3628
 2004004:	10800317 	ldw	r2,12(r2)
 2004008:	1009883a 	mov	r4,r2
 200400c:	2008d080 	call	2008d08 <__fixsfsi>
 2004010:	1007883a 	mov	r3,r2
 2004014:	00810034 	movhi	r2,1024
 2004018:	10886004 	addi	r2,r2,8576
 200401c:	10c00035 	stwio	r3,0(r2)
 2004020:	e037883a 	mov	sp,fp
 2004024:	dfc00117 	ldw	ra,4(sp)
 2004028:	df000017 	ldw	fp,0(sp)
 200402c:	dec00204 	addi	sp,sp,8
 2004030:	f800283a 	ret

02004034 <SetPoints>:
 2004034:	defffc04 	addi	sp,sp,-16
 2004038:	dfc00315 	stw	ra,12(sp)
 200403c:	df000215 	stw	fp,8(sp)
 2004040:	df000204 	addi	fp,sp,8
 2004044:	00810034 	movhi	r2,1024
 2004048:	10886404 	addi	r2,r2,8592
 200404c:	10800037 	ldwio	r2,0(r2)
 2004050:	d0a09b0d 	sth	r2,-32148(gp)
 2004054:	00810034 	movhi	r2,1024
 2004058:	10886804 	addi	r2,r2,8608
 200405c:	10800037 	ldwio	r2,0(r2)
 2004060:	d0a09b8d 	sth	r2,-32146(gp)
 2004064:	00810034 	movhi	r2,1024
 2004068:	10886c04 	addi	r2,r2,8624
 200406c:	10800037 	ldwio	r2,0(r2)
 2004070:	d0a09c0d 	sth	r2,-32144(gp)
 2004074:	00810034 	movhi	r2,1024
 2004078:	10887004 	addi	r2,r2,8640
 200407c:	10800037 	ldwio	r2,0(r2)
 2004080:	d0a09c8d 	sth	r2,-32142(gp)
 2004084:	d0a09b0b 	ldhu	r2,-32148(gp)
 2004088:	10bfffcc 	andi	r2,r2,65535
 200408c:	10820d30 	cmpltui	r2,r2,2100
 2004090:	1000041e 	bne	r2,zero,20040a4 <SetPoints+0x70>
 2004094:	d0a09b0b 	ldhu	r2,-32148(gp)
 2004098:	10bfffcc 	andi	r2,r2,65535
 200409c:	1083c2f0 	cmpltui	r2,r2,3851
 20040a0:	1000021e 	bne	r2,zero,20040ac <SetPoints+0x78>
 20040a4:	0082e584 	movi	r2,2966
 20040a8:	d0a09b0d 	sth	r2,-32148(gp)
 20040ac:	d0a09c0b 	ldhu	r2,-32144(gp)
 20040b0:	10bfffcc 	andi	r2,r2,65535
 20040b4:	10820d30 	cmpltui	r2,r2,2100
 20040b8:	1000041e 	bne	r2,zero,20040cc <SetPoints+0x98>
 20040bc:	d0a09c0b 	ldhu	r2,-32144(gp)
 20040c0:	10bfffcc 	andi	r2,r2,65535
 20040c4:	1083c2f0 	cmpltui	r2,r2,3851
 20040c8:	1000021e 	bne	r2,zero,20040d4 <SetPoints+0xa0>
 20040cc:	0082e684 	movi	r2,2970
 20040d0:	d0a09c0d 	sth	r2,-32144(gp)
 20040d4:	d0a09c8b 	ldhu	r2,-32142(gp)
 20040d8:	10bfffcc 	andi	r2,r2,65535
 20040dc:	10820d30 	cmpltui	r2,r2,2100
 20040e0:	10000c1e 	bne	r2,zero,2004114 <SetPoints+0xe0>
 20040e4:	d0a09c8b 	ldhu	r2,-32142(gp)
 20040e8:	10bfffcc 	andi	r2,r2,65535
 20040ec:	1083c2e8 	cmpgeui	r2,r2,3851
 20040f0:	1000081e 	bne	r2,zero,2004114 <SetPoints+0xe0>
 20040f4:	d0a09c8b 	ldhu	r2,-32142(gp)
 20040f8:	10bfffcc 	andi	r2,r2,65535
 20040fc:	1082da70 	cmpltui	r2,r2,2921
 2004100:	1000061e 	bne	r2,zero,200411c <SetPoints+0xe8>
 2004104:	d0a09c8b 	ldhu	r2,-32142(gp)
 2004108:	10bfffcc 	andi	r2,r2,65535
 200410c:	1082e928 	cmpgeui	r2,r2,2980
 2004110:	1000021e 	bne	r2,zero,200411c <SetPoints+0xe8>
 2004114:	0082e2c4 	movi	r2,2955
 2004118:	d0a09c8d 	sth	r2,-32142(gp)
 200411c:	d0a09b8b 	ldhu	r2,-32146(gp)
 2004120:	113fffcc 	andi	r4,r2,65535
 2004124:	2008c700 	call	2008c70 <__floatsisf>
 2004128:	1007883a 	mov	r3,r2
 200412c:	008e6fb4 	movhi	r2,14782
 2004130:	108f0c44 	addi	r2,r2,15409
 2004134:	1887ff32 	custom	252,r3,r3,r2
 2004138:	008fb074 	movhi	r2,16065
 200413c:	10a99d44 	addi	r2,r2,-22923
 2004140:	1885ffb2 	custom	254,r2,r3,r2
 2004144:	e0bfff15 	stw	r2,-4(fp)
 2004148:	e0ffff17 	ldw	r3,-4(fp)
 200414c:	0090d234 	movhi	r2,17224
 2004150:	1885ff32 	custom	252,r2,r3,r2
 2004154:	1009883a 	mov	r4,r2
 2004158:	2008d080 	call	2008d08 <__fixsfsi>
 200415c:	e0bffe15 	stw	r2,-8(fp)
 2004160:	d0e09017 	ldw	r3,-32192(gp)
 2004164:	e0bffe17 	ldw	r2,-8(fp)
 2004168:	1887883a 	add	r3,r3,r2
 200416c:	1804d7fa 	srli	r2,r3,31
 2004170:	10c5883a 	add	r2,r2,r3
 2004174:	1005d07a 	srai	r2,r2,1
 2004178:	1009883a 	mov	r4,r2
 200417c:	2008c700 	call	2008c70 <__floatsisf>
 2004180:	1009883a 	mov	r4,r2
 2004184:	0150d234 	movhi	r5,17224
 2004188:	20089940 	call	2008994 <__divsf3>
 200418c:	d0a09415 	stw	r2,-32176(gp)
 2004190:	d0e09417 	ldw	r3,-32176(gp)
 2004194:	0090d234 	movhi	r2,17224
 2004198:	1885ff32 	custom	252,r2,r3,r2
 200419c:	1009883a 	mov	r4,r2
 20041a0:	2008d080 	call	2008d08 <__fixsfsi>
 20041a4:	d0a09015 	stw	r2,-32192(gp)
 20041a8:	d0e09417 	ldw	r3,-32176(gp)
 20041ac:	008ee934 	movhi	r2,15268
 20041b0:	10b5c284 	addi	r2,r2,-10486
 20041b4:	1885ff72 	custom	253,r2,r3,r2
 20041b8:	d0a09415 	stw	r2,-32176(gp)
 20041bc:	d0a09b8b 	ldhu	r2,-32146(gp)
 20041c0:	10bfffcc 	andi	r2,r2,65535
 20041c4:	10825bf0 	cmpltui	r2,r2,2415
 20041c8:	1000041e 	bne	r2,zero,20041dc <SetPoints+0x1a8>
 20041cc:	d0a09b8b 	ldhu	r2,-32146(gp)
 20041d0:	10bfffcc 	andi	r2,r2,65535
 20041d4:	1083c2f0 	cmpltui	r2,r2,3851
 20041d8:	1000151e 	bne	r2,zero,2004230 <SetPoints+0x1fc>
 20041dc:	00afa034 	movhi	r2,48768
 20041e0:	d0a09415 	stw	r2,-32176(gp)
 20041e4:	00808074 	movhi	r2,513
 20041e8:	10837904 	addi	r2,r2,3556
 20041ec:	10000d15 	stw	zero,52(r2)
 20041f0:	00808074 	movhi	r2,513
 20041f4:	10839304 	addi	r2,r2,3660
 20041f8:	10000d15 	stw	zero,52(r2)
 20041fc:	00808074 	movhi	r2,513
 2004200:	10836304 	addi	r2,r2,3468
 2004204:	10000d15 	stw	zero,52(r2)
 2004208:	00808074 	movhi	r2,513
 200420c:	10833704 	addi	r2,r2,3292
 2004210:	10000015 	stw	zero,0(r2)
 2004214:	00808074 	movhi	r2,513
 2004218:	10833704 	addi	r2,r2,3292
 200421c:	10000115 	stw	zero,4(r2)
 2004220:	00808074 	movhi	r2,513
 2004224:	10833704 	addi	r2,r2,3292
 2004228:	10000215 	stw	zero,8(r2)
 200422c:	00000c06 	br	2004260 <SetPoints+0x22c>
 2004230:	00c08074 	movhi	r3,513
 2004234:	18c37904 	addi	r3,r3,3556
 2004238:	00800044 	movi	r2,1
 200423c:	18800d15 	stw	r2,52(r3)
 2004240:	00c08074 	movhi	r3,513
 2004244:	18c39304 	addi	r3,r3,3660
 2004248:	00800044 	movi	r2,1
 200424c:	18800d15 	stw	r2,52(r3)
 2004250:	00c08074 	movhi	r3,513
 2004254:	18c36304 	addi	r3,r3,3468
 2004258:	00800044 	movi	r2,1
 200425c:	18800d15 	stw	r2,52(r3)
 2004260:	d0a09b0b 	ldhu	r2,-32148(gp)
 2004264:	113fffcc 	andi	r4,r2,65535
 2004268:	2008c700 	call	2008c70 <__floatsisf>
 200426c:	1007883a 	mov	r3,r2
 2004270:	008f3d74 	movhi	r2,15605
 2004274:	10bc3604 	addi	r2,r2,-3880
 2004278:	1887ff32 	custom	252,r3,r3,r2
 200427c:	0090ac74 	movhi	r2,17073
 2004280:	109779c4 	addi	r2,r2,24039
 2004284:	1885ffb2 	custom	254,r2,r3,r2
 2004288:	1009883a 	mov	r4,r2
 200428c:	2004b000 	call	2004b00 <roundf>
 2004290:	1007883a 	mov	r3,r2
 2004294:	008fc034 	movhi	r2,16128
 2004298:	1885ff72 	custom	253,r2,r3,r2
 200429c:	d0a09115 	stw	r2,-32188(gp)
 20042a0:	d0a09c0b 	ldhu	r2,-32144(gp)
 20042a4:	113fffcc 	andi	r4,r2,65535
 20042a8:	2008c700 	call	2008c70 <__floatsisf>
 20042ac:	1007883a 	mov	r3,r2
 20042b0:	008f3d34 	movhi	r2,15604
 20042b4:	1087c844 	addi	r2,r2,7969
 20042b8:	1887ff32 	custom	252,r3,r3,r2
 20042bc:	0090ac74 	movhi	r2,17073
 20042c0:	1080c484 	addi	r2,r2,786
 20042c4:	1885ffb2 	custom	254,r2,r3,r2
 20042c8:	1009883a 	mov	r4,r2
 20042cc:	2004b000 	call	2004b00 <roundf>
 20042d0:	1007883a 	mov	r3,r2
 20042d4:	00afe034 	movhi	r2,49024
 20042d8:	10c5ffb2 	custom	254,r2,r2,r3
 20042dc:	d0a09215 	stw	r2,-32184(gp)
 20042e0:	d0a09c8b 	ldhu	r2,-32142(gp)
 20042e4:	113fffcc 	andi	r4,r2,65535
 20042e8:	2008c700 	call	2008c70 <__floatsisf>
 20042ec:	1007883a 	mov	r3,r2
 20042f0:	008f8df4 	movhi	r2,15927
 20042f4:	1085d644 	addi	r2,r2,5977
 20042f8:	1887ff32 	custom	252,r3,r3,r2
 20042fc:	00910134 	movhi	r2,17412
 2004300:	1085aa04 	addi	r2,r2,5800
 2004304:	1885ffb2 	custom	254,r2,r3,r2
 2004308:	1009883a 	mov	r4,r2
 200430c:	2004b000 	call	2004b00 <roundf>
 2004310:	d0a09715 	stw	r2,-32164(gp)
 2004314:	d0e09117 	ldw	r3,-32188(gp)
 2004318:	00901274 	movhi	r2,16457
 200431c:	1083f6c4 	addi	r2,r2,4059
 2004320:	1885ff32 	custom	252,r2,r3,r2
 2004324:	1009883a 	mov	r4,r2
 2004328:	0150cd34 	movhi	r5,17204
 200432c:	20089940 	call	2008994 <__divsf3>
 2004330:	d0a09115 	stw	r2,-32188(gp)
 2004334:	d0e09217 	ldw	r3,-32184(gp)
 2004338:	00901274 	movhi	r2,16457
 200433c:	1083f6c4 	addi	r2,r2,4059
 2004340:	1885ff32 	custom	252,r2,r3,r2
 2004344:	1009883a 	mov	r4,r2
 2004348:	0150cd34 	movhi	r5,17204
 200434c:	20089940 	call	2008994 <__divsf3>
 2004350:	d0a09215 	stw	r2,-32184(gp)
 2004354:	d0e09717 	ldw	r3,-32164(gp)
 2004358:	00901274 	movhi	r2,16457
 200435c:	1083f6c4 	addi	r2,r2,4059
 2004360:	1885ff32 	custom	252,r2,r3,r2
 2004364:	1009883a 	mov	r4,r2
 2004368:	0150cd34 	movhi	r5,17204
 200436c:	20089940 	call	2008994 <__divsf3>
 2004370:	d0a09715 	stw	r2,-32164(gp)
 2004374:	e037883a 	mov	sp,fp
 2004378:	dfc00117 	ldw	ra,4(sp)
 200437c:	df000017 	ldw	fp,0(sp)
 2004380:	dec00204 	addi	sp,sp,8
 2004384:	f800283a 	ret

02004388 <Data_to_GCS>:
 2004388:	defffe04 	addi	sp,sp,-8
 200438c:	dfc00115 	stw	ra,4(sp)
 2004390:	df000015 	stw	fp,0(sp)
 2004394:	d839883a 	mov	fp,sp
 2004398:	d0e06f17 	ldw	r3,-32324(gp)
 200439c:	00808074 	movhi	r2,513
 20043a0:	10835604 	addi	r2,r2,3416
 20043a4:	10c00015 	stw	r3,0(r2)
 20043a8:	d0e06e17 	ldw	r3,-32328(gp)
 20043ac:	00808074 	movhi	r2,513
 20043b0:	10835604 	addi	r2,r2,3416
 20043b4:	10c00115 	stw	r3,4(r2)
 20043b8:	d0e08317 	ldw	r3,-32244(gp)
 20043bc:	00808074 	movhi	r2,513
 20043c0:	10835604 	addi	r2,r2,3416
 20043c4:	10c00215 	stw	r3,8(r2)
 20043c8:	d0e03417 	ldw	r3,-32560(gp)
 20043cc:	0090cd34 	movhi	r2,17204
 20043d0:	1885ff32 	custom	252,r2,r3,r2
 20043d4:	1009883a 	mov	r4,r2
 20043d8:	01501274 	movhi	r5,16457
 20043dc:	2943f6c4 	addi	r5,r5,4059
 20043e0:	20089940 	call	2008994 <__divsf3>
 20043e4:	1007883a 	mov	r3,r2
 20043e8:	00808074 	movhi	r2,513
 20043ec:	10835604 	addi	r2,r2,3416
 20043f0:	10c00315 	stw	r3,12(r2)
 20043f4:	d0e07d17 	ldw	r3,-32268(gp)
 20043f8:	0090cd34 	movhi	r2,17204
 20043fc:	1885ff32 	custom	252,r2,r3,r2
 2004400:	1009883a 	mov	r4,r2
 2004404:	01501274 	movhi	r5,16457
 2004408:	2943f6c4 	addi	r5,r5,4059
 200440c:	20089940 	call	2008994 <__divsf3>
 2004410:	1007883a 	mov	r3,r2
 2004414:	00808074 	movhi	r2,513
 2004418:	10835604 	addi	r2,r2,3416
 200441c:	10c00415 	stw	r3,16(r2)
 2004420:	d0e02517 	ldw	r3,-32620(gp)
 2004424:	0090cd34 	movhi	r2,17204
 2004428:	1885ff32 	custom	252,r2,r3,r2
 200442c:	1009883a 	mov	r4,r2
 2004430:	01501274 	movhi	r5,16457
 2004434:	2943f6c4 	addi	r5,r5,4059
 2004438:	20089940 	call	2008994 <__divsf3>
 200443c:	1007883a 	mov	r3,r2
 2004440:	00808074 	movhi	r2,513
 2004444:	10835604 	addi	r2,r2,3416
 2004448:	10c00515 	stw	r3,20(r2)
 200444c:	d0e09117 	ldw	r3,-32188(gp)
 2004450:	0090cd34 	movhi	r2,17204
 2004454:	1885ff32 	custom	252,r2,r3,r2
 2004458:	1009883a 	mov	r4,r2
 200445c:	01501274 	movhi	r5,16457
 2004460:	2943f6c4 	addi	r5,r5,4059
 2004464:	20089940 	call	2008994 <__divsf3>
 2004468:	1007883a 	mov	r3,r2
 200446c:	00808074 	movhi	r2,513
 2004470:	10835604 	addi	r2,r2,3416
 2004474:	10c00615 	stw	r3,24(r2)
 2004478:	d0e09217 	ldw	r3,-32184(gp)
 200447c:	0090cd34 	movhi	r2,17204
 2004480:	1885ff32 	custom	252,r2,r3,r2
 2004484:	1009883a 	mov	r4,r2
 2004488:	01501274 	movhi	r5,16457
 200448c:	2943f6c4 	addi	r5,r5,4059
 2004490:	20089940 	call	2008994 <__divsf3>
 2004494:	1007883a 	mov	r3,r2
 2004498:	00808074 	movhi	r2,513
 200449c:	10835604 	addi	r2,r2,3416
 20044a0:	10c00715 	stw	r3,28(r2)
 20044a4:	d0e09717 	ldw	r3,-32164(gp)
 20044a8:	0090cd34 	movhi	r2,17204
 20044ac:	1885ff32 	custom	252,r2,r3,r2
 20044b0:	1009883a 	mov	r4,r2
 20044b4:	01501274 	movhi	r5,16457
 20044b8:	2943f6c4 	addi	r5,r5,4059
 20044bc:	20089940 	call	2008994 <__divsf3>
 20044c0:	1007883a 	mov	r3,r2
 20044c4:	00808074 	movhi	r2,513
 20044c8:	10835604 	addi	r2,r2,3416
 20044cc:	10c00815 	stw	r3,32(r2)
 20044d0:	d1208f17 	ldw	r4,-32196(gp)
 20044d4:	2008c700 	call	2008c70 <__floatsisf>
 20044d8:	1009883a 	mov	r4,r2
 20044dc:	0150b234 	movhi	r5,17096
 20044e0:	20089940 	call	2008994 <__divsf3>
 20044e4:	1007883a 	mov	r3,r2
 20044e8:	00808074 	movhi	r2,513
 20044ec:	10835604 	addi	r2,r2,3416
 20044f0:	10c00915 	stw	r3,36(r2)
 20044f4:	e037883a 	mov	sp,fp
 20044f8:	dfc00117 	ldw	ra,4(sp)
 20044fc:	df000017 	ldw	fp,0(sp)
 2004500:	dec00204 	addi	sp,sp,8
 2004504:	f800283a 	ret

02004508 <SetPIDs>:
 2004508:	defffe04 	addi	sp,sp,-8
 200450c:	df000115 	stw	fp,4(sp)
 2004510:	df000104 	addi	fp,sp,4
 2004514:	d0a00117 	ldw	r2,-32764(gp)
 2004518:	e0bfff15 	stw	r2,-4(fp)
 200451c:	e0ffff17 	ldw	r3,-4(fp)
 2004520:	18800228 	cmpgeui	r2,r3,8
 2004524:	10007b1e 	bne	r2,zero,2004714 <SetPIDs+0x20c>
 2004528:	e13fff17 	ldw	r4,-4(fp)
 200452c:	e13fff17 	ldw	r4,-4(fp)
 2004530:	2105883a 	add	r2,r4,r4
 2004534:	1087883a 	add	r3,r2,r2
 2004538:	00808034 	movhi	r2,512
 200453c:	10915304 	addi	r2,r2,17740
 2004540:	1885883a 	add	r2,r3,r2
 2004544:	10800017 	ldw	r2,0(r2)
 2004548:	1000683a 	jmp	r2
 200454c:	0200456c 	andhi	r8,zero,277
 2004550:	020045b8 	rdprs	r8,zero,278
 2004554:	02004604 	movi	r8,280
 2004558:	02004650 	cmplti	r8,zero,281
 200455c:	0200469c 	xori	r8,zero,282
 2004560:	020046c0 	call	20046c <__alt_mem_sdram-0x1dffb94>
 2004564:	020046e4 	muli	r8,zero,283
 2004568:	02004708 	cmpgei	r8,zero,284
 200456c:	00808074 	movhi	r2,513
 2004570:	10833a04 	addi	r2,r2,3304
 2004574:	10c00117 	ldw	r3,4(r2)
 2004578:	00808074 	movhi	r2,513
 200457c:	10839304 	addi	r2,r2,3660
 2004580:	10c00015 	stw	r3,0(r2)
 2004584:	00808074 	movhi	r2,513
 2004588:	10833a04 	addi	r2,r2,3304
 200458c:	10c00217 	ldw	r3,8(r2)
 2004590:	00808074 	movhi	r2,513
 2004594:	10839304 	addi	r2,r2,3660
 2004598:	10c00115 	stw	r3,4(r2)
 200459c:	00808074 	movhi	r2,513
 20045a0:	10833a04 	addi	r2,r2,3304
 20045a4:	10c00317 	ldw	r3,12(r2)
 20045a8:	00808074 	movhi	r2,513
 20045ac:	10839304 	addi	r2,r2,3660
 20045b0:	10c00215 	stw	r3,8(r2)
 20045b4:	00005906 	br	200471c <SetPIDs+0x214>
 20045b8:	00808074 	movhi	r2,513
 20045bc:	10833a04 	addi	r2,r2,3304
 20045c0:	10c00117 	ldw	r3,4(r2)
 20045c4:	00808074 	movhi	r2,513
 20045c8:	10839304 	addi	r2,r2,3660
 20045cc:	10c00015 	stw	r3,0(r2)
 20045d0:	00808074 	movhi	r2,513
 20045d4:	10833a04 	addi	r2,r2,3304
 20045d8:	10c00217 	ldw	r3,8(r2)
 20045dc:	00808074 	movhi	r2,513
 20045e0:	10839304 	addi	r2,r2,3660
 20045e4:	10c00115 	stw	r3,4(r2)
 20045e8:	00808074 	movhi	r2,513
 20045ec:	10833a04 	addi	r2,r2,3304
 20045f0:	10c00317 	ldw	r3,12(r2)
 20045f4:	00808074 	movhi	r2,513
 20045f8:	10839304 	addi	r2,r2,3660
 20045fc:	10c00215 	stw	r3,8(r2)
 2004600:	00004606 	br	200471c <SetPIDs+0x214>
 2004604:	00808074 	movhi	r2,513
 2004608:	10833a04 	addi	r2,r2,3304
 200460c:	10c00117 	ldw	r3,4(r2)
 2004610:	00808074 	movhi	r2,513
 2004614:	10837904 	addi	r2,r2,3556
 2004618:	10c00015 	stw	r3,0(r2)
 200461c:	00808074 	movhi	r2,513
 2004620:	10833a04 	addi	r2,r2,3304
 2004624:	10c00217 	ldw	r3,8(r2)
 2004628:	00808074 	movhi	r2,513
 200462c:	10837904 	addi	r2,r2,3556
 2004630:	10c00115 	stw	r3,4(r2)
 2004634:	00808074 	movhi	r2,513
 2004638:	10833a04 	addi	r2,r2,3304
 200463c:	10c00317 	ldw	r3,12(r2)
 2004640:	00808074 	movhi	r2,513
 2004644:	10837904 	addi	r2,r2,3556
 2004648:	10c00215 	stw	r3,8(r2)
 200464c:	00003306 	br	200471c <SetPIDs+0x214>
 2004650:	00808074 	movhi	r2,513
 2004654:	10833a04 	addi	r2,r2,3304
 2004658:	10c00117 	ldw	r3,4(r2)
 200465c:	00808074 	movhi	r2,513
 2004660:	10836304 	addi	r2,r2,3468
 2004664:	10c00015 	stw	r3,0(r2)
 2004668:	00808074 	movhi	r2,513
 200466c:	10833a04 	addi	r2,r2,3304
 2004670:	10c00217 	ldw	r3,8(r2)
 2004674:	00808074 	movhi	r2,513
 2004678:	10836304 	addi	r2,r2,3468
 200467c:	10c00115 	stw	r3,4(r2)
 2004680:	00808074 	movhi	r2,513
 2004684:	10833a04 	addi	r2,r2,3304
 2004688:	10c00317 	ldw	r3,12(r2)
 200468c:	00808074 	movhi	r2,513
 2004690:	10836304 	addi	r2,r2,3468
 2004694:	10c00215 	stw	r3,8(r2)
 2004698:	00002006 	br	200471c <SetPIDs+0x214>
 200469c:	00808074 	movhi	r2,513
 20046a0:	10833a04 	addi	r2,r2,3304
 20046a4:	10800117 	ldw	r2,4(r2)
 20046a8:	d0a00315 	stw	r2,-32756(gp)
 20046ac:	00808074 	movhi	r2,513
 20046b0:	10833a04 	addi	r2,r2,3304
 20046b4:	10800217 	ldw	r2,8(r2)
 20046b8:	d0a00715 	stw	r2,-32740(gp)
 20046bc:	00001706 	br	200471c <SetPIDs+0x214>
 20046c0:	00808074 	movhi	r2,513
 20046c4:	10833a04 	addi	r2,r2,3304
 20046c8:	10800117 	ldw	r2,4(r2)
 20046cc:	d0a00315 	stw	r2,-32756(gp)
 20046d0:	00808074 	movhi	r2,513
 20046d4:	10833a04 	addi	r2,r2,3304
 20046d8:	10800217 	ldw	r2,8(r2)
 20046dc:	d0a00715 	stw	r2,-32740(gp)
 20046e0:	00000e06 	br	200471c <SetPIDs+0x214>
 20046e4:	00808074 	movhi	r2,513
 20046e8:	10833a04 	addi	r2,r2,3304
 20046ec:	10800117 	ldw	r2,4(r2)
 20046f0:	d0a00415 	stw	r2,-32752(gp)
 20046f4:	00808074 	movhi	r2,513
 20046f8:	10833a04 	addi	r2,r2,3304
 20046fc:	10800217 	ldw	r2,8(r2)
 2004700:	d0a00615 	stw	r2,-32744(gp)
 2004704:	00000506 	br	200471c <SetPIDs+0x214>
 2004708:	00800044 	movi	r2,1
 200470c:	d0a08d15 	stw	r2,-32204(gp)
 2004710:	00000206 	br	200471c <SetPIDs+0x214>
 2004714:	00800044 	movi	r2,1
 2004718:	d0a08e15 	stw	r2,-32200(gp)
 200471c:	e037883a 	mov	sp,fp
 2004720:	df000017 	ldw	fp,0(sp)
 2004724:	dec00104 	addi	sp,sp,4
 2004728:	f800283a 	ret

0200472c <handle_uart_interrupts>:
 200472c:	defffc04 	addi	sp,sp,-16
 2004730:	df000315 	stw	fp,12(sp)
 2004734:	df000304 	addi	fp,sp,12
 2004738:	e13ffe15 	stw	r4,-8(fp)
 200473c:	e17fff15 	stw	r5,-4(fp)
 2004740:	00810034 	movhi	r2,1024
 2004744:	10881a04 	addi	r2,r2,8296
 2004748:	10800037 	ldwio	r2,0(r2)
 200474c:	e0bffd15 	stw	r2,-12(fp)
 2004750:	e0bffd17 	ldw	r2,-12(fp)
 2004754:	1080200c 	andi	r2,r2,128
 2004758:	1005003a 	cmpeq	r2,r2,zero
 200475c:	10002c1e 	bne	r2,zero,2004810 <handle_uart_interrupts+0xe4>
 2004760:	00810034 	movhi	r2,1024
 2004764:	10881804 	addi	r2,r2,8288
 2004768:	10800037 	ldwio	r2,0(r2)
 200476c:	10801698 	cmpnei	r2,r2,90
 2004770:	10000b1e 	bne	r2,zero,20047a0 <handle_uart_interrupts+0x74>
 2004774:	d0a09a17 	ldw	r2,-32152(gp)
 2004778:	10800058 	cmpnei	r2,r2,1
 200477c:	1000081e 	bne	r2,zero,20047a0 <handle_uart_interrupts+0x74>
 2004780:	d0209915 	stw	zero,-32156(gp)
 2004784:	d0209a15 	stw	zero,-32152(gp)
 2004788:	d0e0a417 	ldw	r3,-32112(gp)
 200478c:	d0a00017 	ldw	r2,-32768(gp)
 2004790:	1880021e 	bne	r3,r2,200479c <handle_uart_interrupts+0x70>
 2004794:	00800044 	movi	r2,1
 2004798:	d0a09815 	stw	r2,-32160(gp)
 200479c:	d020a415 	stw	zero,-32112(gp)
 20047a0:	d0a09917 	ldw	r2,-32156(gp)
 20047a4:	1005003a 	cmpeq	r2,r2,zero
 20047a8:	10000c1e 	bne	r2,zero,20047dc <handle_uart_interrupts+0xb0>
 20047ac:	d120a417 	ldw	r4,-32112(gp)
 20047b0:	00810034 	movhi	r2,1024
 20047b4:	10881804 	addi	r2,r2,8288
 20047b8:	10800037 	ldwio	r2,0(r2)
 20047bc:	1007883a 	mov	r3,r2
 20047c0:	00808074 	movhi	r2,513
 20047c4:	10833a04 	addi	r2,r2,3304
 20047c8:	1105883a 	add	r2,r2,r4
 20047cc:	10c00005 	stb	r3,0(r2)
 20047d0:	d0a0a417 	ldw	r2,-32112(gp)
 20047d4:	10800044 	addi	r2,r2,1
 20047d8:	d0a0a415 	stw	r2,-32112(gp)
 20047dc:	00810034 	movhi	r2,1024
 20047e0:	10881804 	addi	r2,r2,8288
 20047e4:	10800037 	ldwio	r2,0(r2)
 20047e8:	10801618 	cmpnei	r2,r2,88
 20047ec:	1000081e 	bne	r2,zero,2004810 <handle_uart_interrupts+0xe4>
 20047f0:	d0a09917 	ldw	r2,-32156(gp)
 20047f4:	1004c03a 	cmpne	r2,r2,zero
 20047f8:	1000051e 	bne	r2,zero,2004810 <handle_uart_interrupts+0xe4>
 20047fc:	00800044 	movi	r2,1
 2004800:	d0a09915 	stw	r2,-32156(gp)
 2004804:	00800044 	movi	r2,1
 2004808:	d0a09a15 	stw	r2,-32152(gp)
 200480c:	d020a415 	stw	zero,-32112(gp)
 2004810:	00810034 	movhi	r2,1024
 2004814:	10881a04 	addi	r2,r2,8296
 2004818:	10000035 	stwio	zero,0(r2)
 200481c:	e037883a 	mov	sp,fp
 2004820:	df000017 	ldw	fp,0(sp)
 2004824:	dec00104 	addi	sp,sp,4
 2004828:	f800283a 	ret

0200482c <cos>:
 200482c:	00a00034 	movhi	r2,32768
 2004830:	10bfffc4 	addi	r2,r2,-1
 2004834:	defffa04 	addi	sp,sp,-24
 2004838:	114c703a 	and	r6,r2,r5
 200483c:	008ffa74 	movhi	r2,16361
 2004840:	10887ec4 	addi	r2,r2,8699
 2004844:	dfc00515 	stw	ra,20(sp)
 2004848:	2011883a 	mov	r8,r4
 200484c:	1180210e 	bge	r2,r6,20048d4 <cos+0xa8>
 2004850:	009ffc34 	movhi	r2,32752
 2004854:	10bfffc4 	addi	r2,r2,-1
 2004858:	11800a0e 	bge	r2,r6,2004884 <cos+0x58>
 200485c:	280f883a 	mov	r7,r5
 2004860:	400d883a 	mov	r6,r8
 2004864:	20092000 	call	2009200 <__subdf3>
 2004868:	100d883a 	mov	r6,r2
 200486c:	180f883a 	mov	r7,r3
 2004870:	3005883a 	mov	r2,r6
 2004874:	3807883a 	mov	r3,r7
 2004878:	dfc00517 	ldw	ra,20(sp)
 200487c:	dec00604 	addi	sp,sp,24
 2004880:	f800283a 	ret
 2004884:	d9800104 	addi	r6,sp,4
 2004888:	2005a0c0 	call	2005a0c <__ieee754_rem_pio2>
 200488c:	10c000cc 	andi	r3,r2,3
 2004890:	01000044 	movi	r4,1
 2004894:	19001926 	beq	r3,r4,20048fc <cos+0xd0>
 2004898:	00800084 	movi	r2,2
 200489c:	18803126 	beq	r3,r2,2004964 <cos+0x138>
 20048a0:	1800231e 	bne	r3,zero,2004930 <cos+0x104>
 20048a4:	d8800117 	ldw	r2,4(sp)
 20048a8:	da000317 	ldw	r8,12(sp)
 20048ac:	d8c00217 	ldw	r3,8(sp)
 20048b0:	da400417 	ldw	r9,16(sp)
 20048b4:	400d883a 	mov	r6,r8
 20048b8:	180b883a 	mov	r5,r3
 20048bc:	480f883a 	mov	r7,r9
 20048c0:	1009883a 	mov	r4,r2
 20048c4:	20064fc0 	call	20064fc <__kernel_cos>
 20048c8:	100d883a 	mov	r6,r2
 20048cc:	180f883a 	mov	r7,r3
 20048d0:	003fe706 	br	2004870 <cos+0x44>
 20048d4:	000d883a 	mov	r6,zero
 20048d8:	000f883a 	mov	r7,zero
 20048dc:	20064fc0 	call	20064fc <__kernel_cos>
 20048e0:	100d883a 	mov	r6,r2
 20048e4:	180f883a 	mov	r7,r3
 20048e8:	3005883a 	mov	r2,r6
 20048ec:	3807883a 	mov	r3,r7
 20048f0:	dfc00517 	ldw	ra,20(sp)
 20048f4:	dec00604 	addi	sp,sp,24
 20048f8:	f800283a 	ret
 20048fc:	d8800117 	ldw	r2,4(sp)
 2004900:	da000317 	ldw	r8,12(sp)
 2004904:	d8c00217 	ldw	r3,8(sp)
 2004908:	da400417 	ldw	r9,16(sp)
 200490c:	d9000015 	stw	r4,0(sp)
 2004910:	400d883a 	mov	r6,r8
 2004914:	480f883a 	mov	r7,r9
 2004918:	180b883a 	mov	r5,r3
 200491c:	1009883a 	mov	r4,r2
 2004920:	20078a40 	call	20078a4 <__kernel_sin>
 2004924:	100d883a 	mov	r6,r2
 2004928:	19e0003c 	xorhi	r7,r3,32768
 200492c:	003fd006 	br	2004870 <cos+0x44>
 2004930:	d8800117 	ldw	r2,4(sp)
 2004934:	da000317 	ldw	r8,12(sp)
 2004938:	d8c00217 	ldw	r3,8(sp)
 200493c:	da400417 	ldw	r9,16(sp)
 2004940:	d9000015 	stw	r4,0(sp)
 2004944:	400d883a 	mov	r6,r8
 2004948:	480f883a 	mov	r7,r9
 200494c:	180b883a 	mov	r5,r3
 2004950:	1009883a 	mov	r4,r2
 2004954:	20078a40 	call	20078a4 <__kernel_sin>
 2004958:	100d883a 	mov	r6,r2
 200495c:	180f883a 	mov	r7,r3
 2004960:	003fc306 	br	2004870 <cos+0x44>
 2004964:	d8800117 	ldw	r2,4(sp)
 2004968:	da000317 	ldw	r8,12(sp)
 200496c:	d8c00217 	ldw	r3,8(sp)
 2004970:	da400417 	ldw	r9,16(sp)
 2004974:	400d883a 	mov	r6,r8
 2004978:	180b883a 	mov	r5,r3
 200497c:	480f883a 	mov	r7,r9
 2004980:	1009883a 	mov	r4,r2
 2004984:	20064fc0 	call	20064fc <__kernel_cos>
 2004988:	100d883a 	mov	r6,r2
 200498c:	19e0003c 	xorhi	r7,r3,32768
 2004990:	003fb706 	br	2004870 <cos+0x44>

02004994 <sin>:
 2004994:	00a00034 	movhi	r2,32768
 2004998:	10bfffc4 	addi	r2,r2,-1
 200499c:	defffa04 	addi	sp,sp,-24
 20049a0:	114c703a 	and	r6,r2,r5
 20049a4:	008ffa74 	movhi	r2,16361
 20049a8:	10887ec4 	addi	r2,r2,8699
 20049ac:	dfc00515 	stw	ra,20(sp)
 20049b0:	2011883a 	mov	r8,r4
 20049b4:	1180220e 	bge	r2,r6,2004a40 <sin+0xac>
 20049b8:	009ffc34 	movhi	r2,32752
 20049bc:	10bfffc4 	addi	r2,r2,-1
 20049c0:	11800a0e 	bge	r2,r6,20049ec <sin+0x58>
 20049c4:	280f883a 	mov	r7,r5
 20049c8:	400d883a 	mov	r6,r8
 20049cc:	20092000 	call	2009200 <__subdf3>
 20049d0:	100d883a 	mov	r6,r2
 20049d4:	180f883a 	mov	r7,r3
 20049d8:	3005883a 	mov	r2,r6
 20049dc:	3807883a 	mov	r3,r7
 20049e0:	dfc00517 	ldw	ra,20(sp)
 20049e4:	dec00604 	addi	sp,sp,24
 20049e8:	f800283a 	ret
 20049ec:	d9800104 	addi	r6,sp,4
 20049f0:	2005a0c0 	call	2005a0c <__ieee754_rem_pio2>
 20049f4:	10c000cc 	andi	r3,r2,3
 20049f8:	01000044 	movi	r4,1
 20049fc:	19001b26 	beq	r3,r4,2004a6c <sin+0xd8>
 2004a00:	00800084 	movi	r2,2
 2004a04:	18803126 	beq	r3,r2,2004acc <sin+0x138>
 2004a08:	1800241e 	bne	r3,zero,2004a9c <sin+0x108>
 2004a0c:	d8800117 	ldw	r2,4(sp)
 2004a10:	da000317 	ldw	r8,12(sp)
 2004a14:	d8c00217 	ldw	r3,8(sp)
 2004a18:	da400417 	ldw	r9,16(sp)
 2004a1c:	d9000015 	stw	r4,0(sp)
 2004a20:	400d883a 	mov	r6,r8
 2004a24:	480f883a 	mov	r7,r9
 2004a28:	180b883a 	mov	r5,r3
 2004a2c:	1009883a 	mov	r4,r2
 2004a30:	20078a40 	call	20078a4 <__kernel_sin>
 2004a34:	100d883a 	mov	r6,r2
 2004a38:	180f883a 	mov	r7,r3
 2004a3c:	003fe606 	br	20049d8 <sin+0x44>
 2004a40:	000d883a 	mov	r6,zero
 2004a44:	000f883a 	mov	r7,zero
 2004a48:	d8000015 	stw	zero,0(sp)
 2004a4c:	20078a40 	call	20078a4 <__kernel_sin>
 2004a50:	100d883a 	mov	r6,r2
 2004a54:	180f883a 	mov	r7,r3
 2004a58:	3005883a 	mov	r2,r6
 2004a5c:	3807883a 	mov	r3,r7
 2004a60:	dfc00517 	ldw	ra,20(sp)
 2004a64:	dec00604 	addi	sp,sp,24
 2004a68:	f800283a 	ret
 2004a6c:	d8800117 	ldw	r2,4(sp)
 2004a70:	da000317 	ldw	r8,12(sp)
 2004a74:	d8c00217 	ldw	r3,8(sp)
 2004a78:	da400417 	ldw	r9,16(sp)
 2004a7c:	400d883a 	mov	r6,r8
 2004a80:	180b883a 	mov	r5,r3
 2004a84:	480f883a 	mov	r7,r9
 2004a88:	1009883a 	mov	r4,r2
 2004a8c:	20064fc0 	call	20064fc <__kernel_cos>
 2004a90:	100d883a 	mov	r6,r2
 2004a94:	180f883a 	mov	r7,r3
 2004a98:	003fcf06 	br	20049d8 <sin+0x44>
 2004a9c:	d8800117 	ldw	r2,4(sp)
 2004aa0:	da000317 	ldw	r8,12(sp)
 2004aa4:	d8c00217 	ldw	r3,8(sp)
 2004aa8:	da400417 	ldw	r9,16(sp)
 2004aac:	400d883a 	mov	r6,r8
 2004ab0:	180b883a 	mov	r5,r3
 2004ab4:	480f883a 	mov	r7,r9
 2004ab8:	1009883a 	mov	r4,r2
 2004abc:	20064fc0 	call	20064fc <__kernel_cos>
 2004ac0:	100d883a 	mov	r6,r2
 2004ac4:	19e0003c 	xorhi	r7,r3,32768
 2004ac8:	003fc306 	br	20049d8 <sin+0x44>
 2004acc:	d8800117 	ldw	r2,4(sp)
 2004ad0:	da000317 	ldw	r8,12(sp)
 2004ad4:	d8c00217 	ldw	r3,8(sp)
 2004ad8:	da400417 	ldw	r9,16(sp)
 2004adc:	d9000015 	stw	r4,0(sp)
 2004ae0:	400d883a 	mov	r6,r8
 2004ae4:	480f883a 	mov	r7,r9
 2004ae8:	180b883a 	mov	r5,r3
 2004aec:	1009883a 	mov	r4,r2
 2004af0:	20078a40 	call	20078a4 <__kernel_sin>
 2004af4:	100d883a 	mov	r6,r2
 2004af8:	19e0003c 	xorhi	r7,r3,32768
 2004afc:	003fb606 	br	20049d8 <sin+0x44>

02004b00 <roundf>:
 2004b00:	209fe02c 	andhi	r2,r4,32640
 2004b04:	1004d5fa 	srli	r2,r2,23
 2004b08:	deffff04 	addi	sp,sp,-4
 2004b0c:	00c00584 	movi	r3,22
 2004b10:	11bfe044 	addi	r6,r2,-127
 2004b14:	dfc00015 	stw	ra,0(sp)
 2004b18:	200f883a 	mov	r7,r4
 2004b1c:	19801016 	blt	r3,r6,2004b60 <roundf+0x60>
 2004b20:	00802034 	movhi	r2,128
 2004b24:	10bfffc4 	addi	r2,r2,-1
 2004b28:	1189d83a 	sra	r4,r2,r6
 2004b2c:	30001516 	blt	r6,zero,2004b84 <roundf+0x84>
 2004b30:	00801034 	movhi	r2,64
 2004b34:	1185d83a 	sra	r2,r2,r6
 2004b38:	0106303a 	nor	r3,zero,r4
 2004b3c:	3908703a 	and	r4,r7,r4
 2004b40:	3885883a 	add	r2,r7,r2
 2004b44:	10c6703a 	and	r3,r2,r3
 2004b48:	20000126 	beq	r4,zero,2004b50 <roundf+0x50>
 2004b4c:	180f883a 	mov	r7,r3
 2004b50:	3805883a 	mov	r2,r7
 2004b54:	dfc00017 	ldw	ra,0(sp)
 2004b58:	dec00104 	addi	sp,sp,4
 2004b5c:	f800283a 	ret
 2004b60:	00802004 	movi	r2,128
 2004b64:	200b883a 	mov	r5,r4
 2004b68:	30bff91e 	bne	r6,r2,2004b50 <roundf+0x50>
 2004b6c:	20089300 	call	2008930 <__addsf3>
 2004b70:	100f883a 	mov	r7,r2
 2004b74:	3805883a 	mov	r2,r7
 2004b78:	dfc00017 	ldw	ra,0(sp)
 2004b7c:	dec00104 	addi	sp,sp,4
 2004b80:	f800283a 	ret
 2004b84:	00bfffc4 	movi	r2,-1
 2004b88:	38e0002c 	andhi	r3,r7,32768
 2004b8c:	30bfef1e 	bne	r6,r2,2004b4c <roundf+0x4c>
 2004b90:	18cfe034 	orhi	r3,r3,16256
 2004b94:	180f883a 	mov	r7,r3
 2004b98:	003fed06 	br	2004b50 <roundf+0x50>

02004b9c <asin>:
 2004b9c:	defff104 	addi	sp,sp,-60
 2004ba0:	dd000d15 	stw	r20,52(sp)
 2004ba4:	05008074 	movhi	r20,513
 2004ba8:	a500f104 	addi	r20,r20,964
 2004bac:	dcc00c15 	stw	r19,48(sp)
 2004bb0:	dc800b15 	stw	r18,44(sp)
 2004bb4:	dc400a15 	stw	r17,40(sp)
 2004bb8:	dc000915 	stw	r16,36(sp)
 2004bbc:	2025883a 	mov	r18,r4
 2004bc0:	dfc00e15 	stw	ra,56(sp)
 2004bc4:	2827883a 	mov	r19,r5
 2004bc8:	2004e000 	call	2004e00 <__ieee754_asin>
 2004bcc:	a1000017 	ldw	r4,0(r20)
 2004bd0:	1021883a 	mov	r16,r2
 2004bd4:	00bfffc4 	movi	r2,-1
 2004bd8:	1823883a 	mov	r17,r3
 2004bdc:	20800426 	beq	r4,r2,2004bf0 <asin+0x54>
 2004be0:	9009883a 	mov	r4,r18
 2004be4:	980b883a 	mov	r5,r19
 2004be8:	20084900 	call	2008490 <__isnand>
 2004bec:	10000a26 	beq	r2,zero,2004c18 <asin+0x7c>
 2004bf0:	8005883a 	mov	r2,r16
 2004bf4:	8807883a 	mov	r3,r17
 2004bf8:	dfc00e17 	ldw	ra,56(sp)
 2004bfc:	dd000d17 	ldw	r20,52(sp)
 2004c00:	dcc00c17 	ldw	r19,48(sp)
 2004c04:	dc800b17 	ldw	r18,44(sp)
 2004c08:	dc400a17 	ldw	r17,40(sp)
 2004c0c:	dc000917 	ldw	r16,36(sp)
 2004c10:	dec00f04 	addi	sp,sp,60
 2004c14:	f800283a 	ret
 2004c18:	9009883a 	mov	r4,r18
 2004c1c:	980b883a 	mov	r5,r19
 2004c20:	20082540 	call	2008254 <fabs>
 2004c24:	0011883a 	mov	r8,zero
 2004c28:	024ffc34 	movhi	r9,16368
 2004c2c:	180b883a 	mov	r5,r3
 2004c30:	480f883a 	mov	r7,r9
 2004c34:	1009883a 	mov	r4,r2
 2004c38:	400d883a 	mov	r6,r8
 2004c3c:	20099980 	call	2009998 <__gtdf2>
 2004c40:	00bfeb0e 	bge	zero,r2,2004bf0 <asin+0x54>
 2004c44:	00800044 	movi	r2,1
 2004c48:	00c08074 	movhi	r3,513
 2004c4c:	18f9a704 	addi	r3,r3,-6500
 2004c50:	01008074 	movhi	r4,513
 2004c54:	2139a804 	addi	r4,r4,-6496
 2004c58:	d8800015 	stw	r2,0(sp)
 2004c5c:	d8c00115 	stw	r3,4(sp)
 2004c60:	dcc00315 	stw	r19,12(sp)
 2004c64:	d8000815 	stw	zero,32(sp)
 2004c68:	dc800415 	stw	r18,16(sp)
 2004c6c:	dcc00515 	stw	r19,20(sp)
 2004c70:	dc800215 	stw	r18,8(sp)
 2004c74:	20084c80 	call	20084c8 <nan>
 2004c78:	a1800017 	ldw	r6,0(r20)
 2004c7c:	d8800615 	stw	r2,24(sp)
 2004c80:	00800084 	movi	r2,2
 2004c84:	d8c00715 	stw	r3,28(sp)
 2004c88:	30800826 	beq	r6,r2,2004cac <asin+0x110>
 2004c8c:	d809883a 	mov	r4,sp
 2004c90:	20084c00 	call	20084c0 <matherr>
 2004c94:	10000526 	beq	r2,zero,2004cac <asin+0x110>
 2004c98:	d8800817 	ldw	r2,32(sp)
 2004c9c:	1000071e 	bne	r2,zero,2004cbc <asin+0x120>
 2004ca0:	dc000617 	ldw	r16,24(sp)
 2004ca4:	dc400717 	ldw	r17,28(sp)
 2004ca8:	003fd106 	br	2004bf0 <asin+0x54>
 2004cac:	200a8200 	call	200a820 <__errno>
 2004cb0:	00c00844 	movi	r3,33
 2004cb4:	10c00015 	stw	r3,0(r2)
 2004cb8:	003ff706 	br	2004c98 <asin+0xfc>
 2004cbc:	200a8200 	call	200a820 <__errno>
 2004cc0:	d8c00817 	ldw	r3,32(sp)
 2004cc4:	10c00015 	stw	r3,0(r2)
 2004cc8:	003ff506 	br	2004ca0 <asin+0x104>

02004ccc <atan2>:
 2004ccc:	20056bc1 	jmpi	20056bc <__ieee754_atan2>

02004cd0 <sqrt>:
 2004cd0:	defff104 	addi	sp,sp,-60
 2004cd4:	dd000d15 	stw	r20,52(sp)
 2004cd8:	05008074 	movhi	r20,513
 2004cdc:	a500f104 	addi	r20,r20,964
 2004ce0:	dcc00c15 	stw	r19,48(sp)
 2004ce4:	dc800b15 	stw	r18,44(sp)
 2004ce8:	dc400a15 	stw	r17,40(sp)
 2004cec:	dc000915 	stw	r16,36(sp)
 2004cf0:	2025883a 	mov	r18,r4
 2004cf4:	dfc00e15 	stw	ra,56(sp)
 2004cf8:	2827883a 	mov	r19,r5
 2004cfc:	20062340 	call	2006234 <__ieee754_sqrt>
 2004d00:	a1000017 	ldw	r4,0(r20)
 2004d04:	1021883a 	mov	r16,r2
 2004d08:	00bfffc4 	movi	r2,-1
 2004d0c:	1823883a 	mov	r17,r3
 2004d10:	20800a26 	beq	r4,r2,2004d3c <sqrt+0x6c>
 2004d14:	9009883a 	mov	r4,r18
 2004d18:	980b883a 	mov	r5,r19
 2004d1c:	20084900 	call	2008490 <__isnand>
 2004d20:	1000061e 	bne	r2,zero,2004d3c <sqrt+0x6c>
 2004d24:	000d883a 	mov	r6,zero
 2004d28:	000f883a 	mov	r7,zero
 2004d2c:	9009883a 	mov	r4,r18
 2004d30:	980b883a 	mov	r5,r19
 2004d34:	2009aa80 	call	2009aa8 <__ltdf2>
 2004d38:	10000a16 	blt	r2,zero,2004d64 <sqrt+0x94>
 2004d3c:	8005883a 	mov	r2,r16
 2004d40:	8807883a 	mov	r3,r17
 2004d44:	dfc00e17 	ldw	ra,56(sp)
 2004d48:	dd000d17 	ldw	r20,52(sp)
 2004d4c:	dcc00c17 	ldw	r19,48(sp)
 2004d50:	dc800b17 	ldw	r18,44(sp)
 2004d54:	dc400a17 	ldw	r17,40(sp)
 2004d58:	dc000917 	ldw	r16,36(sp)
 2004d5c:	dec00f04 	addi	sp,sp,60
 2004d60:	f800283a 	ret
 2004d64:	a4000017 	ldw	r16,0(r20)
 2004d68:	00800044 	movi	r2,1
 2004d6c:	00c08074 	movhi	r3,513
 2004d70:	18f9a904 	addi	r3,r3,-6492
 2004d74:	d8800015 	stw	r2,0(sp)
 2004d78:	d8c00115 	stw	r3,4(sp)
 2004d7c:	dcc00315 	stw	r19,12(sp)
 2004d80:	d8000815 	stw	zero,32(sp)
 2004d84:	dc800415 	stw	r18,16(sp)
 2004d88:	dcc00515 	stw	r19,20(sp)
 2004d8c:	dc800215 	stw	r18,8(sp)
 2004d90:	80000a1e 	bne	r16,zero,2004dbc <sqrt+0xec>
 2004d94:	d8000615 	stw	zero,24(sp)
 2004d98:	d8000715 	stw	zero,28(sp)
 2004d9c:	d809883a 	mov	r4,sp
 2004da0:	20084c00 	call	20084c0 <matherr>
 2004da4:	10000e26 	beq	r2,zero,2004de0 <sqrt+0x110>
 2004da8:	d8800817 	ldw	r2,32(sp)
 2004dac:	1000101e 	bne	r2,zero,2004df0 <sqrt+0x120>
 2004db0:	dc000617 	ldw	r16,24(sp)
 2004db4:	dc400717 	ldw	r17,28(sp)
 2004db8:	003fe006 	br	2004d3c <sqrt+0x6c>
 2004dbc:	0009883a 	mov	r4,zero
 2004dc0:	000d883a 	mov	r6,zero
 2004dc4:	000b883a 	mov	r5,zero
 2004dc8:	000f883a 	mov	r7,zero
 2004dcc:	20096b80 	call	20096b8 <__divdf3>
 2004dd0:	d8800615 	stw	r2,24(sp)
 2004dd4:	00800084 	movi	r2,2
 2004dd8:	d8c00715 	stw	r3,28(sp)
 2004ddc:	80bfef1e 	bne	r16,r2,2004d9c <sqrt+0xcc>
 2004de0:	200a8200 	call	200a820 <__errno>
 2004de4:	00c00844 	movi	r3,33
 2004de8:	10c00015 	stw	r3,0(r2)
 2004dec:	003fee06 	br	2004da8 <sqrt+0xd8>
 2004df0:	200a8200 	call	200a820 <__errno>
 2004df4:	d8c00817 	ldw	r3,32(sp)
 2004df8:	10c00015 	stw	r3,0(r2)
 2004dfc:	003fec06 	br	2004db0 <sqrt+0xe0>

02004e00 <__ieee754_asin>:
 2004e00:	defff004 	addi	sp,sp,-64
 2004e04:	00a00034 	movhi	r2,32768
 2004e08:	10bfffc4 	addi	r2,r2,-1
 2004e0c:	dd000a15 	stw	r20,40(sp)
 2004e10:	28a8703a 	and	r20,r5,r2
 2004e14:	008ffc34 	movhi	r2,16368
 2004e18:	10bfffc4 	addi	r2,r2,-1
 2004e1c:	df000e15 	stw	fp,56(sp)
 2004e20:	ddc00d15 	stw	r23,52(sp)
 2004e24:	dd800c15 	stw	r22,48(sp)
 2004e28:	dfc00f15 	stw	ra,60(sp)
 2004e2c:	dd400b15 	stw	r21,44(sp)
 2004e30:	dcc00915 	stw	r19,36(sp)
 2004e34:	dc800815 	stw	r18,32(sp)
 2004e38:	dc400715 	stw	r17,28(sp)
 2004e3c:	dc000615 	stw	r16,24(sp)
 2004e40:	202d883a 	mov	r22,r4
 2004e44:	282f883a 	mov	r23,r5
 2004e48:	2839883a 	mov	fp,r5
 2004e4c:	15002d0e 	bge	r2,r20,2004f04 <__ieee754_asin+0x104>
 2004e50:	01300434 	movhi	r4,49168
 2004e54:	a109883a 	add	r4,r20,r4
 2004e58:	2588b03a 	or	r4,r4,r22
 2004e5c:	2000ce1e 	bne	r4,zero,2005198 <__ieee754_asin+0x398>
 2004e60:	00951134 	movhi	r2,21572
 2004e64:	108b4604 	addi	r2,r2,11544
 2004e68:	00cffe74 	movhi	r3,16377
 2004e6c:	18c87ec4 	addi	r3,r3,8699
 2004e70:	180f883a 	mov	r7,r3
 2004e74:	b009883a 	mov	r4,r22
 2004e78:	100d883a 	mov	r6,r2
 2004e7c:	20092f40 	call	20092f4 <__muldf3>
 2004e80:	020cc534 	movhi	r8,13076
 2004e84:	421701c4 	addi	r8,r8,23559
 2004e88:	024f24b4 	movhi	r9,15506
 2004e8c:	4a698984 	addi	r9,r9,-23002
 2004e90:	b80b883a 	mov	r5,r23
 2004e94:	480f883a 	mov	r7,r9
 2004e98:	b009883a 	mov	r4,r22
 2004e9c:	400d883a 	mov	r6,r8
 2004ea0:	1021883a 	mov	r16,r2
 2004ea4:	1823883a 	mov	r17,r3
 2004ea8:	20092f40 	call	20092f4 <__muldf3>
 2004eac:	1011883a 	mov	r8,r2
 2004eb0:	880b883a 	mov	r5,r17
 2004eb4:	180f883a 	mov	r7,r3
 2004eb8:	8009883a 	mov	r4,r16
 2004ebc:	400d883a 	mov	r6,r8
 2004ec0:	20092800 	call	2009280 <__adddf3>
 2004ec4:	102d883a 	mov	r22,r2
 2004ec8:	182f883a 	mov	r23,r3
 2004ecc:	b005883a 	mov	r2,r22
 2004ed0:	b807883a 	mov	r3,r23
 2004ed4:	dfc00f17 	ldw	ra,60(sp)
 2004ed8:	df000e17 	ldw	fp,56(sp)
 2004edc:	ddc00d17 	ldw	r23,52(sp)
 2004ee0:	dd800c17 	ldw	r22,48(sp)
 2004ee4:	dd400b17 	ldw	r21,44(sp)
 2004ee8:	dd000a17 	ldw	r20,40(sp)
 2004eec:	dcc00917 	ldw	r19,36(sp)
 2004ef0:	dc800817 	ldw	r18,32(sp)
 2004ef4:	dc400717 	ldw	r17,28(sp)
 2004ef8:	dc000617 	ldw	r16,24(sp)
 2004efc:	dec01004 	addi	sp,sp,64
 2004f00:	f800283a 	ret
 2004f04:	008ff834 	movhi	r2,16352
 2004f08:	10bfffc4 	addi	r2,r2,-1
 2004f0c:	1500bd16 	blt	r2,r20,2005204 <__ieee754_asin+0x404>
 2004f10:	008f9034 	movhi	r2,15936
 2004f14:	10bfffc4 	addi	r2,r2,-1
 2004f18:	1500ab0e 	bge	r2,r20,20051c8 <__ieee754_asin+0x3c8>
 2004f1c:	280f883a 	mov	r7,r5
 2004f20:	b00d883a 	mov	r6,r22
 2004f24:	20092f40 	call	20092f4 <__muldf3>
 2004f28:	1021883a 	mov	r16,r2
 2004f2c:	1823883a 	mov	r17,r3
 2004f30:	00837fb4 	movhi	r2,3582
 2004f34:	10bdc244 	addi	r2,r2,-2295
 2004f38:	00cfc0b4 	movhi	r3,16130
 2004f3c:	18cf7844 	addi	r3,r3,15841
 2004f40:	180f883a 	mov	r7,r3
 2004f44:	8009883a 	mov	r4,r16
 2004f48:	880b883a 	mov	r5,r17
 2004f4c:	100d883a 	mov	r6,r2
 2004f50:	20092f40 	call	20092f4 <__muldf3>
 2004f54:	021d40b4 	movhi	r8,29954
 2004f58:	422ca204 	addi	r8,r8,-19832
 2004f5c:	024fd2b4 	movhi	r9,16202
 2004f60:	4a7bf804 	addi	r9,r9,-4128
 2004f64:	480f883a 	mov	r7,r9
 2004f68:	400d883a 	mov	r6,r8
 2004f6c:	180b883a 	mov	r5,r3
 2004f70:	1009883a 	mov	r4,r2
 2004f74:	20092800 	call	2009280 <__adddf3>
 2004f78:	180f883a 	mov	r7,r3
 2004f7c:	8009883a 	mov	r4,r16
 2004f80:	880b883a 	mov	r5,r17
 2004f84:	100d883a 	mov	r6,r2
 2004f88:	20092f40 	call	20092f4 <__muldf3>
 2004f8c:	022d5a74 	movhi	r8,46441
 2004f90:	4223cec4 	addi	r8,r8,-28869
 2004f94:	024fe974 	movhi	r9,16293
 2004f98:	4a608a04 	addi	r9,r9,-32216
 2004f9c:	480f883a 	mov	r7,r9
 2004fa0:	400d883a 	mov	r6,r8
 2004fa4:	180b883a 	mov	r5,r3
 2004fa8:	1009883a 	mov	r4,r2
 2004fac:	20092000 	call	2009200 <__subdf3>
 2004fb0:	180f883a 	mov	r7,r3
 2004fb4:	8009883a 	mov	r4,r16
 2004fb8:	880b883a 	mov	r5,r17
 2004fbc:	100d883a 	mov	r6,r2
 2004fc0:	20092f40 	call	20092f4 <__muldf3>
 2004fc4:	0203a234 	movhi	r8,3720
 2004fc8:	42111544 	addi	r8,r8,17493
 2004fcc:	024ff2b4 	movhi	r9,16330
 2004fd0:	4a705544 	addi	r9,r9,-16043
 2004fd4:	480f883a 	mov	r7,r9
 2004fd8:	400d883a 	mov	r6,r8
 2004fdc:	180b883a 	mov	r5,r3
 2004fe0:	1009883a 	mov	r4,r2
 2004fe4:	20092800 	call	2009280 <__adddf3>
 2004fe8:	180f883a 	mov	r7,r3
 2004fec:	8009883a 	mov	r4,r16
 2004ff0:	880b883a 	mov	r5,r17
 2004ff4:	100d883a 	mov	r6,r2
 2004ff8:	20092f40 	call	20092f4 <__muldf3>
 2004ffc:	0200faf4 	movhi	r8,1003
 2005000:	421bdf44 	addi	r8,r8,28541
 2005004:	024ff574 	movhi	r9,16341
 2005008:	4a758484 	addi	r9,r9,-10734
 200500c:	480f883a 	mov	r7,r9
 2005010:	400d883a 	mov	r6,r8
 2005014:	180b883a 	mov	r5,r3
 2005018:	1009883a 	mov	r4,r2
 200501c:	20092000 	call	2009200 <__subdf3>
 2005020:	180f883a 	mov	r7,r3
 2005024:	8009883a 	mov	r4,r16
 2005028:	880b883a 	mov	r5,r17
 200502c:	100d883a 	mov	r6,r2
 2005030:	20092f40 	call	20092f4 <__muldf3>
 2005034:	02155574 	movhi	r8,21845
 2005038:	42155544 	addi	r8,r8,21845
 200503c:	024ff174 	movhi	r9,16325
 2005040:	4a555544 	addi	r9,r9,21845
 2005044:	480f883a 	mov	r7,r9
 2005048:	400d883a 	mov	r6,r8
 200504c:	180b883a 	mov	r5,r3
 2005050:	1009883a 	mov	r4,r2
 2005054:	20092800 	call	2009280 <__adddf3>
 2005058:	180f883a 	mov	r7,r3
 200505c:	8009883a 	mov	r4,r16
 2005060:	880b883a 	mov	r5,r17
 2005064:	100d883a 	mov	r6,r2
 2005068:	20092f40 	call	20092f4 <__muldf3>
 200506c:	022c4bf4 	movhi	r8,45359
 2005070:	4224a084 	addi	r8,r8,-28030
 2005074:	024fed34 	movhi	r9,16308
 2005078:	4a6e3144 	addi	r9,r9,-18235
 200507c:	480f883a 	mov	r7,r9
 2005080:	400d883a 	mov	r6,r8
 2005084:	8009883a 	mov	r4,r16
 2005088:	880b883a 	mov	r5,r17
 200508c:	1029883a 	mov	r20,r2
 2005090:	182b883a 	mov	r21,r3
 2005094:	20092f40 	call	20092f4 <__muldf3>
 2005098:	0206e374 	movhi	r8,7053
 200509c:	42005644 	addi	r8,r8,345
 20050a0:	024ff9b4 	movhi	r9,16358
 20050a4:	4a419b04 	addi	r9,r9,1644
 20050a8:	480f883a 	mov	r7,r9
 20050ac:	400d883a 	mov	r6,r8
 20050b0:	180b883a 	mov	r5,r3
 20050b4:	1009883a 	mov	r4,r2
 20050b8:	20092000 	call	2009200 <__subdf3>
 20050bc:	180f883a 	mov	r7,r3
 20050c0:	8009883a 	mov	r4,r16
 20050c4:	880b883a 	mov	r5,r17
 20050c8:	100d883a 	mov	r6,r2
 20050cc:	20092f40 	call	20092f4 <__muldf3>
 20050d0:	022716b4 	movhi	r8,40026
 20050d4:	4222b204 	addi	r8,r8,-30008
 20050d8:	02500034 	movhi	r9,16384
 20050dc:	4a4ab944 	addi	r9,r9,10981
 20050e0:	480f883a 	mov	r7,r9
 20050e4:	400d883a 	mov	r6,r8
 20050e8:	180b883a 	mov	r5,r3
 20050ec:	1009883a 	mov	r4,r2
 20050f0:	20092800 	call	2009280 <__adddf3>
 20050f4:	180f883a 	mov	r7,r3
 20050f8:	8009883a 	mov	r4,r16
 20050fc:	880b883a 	mov	r5,r17
 2005100:	100d883a 	mov	r6,r2
 2005104:	20092f40 	call	20092f4 <__muldf3>
 2005108:	020722b4 	movhi	r8,7306
 200510c:	420b52c4 	addi	r8,r8,11595
 2005110:	025000f4 	movhi	r9,16387
 2005114:	4a4e89c4 	addi	r9,r9,14887
 2005118:	480f883a 	mov	r7,r9
 200511c:	400d883a 	mov	r6,r8
 2005120:	180b883a 	mov	r5,r3
 2005124:	1009883a 	mov	r4,r2
 2005128:	20092000 	call	2009200 <__subdf3>
 200512c:	180f883a 	mov	r7,r3
 2005130:	8009883a 	mov	r4,r16
 2005134:	880b883a 	mov	r5,r17
 2005138:	100d883a 	mov	r6,r2
 200513c:	20092f40 	call	20092f4 <__muldf3>
 2005140:	0011883a 	mov	r8,zero
 2005144:	024ffc34 	movhi	r9,16368
 2005148:	400d883a 	mov	r6,r8
 200514c:	480f883a 	mov	r7,r9
 2005150:	180b883a 	mov	r5,r3
 2005154:	1009883a 	mov	r4,r2
 2005158:	20092800 	call	2009280 <__adddf3>
 200515c:	180f883a 	mov	r7,r3
 2005160:	a80b883a 	mov	r5,r21
 2005164:	a009883a 	mov	r4,r20
 2005168:	100d883a 	mov	r6,r2
 200516c:	20096b80 	call	20096b8 <__divdf3>
 2005170:	180f883a 	mov	r7,r3
 2005174:	b009883a 	mov	r4,r22
 2005178:	b80b883a 	mov	r5,r23
 200517c:	100d883a 	mov	r6,r2
 2005180:	20092f40 	call	20092f4 <__muldf3>
 2005184:	1011883a 	mov	r8,r2
 2005188:	b80b883a 	mov	r5,r23
 200518c:	180f883a 	mov	r7,r3
 2005190:	b009883a 	mov	r4,r22
 2005194:	003f4906 	br	2004ebc <__ieee754_asin+0xbc>
 2005198:	280f883a 	mov	r7,r5
 200519c:	b009883a 	mov	r4,r22
 20051a0:	b00d883a 	mov	r6,r22
 20051a4:	20092000 	call	2009200 <__subdf3>
 20051a8:	1009883a 	mov	r4,r2
 20051ac:	180b883a 	mov	r5,r3
 20051b0:	100d883a 	mov	r6,r2
 20051b4:	180f883a 	mov	r7,r3
 20051b8:	20096b80 	call	20096b8 <__divdf3>
 20051bc:	102d883a 	mov	r22,r2
 20051c0:	182f883a 	mov	r23,r3
 20051c4:	003f4106 	br	2004ecc <__ieee754_asin+0xcc>
 20051c8:	00a20034 	movhi	r2,34816
 20051cc:	109d6704 	addi	r2,r2,30108
 20051d0:	00df8e34 	movhi	r3,32312
 20051d4:	18f90f04 	addi	r3,r3,-7108
 20051d8:	180f883a 	mov	r7,r3
 20051dc:	100d883a 	mov	r6,r2
 20051e0:	20092800 	call	2009280 <__adddf3>
 20051e4:	0011883a 	mov	r8,zero
 20051e8:	024ffc34 	movhi	r9,16368
 20051ec:	180b883a 	mov	r5,r3
 20051f0:	480f883a 	mov	r7,r9
 20051f4:	1009883a 	mov	r4,r2
 20051f8:	400d883a 	mov	r6,r8
 20051fc:	20099980 	call	2009998 <__gtdf2>
 2005200:	00bf3216 	blt	zero,r2,2004ecc <__ieee754_asin+0xcc>
 2005204:	b80b883a 	mov	r5,r23
 2005208:	b009883a 	mov	r4,r22
 200520c:	20082540 	call	2008254 <fabs>
 2005210:	044ffc34 	movhi	r17,16368
 2005214:	0021883a 	mov	r16,zero
 2005218:	180f883a 	mov	r7,r3
 200521c:	8009883a 	mov	r4,r16
 2005220:	880b883a 	mov	r5,r17
 2005224:	100d883a 	mov	r6,r2
 2005228:	20092000 	call	2009200 <__subdf3>
 200522c:	0011883a 	mov	r8,zero
 2005230:	024ff834 	movhi	r9,16352
 2005234:	480f883a 	mov	r7,r9
 2005238:	400d883a 	mov	r6,r8
 200523c:	180b883a 	mov	r5,r3
 2005240:	1009883a 	mov	r4,r2
 2005244:	20092f40 	call	20092f4 <__muldf3>
 2005248:	d8c00515 	stw	r3,20(sp)
 200524c:	d8800015 	stw	r2,0(sp)
 2005250:	d9000017 	ldw	r4,0(sp)
 2005254:	d9400517 	ldw	r5,20(sp)
 2005258:	d8800415 	stw	r2,16(sp)
 200525c:	d8c00115 	stw	r3,4(sp)
 2005260:	00837fb4 	movhi	r2,3582
 2005264:	10bdc244 	addi	r2,r2,-2295
 2005268:	00cfc0b4 	movhi	r3,16130
 200526c:	18cf7844 	addi	r3,r3,15841
 2005270:	180f883a 	mov	r7,r3
 2005274:	100d883a 	mov	r6,r2
 2005278:	20092f40 	call	20092f4 <__muldf3>
 200527c:	021d40b4 	movhi	r8,29954
 2005280:	422ca204 	addi	r8,r8,-19832
 2005284:	024fd2b4 	movhi	r9,16202
 2005288:	4a7bf804 	addi	r9,r9,-4128
 200528c:	480f883a 	mov	r7,r9
 2005290:	400d883a 	mov	r6,r8
 2005294:	180b883a 	mov	r5,r3
 2005298:	1009883a 	mov	r4,r2
 200529c:	20092800 	call	2009280 <__adddf3>
 20052a0:	d9000017 	ldw	r4,0(sp)
 20052a4:	d9400517 	ldw	r5,20(sp)
 20052a8:	180f883a 	mov	r7,r3
 20052ac:	100d883a 	mov	r6,r2
 20052b0:	20092f40 	call	20092f4 <__muldf3>
 20052b4:	022d5a74 	movhi	r8,46441
 20052b8:	4223cec4 	addi	r8,r8,-28869
 20052bc:	024fe974 	movhi	r9,16293
 20052c0:	4a608a04 	addi	r9,r9,-32216
 20052c4:	480f883a 	mov	r7,r9
 20052c8:	400d883a 	mov	r6,r8
 20052cc:	180b883a 	mov	r5,r3
 20052d0:	1009883a 	mov	r4,r2
 20052d4:	20092000 	call	2009200 <__subdf3>
 20052d8:	d9000017 	ldw	r4,0(sp)
 20052dc:	d9400517 	ldw	r5,20(sp)
 20052e0:	180f883a 	mov	r7,r3
 20052e4:	100d883a 	mov	r6,r2
 20052e8:	20092f40 	call	20092f4 <__muldf3>
 20052ec:	0203a234 	movhi	r8,3720
 20052f0:	42111544 	addi	r8,r8,17493
 20052f4:	024ff2b4 	movhi	r9,16330
 20052f8:	4a705544 	addi	r9,r9,-16043
 20052fc:	480f883a 	mov	r7,r9
 2005300:	400d883a 	mov	r6,r8
 2005304:	180b883a 	mov	r5,r3
 2005308:	1009883a 	mov	r4,r2
 200530c:	20092800 	call	2009280 <__adddf3>
 2005310:	d9000017 	ldw	r4,0(sp)
 2005314:	d9400517 	ldw	r5,20(sp)
 2005318:	180f883a 	mov	r7,r3
 200531c:	100d883a 	mov	r6,r2
 2005320:	20092f40 	call	20092f4 <__muldf3>
 2005324:	0200faf4 	movhi	r8,1003
 2005328:	421bdf44 	addi	r8,r8,28541
 200532c:	024ff574 	movhi	r9,16341
 2005330:	4a758484 	addi	r9,r9,-10734
 2005334:	480f883a 	mov	r7,r9
 2005338:	400d883a 	mov	r6,r8
 200533c:	180b883a 	mov	r5,r3
 2005340:	1009883a 	mov	r4,r2
 2005344:	20092000 	call	2009200 <__subdf3>
 2005348:	d9000017 	ldw	r4,0(sp)
 200534c:	d9400517 	ldw	r5,20(sp)
 2005350:	180f883a 	mov	r7,r3
 2005354:	100d883a 	mov	r6,r2
 2005358:	20092f40 	call	20092f4 <__muldf3>
 200535c:	02155574 	movhi	r8,21845
 2005360:	42155544 	addi	r8,r8,21845
 2005364:	024ff174 	movhi	r9,16325
 2005368:	4a555544 	addi	r9,r9,21845
 200536c:	480f883a 	mov	r7,r9
 2005370:	400d883a 	mov	r6,r8
 2005374:	180b883a 	mov	r5,r3
 2005378:	1009883a 	mov	r4,r2
 200537c:	20092800 	call	2009280 <__adddf3>
 2005380:	d9000017 	ldw	r4,0(sp)
 2005384:	d9400517 	ldw	r5,20(sp)
 2005388:	180f883a 	mov	r7,r3
 200538c:	100d883a 	mov	r6,r2
 2005390:	20092f40 	call	20092f4 <__muldf3>
 2005394:	d9000017 	ldw	r4,0(sp)
 2005398:	d9400517 	ldw	r5,20(sp)
 200539c:	022c4bf4 	movhi	r8,45359
 20053a0:	4224a084 	addi	r8,r8,-28030
 20053a4:	024fed34 	movhi	r9,16308
 20053a8:	4a6e3144 	addi	r9,r9,-18235
 20053ac:	480f883a 	mov	r7,r9
 20053b0:	400d883a 	mov	r6,r8
 20053b4:	1025883a 	mov	r18,r2
 20053b8:	1827883a 	mov	r19,r3
 20053bc:	20092f40 	call	20092f4 <__muldf3>
 20053c0:	0206e374 	movhi	r8,7053
 20053c4:	42005644 	addi	r8,r8,345
 20053c8:	024ff9b4 	movhi	r9,16358
 20053cc:	4a419b04 	addi	r9,r9,1644
 20053d0:	480f883a 	mov	r7,r9
 20053d4:	400d883a 	mov	r6,r8
 20053d8:	180b883a 	mov	r5,r3
 20053dc:	1009883a 	mov	r4,r2
 20053e0:	20092000 	call	2009200 <__subdf3>
 20053e4:	d9000017 	ldw	r4,0(sp)
 20053e8:	d9400517 	ldw	r5,20(sp)
 20053ec:	180f883a 	mov	r7,r3
 20053f0:	100d883a 	mov	r6,r2
 20053f4:	20092f40 	call	20092f4 <__muldf3>
 20053f8:	022716b4 	movhi	r8,40026
 20053fc:	4222b204 	addi	r8,r8,-30008
 2005400:	02500034 	movhi	r9,16384
 2005404:	4a4ab944 	addi	r9,r9,10981
 2005408:	480f883a 	mov	r7,r9
 200540c:	400d883a 	mov	r6,r8
 2005410:	180b883a 	mov	r5,r3
 2005414:	1009883a 	mov	r4,r2
 2005418:	20092800 	call	2009280 <__adddf3>
 200541c:	d9000017 	ldw	r4,0(sp)
 2005420:	d9400517 	ldw	r5,20(sp)
 2005424:	180f883a 	mov	r7,r3
 2005428:	100d883a 	mov	r6,r2
 200542c:	20092f40 	call	20092f4 <__muldf3>
 2005430:	020722b4 	movhi	r8,7306
 2005434:	420b52c4 	addi	r8,r8,11595
 2005438:	025000f4 	movhi	r9,16387
 200543c:	4a4e89c4 	addi	r9,r9,14887
 2005440:	480f883a 	mov	r7,r9
 2005444:	400d883a 	mov	r6,r8
 2005448:	180b883a 	mov	r5,r3
 200544c:	1009883a 	mov	r4,r2
 2005450:	20092000 	call	2009200 <__subdf3>
 2005454:	d9000017 	ldw	r4,0(sp)
 2005458:	d9400517 	ldw	r5,20(sp)
 200545c:	180f883a 	mov	r7,r3
 2005460:	100d883a 	mov	r6,r2
 2005464:	20092f40 	call	20092f4 <__muldf3>
 2005468:	180b883a 	mov	r5,r3
 200546c:	000d883a 	mov	r6,zero
 2005470:	880f883a 	mov	r7,r17
 2005474:	1009883a 	mov	r4,r2
 2005478:	20092800 	call	2009280 <__adddf3>
 200547c:	d9000017 	ldw	r4,0(sp)
 2005480:	d9400517 	ldw	r5,20(sp)
 2005484:	102d883a 	mov	r22,r2
 2005488:	182f883a 	mov	r23,r3
 200548c:	20062340 	call	2006234 <__ieee754_sqrt>
 2005490:	d8800215 	stw	r2,8(sp)
 2005494:	008ffbf4 	movhi	r2,16367
 2005498:	108ccc84 	addi	r2,r2,13106
 200549c:	9009883a 	mov	r4,r18
 20054a0:	b00d883a 	mov	r6,r22
 20054a4:	d8c00315 	stw	r3,12(sp)
 20054a8:	980b883a 	mov	r5,r19
 20054ac:	b80f883a 	mov	r7,r23
 20054b0:	1500260e 	bge	r2,r20,200554c <__ieee754_asin+0x74c>
 20054b4:	20096b80 	call	20096b8 <__divdf3>
 20054b8:	d9000217 	ldw	r4,8(sp)
 20054bc:	d9400317 	ldw	r5,12(sp)
 20054c0:	180f883a 	mov	r7,r3
 20054c4:	100d883a 	mov	r6,r2
 20054c8:	20092f40 	call	20092f4 <__muldf3>
 20054cc:	d9400317 	ldw	r5,12(sp)
 20054d0:	d9000217 	ldw	r4,8(sp)
 20054d4:	180f883a 	mov	r7,r3
 20054d8:	100d883a 	mov	r6,r2
 20054dc:	20092800 	call	2009280 <__adddf3>
 20054e0:	180f883a 	mov	r7,r3
 20054e4:	1009883a 	mov	r4,r2
 20054e8:	180b883a 	mov	r5,r3
 20054ec:	100d883a 	mov	r6,r2
 20054f0:	20092800 	call	2009280 <__adddf3>
 20054f4:	020cc534 	movhi	r8,13076
 20054f8:	421701c4 	addi	r8,r8,23559
 20054fc:	024f24b4 	movhi	r9,15506
 2005500:	4a698984 	addi	r9,r9,-23002
 2005504:	480f883a 	mov	r7,r9
 2005508:	400d883a 	mov	r6,r8
 200550c:	180b883a 	mov	r5,r3
 2005510:	1009883a 	mov	r4,r2
 2005514:	20092000 	call	2009200 <__subdf3>
 2005518:	02151134 	movhi	r8,21572
 200551c:	420b4604 	addi	r8,r8,11544
 2005520:	024ffe74 	movhi	r9,16377
 2005524:	4a487ec4 	addi	r9,r9,8699
 2005528:	480b883a 	mov	r5,r9
 200552c:	180f883a 	mov	r7,r3
 2005530:	4009883a 	mov	r4,r8
 2005534:	100d883a 	mov	r6,r2
 2005538:	20092000 	call	2009200 <__subdf3>
 200553c:	07005c0e 	bge	zero,fp,20056b0 <__ieee754_asin+0x8b0>
 2005540:	102d883a 	mov	r22,r2
 2005544:	182f883a 	mov	r23,r3
 2005548:	003e6006 	br	2004ecc <__ieee754_asin+0xcc>
 200554c:	980b883a 	mov	r5,r19
 2005550:	b80f883a 	mov	r7,r23
 2005554:	20096b80 	call	20096b8 <__divdf3>
 2005558:	d9000217 	ldw	r4,8(sp)
 200555c:	d9400317 	ldw	r5,12(sp)
 2005560:	1021883a 	mov	r16,r2
 2005564:	200d883a 	mov	r6,r4
 2005568:	280f883a 	mov	r7,r5
 200556c:	1823883a 	mov	r17,r3
 2005570:	20092800 	call	2009280 <__adddf3>
 2005574:	d9000317 	ldw	r4,12(sp)
 2005578:	0029883a 	mov	r20,zero
 200557c:	880b883a 	mov	r5,r17
 2005580:	2027883a 	mov	r19,r4
 2005584:	180f883a 	mov	r7,r3
 2005588:	8009883a 	mov	r4,r16
 200558c:	100d883a 	mov	r6,r2
 2005590:	20092f40 	call	20092f4 <__muldf3>
 2005594:	980b883a 	mov	r5,r19
 2005598:	980f883a 	mov	r7,r19
 200559c:	a009883a 	mov	r4,r20
 20055a0:	a00d883a 	mov	r6,r20
 20055a4:	102d883a 	mov	r22,r2
 20055a8:	182f883a 	mov	r23,r3
 20055ac:	20092f40 	call	20092f4 <__muldf3>
 20055b0:	d9000017 	ldw	r4,0(sp)
 20055b4:	d9400517 	ldw	r5,20(sp)
 20055b8:	180f883a 	mov	r7,r3
 20055bc:	100d883a 	mov	r6,r2
 20055c0:	20092000 	call	2009200 <__subdf3>
 20055c4:	d9400317 	ldw	r5,12(sp)
 20055c8:	d9000217 	ldw	r4,8(sp)
 20055cc:	980f883a 	mov	r7,r19
 20055d0:	a00d883a 	mov	r6,r20
 20055d4:	1021883a 	mov	r16,r2
 20055d8:	1823883a 	mov	r17,r3
 20055dc:	20092800 	call	2009280 <__adddf3>
 20055e0:	180f883a 	mov	r7,r3
 20055e4:	880b883a 	mov	r5,r17
 20055e8:	8009883a 	mov	r4,r16
 20055ec:	100d883a 	mov	r6,r2
 20055f0:	20096b80 	call	20096b8 <__divdf3>
 20055f4:	04700034 	movhi	r17,49152
 20055f8:	0021883a 	mov	r16,zero
 20055fc:	800d883a 	mov	r6,r16
 2005600:	880f883a 	mov	r7,r17
 2005604:	180b883a 	mov	r5,r3
 2005608:	1009883a 	mov	r4,r2
 200560c:	20092f40 	call	20092f4 <__muldf3>
 2005610:	020cc534 	movhi	r8,13076
 2005614:	421701c4 	addi	r8,r8,23559
 2005618:	024f24b4 	movhi	r9,15506
 200561c:	4a698984 	addi	r9,r9,-23002
 2005620:	480f883a 	mov	r7,r9
 2005624:	400d883a 	mov	r6,r8
 2005628:	180b883a 	mov	r5,r3
 200562c:	1009883a 	mov	r4,r2
 2005630:	20092800 	call	2009280 <__adddf3>
 2005634:	180f883a 	mov	r7,r3
 2005638:	b80b883a 	mov	r5,r23
 200563c:	b009883a 	mov	r4,r22
 2005640:	100d883a 	mov	r6,r2
 2005644:	20092000 	call	2009200 <__subdf3>
 2005648:	880f883a 	mov	r7,r17
 200564c:	980b883a 	mov	r5,r19
 2005650:	000d883a 	mov	r6,zero
 2005654:	a009883a 	mov	r4,r20
 2005658:	1025883a 	mov	r18,r2
 200565c:	1827883a 	mov	r19,r3
 2005660:	04151134 	movhi	r16,21572
 2005664:	840b4604 	addi	r16,r16,11544
 2005668:	20092f40 	call	20092f4 <__muldf3>
 200566c:	044ffa74 	movhi	r17,16361
 2005670:	8c487ec4 	addi	r17,r17,8699
 2005674:	180b883a 	mov	r5,r3
 2005678:	1009883a 	mov	r4,r2
 200567c:	800d883a 	mov	r6,r16
 2005680:	880f883a 	mov	r7,r17
 2005684:	20092800 	call	2009280 <__adddf3>
 2005688:	180f883a 	mov	r7,r3
 200568c:	980b883a 	mov	r5,r19
 2005690:	9009883a 	mov	r4,r18
 2005694:	100d883a 	mov	r6,r2
 2005698:	20092000 	call	2009200 <__subdf3>
 200569c:	180f883a 	mov	r7,r3
 20056a0:	8009883a 	mov	r4,r16
 20056a4:	880b883a 	mov	r5,r17
 20056a8:	100d883a 	mov	r6,r2
 20056ac:	003fa206 	br	2005538 <__ieee754_asin+0x738>
 20056b0:	102d883a 	mov	r22,r2
 20056b4:	1de0003c 	xorhi	r23,r3,32768
 20056b8:	003e0406 	br	2004ecc <__ieee754_asin+0xcc>

020056bc <__ieee754_atan2>:
 20056bc:	3015883a 	mov	r10,r6
 20056c0:	3019883a 	mov	r12,r6
 20056c4:	018dc83a 	sub	r6,zero,r6
 20056c8:	518cb03a 	or	r6,r10,r6
 20056cc:	300cd7fa 	srli	r6,r6,31
 20056d0:	03a00034 	movhi	r14,32768
 20056d4:	73bfffc4 	addi	r14,r14,-1
 20056d8:	3b9e703a 	and	r15,r7,r14
 20056dc:	defffc04 	addi	sp,sp,-16
 20056e0:	33ccb03a 	or	r6,r6,r15
 20056e4:	035ffc34 	movhi	r13,32752
 20056e8:	dc000015 	stw	r16,0(sp)
 20056ec:	dfc00315 	stw	ra,12(sp)
 20056f0:	dc800215 	stw	r18,8(sp)
 20056f4:	dc400115 	stw	r17,4(sp)
 20056f8:	3817883a 	mov	r11,r7
 20056fc:	2011883a 	mov	r8,r4
 2005700:	2813883a 	mov	r9,r5
 2005704:	3821883a 	mov	r16,r7
 2005708:	69800736 	bltu	r13,r6,2005728 <__ieee754_atan2+0x6c>
 200570c:	0105c83a 	sub	r2,zero,r4
 2005710:	2084b03a 	or	r2,r4,r2
 2005714:	1004d7fa 	srli	r2,r2,31
 2005718:	2b8c703a 	and	r6,r5,r14
 200571c:	2823883a 	mov	r17,r5
 2005720:	1184b03a 	or	r2,r2,r6
 2005724:	68800d2e 	bgeu	r13,r2,200575c <__ieee754_atan2+0xa0>
 2005728:	4009883a 	mov	r4,r8
 200572c:	500d883a 	mov	r6,r10
 2005730:	20092800 	call	2009280 <__adddf3>
 2005734:	1011883a 	mov	r8,r2
 2005738:	1813883a 	mov	r9,r3
 200573c:	4005883a 	mov	r2,r8
 2005740:	4807883a 	mov	r3,r9
 2005744:	dfc00317 	ldw	ra,12(sp)
 2005748:	dc800217 	ldw	r18,8(sp)
 200574c:	dc400117 	ldw	r17,4(sp)
 2005750:	dc000017 	ldw	r16,0(sp)
 2005754:	dec00404 	addi	sp,sp,16
 2005758:	f800283a 	ret
 200575c:	00b00434 	movhi	r2,49168
 2005760:	3885883a 	add	r2,r7,r2
 2005764:	5084b03a 	or	r2,r10,r2
 2005768:	10001026 	beq	r2,zero,20057ac <__ieee754_atan2+0xf0>
 200576c:	3805d7ba 	srai	r2,r7,30
 2005770:	2806d7fa 	srli	r3,r5,31
 2005774:	2188b03a 	or	r4,r4,r6
 2005778:	1080008c 	andi	r2,r2,2
 200577c:	18a4b03a 	or	r18,r3,r2
 2005780:	00800084 	movi	r2,2
 2005784:	2000101e 	bne	r4,zero,20057c8 <__ieee754_atan2+0x10c>
 2005788:	90803826 	beq	r18,r2,200586c <__ieee754_atan2+0x1b0>
 200578c:	14bfeb0e 	bge	r2,r18,200573c <__ieee754_atan2+0x80>
 2005790:	008000c4 	movi	r2,3
 2005794:	90800c1e 	bne	r18,r2,20057c8 <__ieee754_atan2+0x10c>
 2005798:	02151134 	movhi	r8,21572
 200579c:	420b4604 	addi	r8,r8,11544
 20057a0:	02700274 	movhi	r9,49161
 20057a4:	4a487ec4 	addi	r9,r9,8699
 20057a8:	003fe406 	br	200573c <__ieee754_atan2+0x80>
 20057ac:	4009883a 	mov	r4,r8
 20057b0:	dfc00317 	ldw	ra,12(sp)
 20057b4:	dc800217 	ldw	r18,8(sp)
 20057b8:	dc400117 	ldw	r17,4(sp)
 20057bc:	dc000017 	ldw	r16,0(sp)
 20057c0:	dec00404 	addi	sp,sp,16
 20057c4:	2007bbc1 	jmpi	2007bbc <atan>
 20057c8:	63c4b03a 	or	r2,r12,r15
 20057cc:	10001426 	beq	r2,zero,2005820 <__ieee754_atan2+0x164>
 20057d0:	009ffc34 	movhi	r2,32752
 20057d4:	78801d26 	beq	r15,r2,200584c <__ieee754_atan2+0x190>
 20057d8:	009ffc34 	movhi	r2,32752
 20057dc:	30801026 	beq	r6,r2,2005820 <__ieee754_atan2+0x164>
 20057e0:	33c5c83a 	sub	r2,r6,r15
 20057e4:	1009d53a 	srai	r4,r2,20
 20057e8:	00c00f04 	movi	r3,60
 20057ec:	1900240e 	bge	r3,r4,2005880 <__ieee754_atan2+0x1c4>
 20057f0:	02951134 	movhi	r10,21572
 20057f4:	528b4604 	addi	r10,r10,11544
 20057f8:	02cffe74 	movhi	r11,16377
 20057fc:	5ac87ec4 	addi	r11,r11,8699
 2005800:	00800044 	movi	r2,1
 2005804:	90802d26 	beq	r18,r2,20058bc <__ieee754_atan2+0x200>
 2005808:	00800084 	movi	r2,2
 200580c:	90804426 	beq	r18,r2,2005920 <__ieee754_atan2+0x264>
 2005810:	90002e1e 	bne	r18,zero,20058cc <__ieee754_atan2+0x210>
 2005814:	5011883a 	mov	r8,r10
 2005818:	5813883a 	mov	r9,r11
 200581c:	003fc706 	br	200573c <__ieee754_atan2+0x80>
 2005820:	88000516 	blt	r17,zero,2005838 <__ieee754_atan2+0x17c>
 2005824:	02151134 	movhi	r8,21572
 2005828:	420b4604 	addi	r8,r8,11544
 200582c:	024ffe74 	movhi	r9,16377
 2005830:	4a487ec4 	addi	r9,r9,8699
 2005834:	003fc106 	br	200573c <__ieee754_atan2+0x80>
 2005838:	02151134 	movhi	r8,21572
 200583c:	420b4604 	addi	r8,r8,11544
 2005840:	026ffe74 	movhi	r9,49145
 2005844:	4a487ec4 	addi	r9,r9,8699
 2005848:	003fbc06 	br	200573c <__ieee754_atan2+0x80>
 200584c:	33c04b26 	beq	r6,r15,200597c <__ieee754_atan2+0x2c0>
 2005850:	00800044 	movi	r2,1
 2005854:	90805726 	beq	r18,r2,20059b4 <__ieee754_atan2+0x2f8>
 2005858:	14805116 	blt	r2,r18,20059a0 <__ieee754_atan2+0x2e4>
 200585c:	903fde1e 	bne	r18,zero,20057d8 <__ieee754_atan2+0x11c>
 2005860:	0011883a 	mov	r8,zero
 2005864:	0013883a 	mov	r9,zero
 2005868:	003fb406 	br	200573c <__ieee754_atan2+0x80>
 200586c:	02151134 	movhi	r8,21572
 2005870:	420b4604 	addi	r8,r8,11544
 2005874:	02500274 	movhi	r9,16393
 2005878:	4a487ec4 	addi	r9,r9,8699
 200587c:	003faf06 	br	200573c <__ieee754_atan2+0x80>
 2005880:	80003916 	blt	r16,zero,2005968 <__ieee754_atan2+0x2ac>
 2005884:	580f883a 	mov	r7,r11
 2005888:	480b883a 	mov	r5,r9
 200588c:	500d883a 	mov	r6,r10
 2005890:	4009883a 	mov	r4,r8
 2005894:	20096b80 	call	20096b8 <__divdf3>
 2005898:	180b883a 	mov	r5,r3
 200589c:	1009883a 	mov	r4,r2
 20058a0:	20082540 	call	2008254 <fabs>
 20058a4:	180b883a 	mov	r5,r3
 20058a8:	1009883a 	mov	r4,r2
 20058ac:	2007bbc0 	call	2007bbc <atan>
 20058b0:	1015883a 	mov	r10,r2
 20058b4:	1817883a 	mov	r11,r3
 20058b8:	003fd106 	br	2005800 <__ieee754_atan2+0x144>
 20058bc:	59a0003c 	xorhi	r6,r11,32768
 20058c0:	5011883a 	mov	r8,r10
 20058c4:	3013883a 	mov	r9,r6
 20058c8:	003f9c06 	br	200573c <__ieee754_atan2+0x80>
 20058cc:	008cc534 	movhi	r2,13076
 20058d0:	109701c4 	addi	r2,r2,23559
 20058d4:	00cf28b4 	movhi	r3,15522
 20058d8:	18e98984 	addi	r3,r3,-23002
 20058dc:	580b883a 	mov	r5,r11
 20058e0:	180f883a 	mov	r7,r3
 20058e4:	5009883a 	mov	r4,r10
 20058e8:	100d883a 	mov	r6,r2
 20058ec:	20092000 	call	2009200 <__subdf3>
 20058f0:	02151134 	movhi	r8,21572
 20058f4:	420b4604 	addi	r8,r8,11544
 20058f8:	02500274 	movhi	r9,16393
 20058fc:	4a487ec4 	addi	r9,r9,8699
 2005900:	180b883a 	mov	r5,r3
 2005904:	480f883a 	mov	r7,r9
 2005908:	1009883a 	mov	r4,r2
 200590c:	400d883a 	mov	r6,r8
 2005910:	20092000 	call	2009200 <__subdf3>
 2005914:	1011883a 	mov	r8,r2
 2005918:	1813883a 	mov	r9,r3
 200591c:	003f8706 	br	200573c <__ieee754_atan2+0x80>
 2005920:	008cc534 	movhi	r2,13076
 2005924:	109701c4 	addi	r2,r2,23559
 2005928:	00cf28b4 	movhi	r3,15522
 200592c:	18e98984 	addi	r3,r3,-23002
 2005930:	580b883a 	mov	r5,r11
 2005934:	180f883a 	mov	r7,r3
 2005938:	5009883a 	mov	r4,r10
 200593c:	100d883a 	mov	r6,r2
 2005940:	20092000 	call	2009200 <__subdf3>
 2005944:	02151134 	movhi	r8,21572
 2005948:	420b4604 	addi	r8,r8,11544
 200594c:	02500274 	movhi	r9,16393
 2005950:	4a487ec4 	addi	r9,r9,8699
 2005954:	480b883a 	mov	r5,r9
 2005958:	180f883a 	mov	r7,r3
 200595c:	4009883a 	mov	r4,r8
 2005960:	100d883a 	mov	r6,r2
 2005964:	003fea06 	br	2005910 <__ieee754_atan2+0x254>
 2005968:	00bff104 	movi	r2,-60
 200596c:	20bfc50e 	bge	r4,r2,2005884 <__ieee754_atan2+0x1c8>
 2005970:	0015883a 	mov	r10,zero
 2005974:	0017883a 	mov	r11,zero
 2005978:	003fa106 	br	2005800 <__ieee754_atan2+0x144>
 200597c:	00800044 	movi	r2,1
 2005980:	90801826 	beq	r18,r2,20059e4 <__ieee754_atan2+0x328>
 2005984:	14800e16 	blt	r2,r18,20059c0 <__ieee754_atan2+0x304>
 2005988:	903f931e 	bne	r18,zero,20057d8 <__ieee754_atan2+0x11c>
 200598c:	02151134 	movhi	r8,21572
 2005990:	420b4604 	addi	r8,r8,11544
 2005994:	024ffa74 	movhi	r9,16361
 2005998:	4a487ec4 	addi	r9,r9,8699
 200599c:	003f6706 	br	200573c <__ieee754_atan2+0x80>
 20059a0:	00800084 	movi	r2,2
 20059a4:	90bfb126 	beq	r18,r2,200586c <__ieee754_atan2+0x1b0>
 20059a8:	008000c4 	movi	r2,3
 20059ac:	90bf8a1e 	bne	r18,r2,20057d8 <__ieee754_atan2+0x11c>
 20059b0:	003f7906 	br	2005798 <__ieee754_atan2+0xdc>
 20059b4:	0011883a 	mov	r8,zero
 20059b8:	02600034 	movhi	r9,32768
 20059bc:	003f5f06 	br	200573c <__ieee754_atan2+0x80>
 20059c0:	00800084 	movi	r2,2
 20059c4:	90800c26 	beq	r18,r2,20059f8 <__ieee754_atan2+0x33c>
 20059c8:	008000c4 	movi	r2,3
 20059cc:	90bf821e 	bne	r18,r2,20057d8 <__ieee754_atan2+0x11c>
 20059d0:	021fccf4 	movhi	r8,32563
 20059d4:	42087484 	addi	r8,r8,8658
 20059d8:	027000f4 	movhi	r9,49155
 20059dc:	4a765f04 	addi	r9,r9,-9860
 20059e0:	003f5606 	br	200573c <__ieee754_atan2+0x80>
 20059e4:	02151134 	movhi	r8,21572
 20059e8:	420b4604 	addi	r8,r8,11544
 20059ec:	026ffa74 	movhi	r9,49129
 20059f0:	4a487ec4 	addi	r9,r9,8699
 20059f4:	003f5106 	br	200573c <__ieee754_atan2+0x80>
 20059f8:	021fccf4 	movhi	r8,32563
 20059fc:	42087484 	addi	r8,r8,8658
 2005a00:	025000f4 	movhi	r9,16387
 2005a04:	4a765f04 	addi	r9,r9,-9860
 2005a08:	003f4c06 	br	200573c <__ieee754_atan2+0x80>

02005a0c <__ieee754_rem_pio2>:
 2005a0c:	deffe304 	addi	sp,sp,-116
 2005a10:	00a00034 	movhi	r2,32768
 2005a14:	10bfffc4 	addi	r2,r2,-1
 2005a18:	dd801915 	stw	r22,100(sp)
 2005a1c:	28ac703a 	and	r22,r5,r2
 2005a20:	008ffa74 	movhi	r2,16361
 2005a24:	10887ec4 	addi	r2,r2,8699
 2005a28:	df001b15 	stw	fp,108(sp)
 2005a2c:	dfc01c15 	stw	ra,112(sp)
 2005a30:	ddc01a15 	stw	r23,104(sp)
 2005a34:	dd401815 	stw	r21,96(sp)
 2005a38:	dd001715 	stw	r20,92(sp)
 2005a3c:	dcc01615 	stw	r19,88(sp)
 2005a40:	dc801515 	stw	r18,84(sp)
 2005a44:	dc401415 	stw	r17,80(sp)
 2005a48:	dc001315 	stw	r16,76(sp)
 2005a4c:	2013883a 	mov	r9,r4
 2005a50:	d9400a15 	stw	r5,40(sp)
 2005a54:	3039883a 	mov	fp,r6
 2005a58:	15801216 	blt	r2,r22,2005aa4 <__ieee754_rem_pio2+0x98>
 2005a5c:	e1400115 	stw	r5,4(fp)
 2005a60:	30000315 	stw	zero,12(r6)
 2005a64:	e1000015 	stw	r4,0(fp)
 2005a68:	d8000b15 	stw	zero,44(sp)
 2005a6c:	30000215 	stw	zero,8(r6)
 2005a70:	d8800b17 	ldw	r2,44(sp)
 2005a74:	dfc01c17 	ldw	ra,112(sp)
 2005a78:	df001b17 	ldw	fp,108(sp)
 2005a7c:	ddc01a17 	ldw	r23,104(sp)
 2005a80:	dd801917 	ldw	r22,100(sp)
 2005a84:	dd401817 	ldw	r21,96(sp)
 2005a88:	dd001717 	ldw	r20,92(sp)
 2005a8c:	dcc01617 	ldw	r19,88(sp)
 2005a90:	dc801517 	ldw	r18,84(sp)
 2005a94:	dc401417 	ldw	r17,80(sp)
 2005a98:	dc001317 	ldw	r16,76(sp)
 2005a9c:	dec01d04 	addi	sp,sp,116
 2005aa0:	f800283a 	ret
 2005aa4:	009000f4 	movhi	r2,16387
 2005aa8:	10b65ec4 	addi	r2,r2,-9861
 2005aac:	15800f0e 	bge	r2,r22,2005aec <__ieee754_rem_pio2+0xe0>
 2005ab0:	00904e74 	movhi	r2,16697
 2005ab4:	10887ec4 	addi	r2,r2,8699
 2005ab8:	1580330e 	bge	r2,r22,2005b88 <__ieee754_rem_pio2+0x17c>
 2005abc:	009ffc34 	movhi	r2,32752
 2005ac0:	10bfffc4 	addi	r2,r2,-1
 2005ac4:	1580fe0e 	bge	r2,r22,2005ec0 <__ieee754_rem_pio2+0x4b4>
 2005ac8:	280f883a 	mov	r7,r5
 2005acc:	480d883a 	mov	r6,r9
 2005ad0:	20092000 	call	2009200 <__subdf3>
 2005ad4:	e0c00115 	stw	r3,4(fp)
 2005ad8:	d8000b15 	stw	zero,44(sp)
 2005adc:	e0800015 	stw	r2,0(fp)
 2005ae0:	e0800215 	stw	r2,8(fp)
 2005ae4:	e0c00315 	stw	r3,12(fp)
 2005ae8:	003fe106 	br	2005a70 <__ieee754_rem_pio2+0x64>
 2005aec:	d9000a17 	ldw	r4,40(sp)
 2005af0:	0100ce0e 	bge	zero,r4,2005e2c <__ieee754_rem_pio2+0x420>
 2005af4:	04151034 	movhi	r16,21568
 2005af8:	044ffe74 	movhi	r17,16377
 2005afc:	8c487ec4 	addi	r17,r17,8699
 2005b00:	4809883a 	mov	r4,r9
 2005b04:	800d883a 	mov	r6,r16
 2005b08:	880f883a 	mov	r7,r17
 2005b0c:	20092000 	call	2009200 <__subdf3>
 2005b10:	1025883a 	mov	r18,r2
 2005b14:	1827883a 	mov	r19,r3
 2005b18:	b4413c26 	beq	r22,r17,200600c <__ieee754_rem_pio2+0x600>
 2005b1c:	040698b4 	movhi	r16,6754
 2005b20:	8418cc44 	addi	r16,r16,25393
 2005b24:	044f7474 	movhi	r17,15825
 2005b28:	8c6d1844 	addi	r17,r17,-19359
 2005b2c:	1009883a 	mov	r4,r2
 2005b30:	180b883a 	mov	r5,r3
 2005b34:	800d883a 	mov	r6,r16
 2005b38:	880f883a 	mov	r7,r17
 2005b3c:	20092000 	call	2009200 <__subdf3>
 2005b40:	100d883a 	mov	r6,r2
 2005b44:	9009883a 	mov	r4,r18
 2005b48:	980b883a 	mov	r5,r19
 2005b4c:	180f883a 	mov	r7,r3
 2005b50:	e0800015 	stw	r2,0(fp)
 2005b54:	e0c00115 	stw	r3,4(fp)
 2005b58:	20092000 	call	2009200 <__subdf3>
 2005b5c:	1009883a 	mov	r4,r2
 2005b60:	800d883a 	mov	r6,r16
 2005b64:	880f883a 	mov	r7,r17
 2005b68:	180b883a 	mov	r5,r3
 2005b6c:	20092000 	call	2009200 <__subdf3>
 2005b70:	1009883a 	mov	r4,r2
 2005b74:	00800044 	movi	r2,1
 2005b78:	d8800b15 	stw	r2,44(sp)
 2005b7c:	e0c00315 	stw	r3,12(fp)
 2005b80:	e1000215 	stw	r4,8(fp)
 2005b84:	003fba06 	br	2005a70 <__ieee754_rem_pio2+0x64>
 2005b88:	20082540 	call	2008254 <fabs>
 2005b8c:	021b72b4 	movhi	r8,28106
 2005b90:	423220c4 	addi	r8,r8,-14205
 2005b94:	024ff934 	movhi	r9,16356
 2005b98:	4a57cc04 	addi	r9,r9,24368
 2005b9c:	480f883a 	mov	r7,r9
 2005ba0:	400d883a 	mov	r6,r8
 2005ba4:	1009883a 	mov	r4,r2
 2005ba8:	180b883a 	mov	r5,r3
 2005bac:	1025883a 	mov	r18,r2
 2005bb0:	1827883a 	mov	r19,r3
 2005bb4:	20092f40 	call	20092f4 <__muldf3>
 2005bb8:	0011883a 	mov	r8,zero
 2005bbc:	024ff834 	movhi	r9,16352
 2005bc0:	480f883a 	mov	r7,r9
 2005bc4:	400d883a 	mov	r6,r8
 2005bc8:	180b883a 	mov	r5,r3
 2005bcc:	1009883a 	mov	r4,r2
 2005bd0:	20092800 	call	2009280 <__adddf3>
 2005bd4:	180b883a 	mov	r5,r3
 2005bd8:	1009883a 	mov	r4,r2
 2005bdc:	2009c280 	call	2009c28 <__fixdfsi>
 2005be0:	1009883a 	mov	r4,r2
 2005be4:	d8800b15 	stw	r2,44(sp)
 2005be8:	2009b300 	call	2009b30 <__floatsidf>
 2005bec:	1823883a 	mov	r17,r3
 2005bf0:	1009883a 	mov	r4,r2
 2005bf4:	d8800c15 	stw	r2,48(sp)
 2005bf8:	00effe74 	movhi	r3,49145
 2005bfc:	18c87ec4 	addi	r3,r3,8699
 2005c00:	00951034 	movhi	r2,21568
 2005c04:	880b883a 	mov	r5,r17
 2005c08:	180f883a 	mov	r7,r3
 2005c0c:	100d883a 	mov	r6,r2
 2005c10:	dc400d15 	stw	r17,52(sp)
 2005c14:	20092f40 	call	20092f4 <__muldf3>
 2005c18:	180f883a 	mov	r7,r3
 2005c1c:	980b883a 	mov	r5,r19
 2005c20:	9009883a 	mov	r4,r18
 2005c24:	100d883a 	mov	r6,r2
 2005c28:	20092800 	call	2009280 <__adddf3>
 2005c2c:	d9000c17 	ldw	r4,48(sp)
 2005c30:	020698b4 	movhi	r8,6754
 2005c34:	4218cc44 	addi	r8,r8,25393
 2005c38:	024f7474 	movhi	r9,15825
 2005c3c:	4a6d1844 	addi	r9,r9,-19359
 2005c40:	880b883a 	mov	r5,r17
 2005c44:	480f883a 	mov	r7,r9
 2005c48:	400d883a 	mov	r6,r8
 2005c4c:	1025883a 	mov	r18,r2
 2005c50:	1827883a 	mov	r19,r3
 2005c54:	20092f40 	call	20092f4 <__muldf3>
 2005c58:	d9000b17 	ldw	r4,44(sp)
 2005c5c:	100f883a 	mov	r7,r2
 2005c60:	1811883a 	mov	r8,r3
 2005c64:	008007c4 	movi	r2,31
 2005c68:	dc800e15 	stw	r18,56(sp)
 2005c6c:	3821883a 	mov	r16,r7
 2005c70:	dcc00f15 	stw	r19,60(sp)
 2005c74:	4023883a 	mov	r17,r8
 2005c78:	11010a0e 	bge	r2,r4,20060a4 <__ieee754_rem_pio2+0x698>
 2005c7c:	d9000e17 	ldw	r4,56(sp)
 2005c80:	d9400f17 	ldw	r5,60(sp)
 2005c84:	800d883a 	mov	r6,r16
 2005c88:	880f883a 	mov	r7,r17
 2005c8c:	20092000 	call	2009200 <__subdf3>
 2005c90:	1810d53a 	srli	r8,r3,20
 2005c94:	b02dd53a 	srai	r22,r22,20
 2005c98:	1009883a 	mov	r4,r2
 2005c9c:	4201ffcc 	andi	r8,r8,2047
 2005ca0:	180b883a 	mov	r5,r3
 2005ca4:	b211c83a 	sub	r8,r22,r8
 2005ca8:	00800404 	movi	r2,16
 2005cac:	dd801015 	stw	r22,64(sp)
 2005cb0:	e1000015 	stw	r4,0(fp)
 2005cb4:	e1400115 	stw	r5,4(fp)
 2005cb8:	1200430e 	bge	r2,r8,2005dc8 <__ieee754_rem_pio2+0x3bc>
 2005cbc:	d9000c17 	ldw	r4,48(sp)
 2005cc0:	d9400d17 	ldw	r5,52(sp)
 2005cc4:	00869834 	movhi	r2,6752
 2005cc8:	00cf7474 	movhi	r3,15825
 2005ccc:	18ed1844 	addi	r3,r3,-19359
 2005cd0:	180f883a 	mov	r7,r3
 2005cd4:	100d883a 	mov	r6,r2
 2005cd8:	20092f40 	call	20092f4 <__muldf3>
 2005cdc:	d9000e17 	ldw	r4,56(sp)
 2005ce0:	d9400f17 	ldw	r5,60(sp)
 2005ce4:	100d883a 	mov	r6,r2
 2005ce8:	180f883a 	mov	r7,r3
 2005cec:	1025883a 	mov	r18,r2
 2005cf0:	1827883a 	mov	r19,r3
 2005cf4:	20092000 	call	2009200 <__subdf3>
 2005cf8:	d9000c17 	ldw	r4,48(sp)
 2005cfc:	d9400d17 	ldw	r5,52(sp)
 2005d00:	058b80f4 	movhi	r22,11779
 2005d04:	b59c1cc4 	addi	r22,r22,28787
 2005d08:	05cee8f4 	movhi	r23,15267
 2005d0c:	bdc66284 	addi	r23,r23,6538
 2005d10:	b00d883a 	mov	r6,r22
 2005d14:	b80f883a 	mov	r7,r23
 2005d18:	d8801115 	stw	r2,68(sp)
 2005d1c:	d8c01215 	stw	r3,72(sp)
 2005d20:	d8800815 	stw	r2,32(sp)
 2005d24:	20092f40 	call	20092f4 <__muldf3>
 2005d28:	d9001217 	ldw	r4,72(sp)
 2005d2c:	d9400f17 	ldw	r5,60(sp)
 2005d30:	d9800817 	ldw	r6,32(sp)
 2005d34:	d9000915 	stw	r4,36(sp)
 2005d38:	d9c01217 	ldw	r7,72(sp)
 2005d3c:	d9000e17 	ldw	r4,56(sp)
 2005d40:	1021883a 	mov	r16,r2
 2005d44:	1823883a 	mov	r17,r3
 2005d48:	20092000 	call	2009200 <__subdf3>
 2005d4c:	180b883a 	mov	r5,r3
 2005d50:	900d883a 	mov	r6,r18
 2005d54:	980f883a 	mov	r7,r19
 2005d58:	1009883a 	mov	r4,r2
 2005d5c:	20092000 	call	2009200 <__subdf3>
 2005d60:	180f883a 	mov	r7,r3
 2005d64:	880b883a 	mov	r5,r17
 2005d68:	8009883a 	mov	r4,r16
 2005d6c:	100d883a 	mov	r6,r2
 2005d70:	20092000 	call	2009200 <__subdf3>
 2005d74:	d9000817 	ldw	r4,32(sp)
 2005d78:	d9401217 	ldw	r5,72(sp)
 2005d7c:	180f883a 	mov	r7,r3
 2005d80:	100d883a 	mov	r6,r2
 2005d84:	1021883a 	mov	r16,r2
 2005d88:	1823883a 	mov	r17,r3
 2005d8c:	20092000 	call	2009200 <__subdf3>
 2005d90:	1810d53a 	srli	r8,r3,20
 2005d94:	1009883a 	mov	r4,r2
 2005d98:	d8801017 	ldw	r2,64(sp)
 2005d9c:	4201ffcc 	andi	r8,r8,2047
 2005da0:	180b883a 	mov	r5,r3
 2005da4:	1211c83a 	sub	r8,r2,r8
 2005da8:	00800c44 	movi	r2,49
 2005dac:	e1000015 	stw	r4,0(fp)
 2005db0:	e1400115 	stw	r5,4(fp)
 2005db4:	1200f016 	blt	r2,r8,2006178 <__ieee754_rem_pio2+0x76c>
 2005db8:	d8c00817 	ldw	r3,32(sp)
 2005dbc:	d9001217 	ldw	r4,72(sp)
 2005dc0:	d8c00e15 	stw	r3,56(sp)
 2005dc4:	d9000f15 	stw	r4,60(sp)
 2005dc8:	e1800017 	ldw	r6,0(fp)
 2005dcc:	e1c00117 	ldw	r7,4(fp)
 2005dd0:	d9400f17 	ldw	r5,60(sp)
 2005dd4:	d9000e17 	ldw	r4,56(sp)
 2005dd8:	20092000 	call	2009200 <__subdf3>
 2005ddc:	180b883a 	mov	r5,r3
 2005de0:	800d883a 	mov	r6,r16
 2005de4:	880f883a 	mov	r7,r17
 2005de8:	1009883a 	mov	r4,r2
 2005dec:	20092000 	call	2009200 <__subdf3>
 2005df0:	d9400a17 	ldw	r5,40(sp)
 2005df4:	e0800215 	stw	r2,8(fp)
 2005df8:	e1800204 	addi	r6,fp,8
 2005dfc:	30c00115 	stw	r3,4(r6)
 2005e00:	283f1b0e 	bge	r5,zero,2005a70 <__ieee754_rem_pio2+0x64>
 2005e04:	e0c00117 	ldw	r3,4(fp)
 2005e08:	d8800b17 	ldw	r2,44(sp)
 2005e0c:	18e0003c 	xorhi	r3,r3,32768
 2005e10:	0085c83a 	sub	r2,zero,r2
 2005e14:	e0c00115 	stw	r3,4(fp)
 2005e18:	d8800b15 	stw	r2,44(sp)
 2005e1c:	30800117 	ldw	r2,4(r6)
 2005e20:	10a0003c 	xorhi	r2,r2,32768
 2005e24:	30800115 	stw	r2,4(r6)
 2005e28:	003f1106 	br	2005a70 <__ieee754_rem_pio2+0x64>
 2005e2c:	04151034 	movhi	r16,21568
 2005e30:	044ffe74 	movhi	r17,16377
 2005e34:	8c487ec4 	addi	r17,r17,8699
 2005e38:	4809883a 	mov	r4,r9
 2005e3c:	800d883a 	mov	r6,r16
 2005e40:	880f883a 	mov	r7,r17
 2005e44:	20092800 	call	2009280 <__adddf3>
 2005e48:	1025883a 	mov	r18,r2
 2005e4c:	1827883a 	mov	r19,r3
 2005e50:	b440a326 	beq	r22,r17,20060e0 <__ieee754_rem_pio2+0x6d4>
 2005e54:	040698b4 	movhi	r16,6754
 2005e58:	8418cc44 	addi	r16,r16,25393
 2005e5c:	044f7474 	movhi	r17,15825
 2005e60:	8c6d1844 	addi	r17,r17,-19359
 2005e64:	1009883a 	mov	r4,r2
 2005e68:	180b883a 	mov	r5,r3
 2005e6c:	800d883a 	mov	r6,r16
 2005e70:	880f883a 	mov	r7,r17
 2005e74:	20092800 	call	2009280 <__adddf3>
 2005e78:	100d883a 	mov	r6,r2
 2005e7c:	9009883a 	mov	r4,r18
 2005e80:	980b883a 	mov	r5,r19
 2005e84:	180f883a 	mov	r7,r3
 2005e88:	e0800015 	stw	r2,0(fp)
 2005e8c:	e0c00115 	stw	r3,4(fp)
 2005e90:	20092000 	call	2009200 <__subdf3>
 2005e94:	1009883a 	mov	r4,r2
 2005e98:	800d883a 	mov	r6,r16
 2005e9c:	880f883a 	mov	r7,r17
 2005ea0:	180b883a 	mov	r5,r3
 2005ea4:	20092800 	call	2009280 <__adddf3>
 2005ea8:	1009883a 	mov	r4,r2
 2005eac:	00bfffc4 	movi	r2,-1
 2005eb0:	d8800b15 	stw	r2,44(sp)
 2005eb4:	e0c00315 	stw	r3,12(fp)
 2005eb8:	e1000215 	stw	r4,8(fp)
 2005ebc:	003eec06 	br	2005a70 <__ieee754_rem_pio2+0x64>
 2005ec0:	b005d53a 	srai	r2,r22,20
 2005ec4:	4821883a 	mov	r16,r9
 2005ec8:	05505c34 	movhi	r21,16752
 2005ecc:	15fefa84 	addi	r23,r2,-1046
 2005ed0:	b826953a 	slli	r19,r23,20
 2005ed4:	0029883a 	mov	r20,zero
 2005ed8:	048000c4 	movi	r18,3
 2005edc:	b4e7c83a 	sub	r19,r22,r19
 2005ee0:	980b883a 	mov	r5,r19
 2005ee4:	2009c280 	call	2009c28 <__fixdfsi>
 2005ee8:	1009883a 	mov	r4,r2
 2005eec:	2009b300 	call	2009b30 <__floatsidf>
 2005ef0:	980b883a 	mov	r5,r19
 2005ef4:	8009883a 	mov	r4,r16
 2005ef8:	180f883a 	mov	r7,r3
 2005efc:	100d883a 	mov	r6,r2
 2005f00:	d8800215 	stw	r2,8(sp)
 2005f04:	d8c00315 	stw	r3,12(sp)
 2005f08:	20092000 	call	2009200 <__subdf3>
 2005f0c:	180b883a 	mov	r5,r3
 2005f10:	a00d883a 	mov	r6,r20
 2005f14:	a80f883a 	mov	r7,r21
 2005f18:	1009883a 	mov	r4,r2
 2005f1c:	20092f40 	call	20092f4 <__muldf3>
 2005f20:	180b883a 	mov	r5,r3
 2005f24:	1009883a 	mov	r4,r2
 2005f28:	1823883a 	mov	r17,r3
 2005f2c:	1021883a 	mov	r16,r2
 2005f30:	2009c280 	call	2009c28 <__fixdfsi>
 2005f34:	1009883a 	mov	r4,r2
 2005f38:	2009b300 	call	2009b30 <__floatsidf>
 2005f3c:	880b883a 	mov	r5,r17
 2005f40:	8009883a 	mov	r4,r16
 2005f44:	180f883a 	mov	r7,r3
 2005f48:	100d883a 	mov	r6,r2
 2005f4c:	d8800415 	stw	r2,16(sp)
 2005f50:	d8c00515 	stw	r3,20(sp)
 2005f54:	20092000 	call	2009200 <__subdf3>
 2005f58:	180b883a 	mov	r5,r3
 2005f5c:	000d883a 	mov	r6,zero
 2005f60:	a80f883a 	mov	r7,r21
 2005f64:	1009883a 	mov	r4,r2
 2005f68:	20092f40 	call	20092f4 <__muldf3>
 2005f6c:	d8c00715 	stw	r3,28(sp)
 2005f70:	d8800615 	stw	r2,24(sp)
 2005f74:	00000106 	br	2005f7c <__ieee754_rem_pio2+0x570>
 2005f78:	8025883a 	mov	r18,r16
 2005f7c:	943fffc4 	addi	r16,r18,-1
 2005f80:	800890fa 	slli	r4,r16,3
 2005f84:	d9400204 	addi	r5,sp,8
 2005f88:	000d883a 	mov	r6,zero
 2005f8c:	2149883a 	add	r4,r4,r5
 2005f90:	20c00117 	ldw	r3,4(r4)
 2005f94:	20800017 	ldw	r2,0(r4)
 2005f98:	000f883a 	mov	r7,zero
 2005f9c:	180b883a 	mov	r5,r3
 2005fa0:	1009883a 	mov	r4,r2
 2005fa4:	20099100 	call	2009910 <__eqdf2>
 2005fa8:	103ff326 	beq	r2,zero,2005f78 <__ieee754_rem_pio2+0x56c>
 2005fac:	00800084 	movi	r2,2
 2005fb0:	00c08074 	movhi	r3,513
 2005fb4:	18f9cb04 	addi	r3,r3,-6356
 2005fb8:	b80d883a 	mov	r6,r23
 2005fbc:	900f883a 	mov	r7,r18
 2005fc0:	d9000204 	addi	r4,sp,8
 2005fc4:	e00b883a 	mov	r5,fp
 2005fc8:	d8800015 	stw	r2,0(sp)
 2005fcc:	d8c00115 	stw	r3,4(sp)
 2005fd0:	2006a280 	call	2006a28 <__kernel_rem_pio2>
 2005fd4:	d8800b15 	stw	r2,44(sp)
 2005fd8:	d8800a17 	ldw	r2,40(sp)
 2005fdc:	103ea40e 	bge	r2,zero,2005a70 <__ieee754_rem_pio2+0x64>
 2005fe0:	e0800117 	ldw	r2,4(fp)
 2005fe4:	d8c00b17 	ldw	r3,44(sp)
 2005fe8:	e1000204 	addi	r4,fp,8
 2005fec:	10a0003c 	xorhi	r2,r2,32768
 2005ff0:	00c7c83a 	sub	r3,zero,r3
 2005ff4:	e0800115 	stw	r2,4(fp)
 2005ff8:	d8c00b15 	stw	r3,44(sp)
 2005ffc:	20c00117 	ldw	r3,4(r4)
 2006000:	18e0003c 	xorhi	r3,r3,32768
 2006004:	20c00115 	stw	r3,4(r4)
 2006008:	003e9906 	br	2005a70 <__ieee754_rem_pio2+0x64>
 200600c:	00869834 	movhi	r2,6752
 2006010:	00cf7474 	movhi	r3,15825
 2006014:	18ed1844 	addi	r3,r3,-19359
 2006018:	9009883a 	mov	r4,r18
 200601c:	980b883a 	mov	r5,r19
 2006020:	180f883a 	mov	r7,r3
 2006024:	100d883a 	mov	r6,r2
 2006028:	20092000 	call	2009200 <__subdf3>
 200602c:	048b80f4 	movhi	r18,11779
 2006030:	949c1cc4 	addi	r18,r18,28787
 2006034:	04cee8f4 	movhi	r19,15267
 2006038:	9cc66284 	addi	r19,r19,6538
 200603c:	1009883a 	mov	r4,r2
 2006040:	180b883a 	mov	r5,r3
 2006044:	900d883a 	mov	r6,r18
 2006048:	980f883a 	mov	r7,r19
 200604c:	1021883a 	mov	r16,r2
 2006050:	1823883a 	mov	r17,r3
 2006054:	20092000 	call	2009200 <__subdf3>
 2006058:	100d883a 	mov	r6,r2
 200605c:	8009883a 	mov	r4,r16
 2006060:	880b883a 	mov	r5,r17
 2006064:	180f883a 	mov	r7,r3
 2006068:	e0800015 	stw	r2,0(fp)
 200606c:	e0c00115 	stw	r3,4(fp)
 2006070:	20092000 	call	2009200 <__subdf3>
 2006074:	180b883a 	mov	r5,r3
 2006078:	1009883a 	mov	r4,r2
 200607c:	900d883a 	mov	r6,r18
 2006080:	980f883a 	mov	r7,r19
 2006084:	20092000 	call	2009200 <__subdf3>
 2006088:	180b883a 	mov	r5,r3
 200608c:	1009883a 	mov	r4,r2
 2006090:	00c00044 	movi	r3,1
 2006094:	d8c00b15 	stw	r3,44(sp)
 2006098:	e1400315 	stw	r5,12(fp)
 200609c:	e1000215 	stw	r4,8(fp)
 20060a0:	003e7306 	br	2005a70 <__ieee754_rem_pio2+0x64>
 20060a4:	2105883a 	add	r2,r4,r4
 20060a8:	1085883a 	add	r2,r2,r2
 20060ac:	00c08074 	movhi	r3,513
 20060b0:	18f9ab04 	addi	r3,r3,-6484
 20060b4:	10c5883a 	add	r2,r2,r3
 20060b8:	113fff17 	ldw	r4,-4(r2)
 20060bc:	b13eef26 	beq	r22,r4,2005c7c <__ieee754_rem_pio2+0x270>
 20060c0:	980b883a 	mov	r5,r19
 20060c4:	400f883a 	mov	r7,r8
 20060c8:	9009883a 	mov	r4,r18
 20060cc:	800d883a 	mov	r6,r16
 20060d0:	20092000 	call	2009200 <__subdf3>
 20060d4:	e0c00115 	stw	r3,4(fp)
 20060d8:	e0800015 	stw	r2,0(fp)
 20060dc:	003f3a06 	br	2005dc8 <__ieee754_rem_pio2+0x3bc>
 20060e0:	00869834 	movhi	r2,6752
 20060e4:	00cf7474 	movhi	r3,15825
 20060e8:	18ed1844 	addi	r3,r3,-19359
 20060ec:	9009883a 	mov	r4,r18
 20060f0:	980b883a 	mov	r5,r19
 20060f4:	180f883a 	mov	r7,r3
 20060f8:	100d883a 	mov	r6,r2
 20060fc:	20092800 	call	2009280 <__adddf3>
 2006100:	048b80f4 	movhi	r18,11779
 2006104:	949c1cc4 	addi	r18,r18,28787
 2006108:	04cee8f4 	movhi	r19,15267
 200610c:	9cc66284 	addi	r19,r19,6538
 2006110:	1009883a 	mov	r4,r2
 2006114:	180b883a 	mov	r5,r3
 2006118:	900d883a 	mov	r6,r18
 200611c:	980f883a 	mov	r7,r19
 2006120:	1021883a 	mov	r16,r2
 2006124:	1823883a 	mov	r17,r3
 2006128:	20092800 	call	2009280 <__adddf3>
 200612c:	100d883a 	mov	r6,r2
 2006130:	8009883a 	mov	r4,r16
 2006134:	880b883a 	mov	r5,r17
 2006138:	180f883a 	mov	r7,r3
 200613c:	e0800015 	stw	r2,0(fp)
 2006140:	e0c00115 	stw	r3,4(fp)
 2006144:	20092000 	call	2009200 <__subdf3>
 2006148:	180b883a 	mov	r5,r3
 200614c:	1009883a 	mov	r4,r2
 2006150:	900d883a 	mov	r6,r18
 2006154:	980f883a 	mov	r7,r19
 2006158:	20092800 	call	2009280 <__adddf3>
 200615c:	180b883a 	mov	r5,r3
 2006160:	1009883a 	mov	r4,r2
 2006164:	00ffffc4 	movi	r3,-1
 2006168:	d8c00b15 	stw	r3,44(sp)
 200616c:	e1400315 	stw	r5,12(fp)
 2006170:	e1000215 	stw	r4,8(fp)
 2006174:	003e3e06 	br	2005a70 <__ieee754_rem_pio2+0x64>
 2006178:	d9000c17 	ldw	r4,48(sp)
 200617c:	d9400d17 	ldw	r5,52(sp)
 2006180:	018b8034 	movhi	r6,11776
 2006184:	b80f883a 	mov	r7,r23
 2006188:	20092f40 	call	20092f4 <__muldf3>
 200618c:	d9000817 	ldw	r4,32(sp)
 2006190:	d9401217 	ldw	r5,72(sp)
 2006194:	100d883a 	mov	r6,r2
 2006198:	180f883a 	mov	r7,r3
 200619c:	1025883a 	mov	r18,r2
 20061a0:	1827883a 	mov	r19,r3
 20061a4:	20092000 	call	2009200 <__subdf3>
 20061a8:	d9400d17 	ldw	r5,52(sp)
 20061ac:	d9000c17 	ldw	r4,48(sp)
 20061b0:	02094834 	movhi	r8,9504
 20061b4:	42127044 	addi	r8,r8,18881
 20061b8:	024e5f34 	movhi	r9,14716
 20061bc:	4a60e684 	addi	r9,r9,-31846
 20061c0:	480f883a 	mov	r7,r9
 20061c4:	400d883a 	mov	r6,r8
 20061c8:	182b883a 	mov	r21,r3
 20061cc:	d8800e15 	stw	r2,56(sp)
 20061d0:	20092f40 	call	20092f4 <__muldf3>
 20061d4:	d9000817 	ldw	r4,32(sp)
 20061d8:	d9401217 	ldw	r5,72(sp)
 20061dc:	d9800e17 	ldw	r6,56(sp)
 20061e0:	a80f883a 	mov	r7,r21
 20061e4:	1021883a 	mov	r16,r2
 20061e8:	1823883a 	mov	r17,r3
 20061ec:	dd400f15 	stw	r21,60(sp)
 20061f0:	20092000 	call	2009200 <__subdf3>
 20061f4:	180b883a 	mov	r5,r3
 20061f8:	900d883a 	mov	r6,r18
 20061fc:	980f883a 	mov	r7,r19
 2006200:	1009883a 	mov	r4,r2
 2006204:	20092000 	call	2009200 <__subdf3>
 2006208:	180f883a 	mov	r7,r3
 200620c:	880b883a 	mov	r5,r17
 2006210:	8009883a 	mov	r4,r16
 2006214:	100d883a 	mov	r6,r2
 2006218:	20092000 	call	2009200 <__subdf3>
 200621c:	d9000e17 	ldw	r4,56(sp)
 2006220:	1021883a 	mov	r16,r2
 2006224:	1823883a 	mov	r17,r3
 2006228:	a80b883a 	mov	r5,r21
 200622c:	180f883a 	mov	r7,r3
 2006230:	003fa606 	br	20060cc <__ieee754_rem_pio2+0x6c0>

02006234 <__ieee754_sqrt>:
 2006234:	defffd04 	addi	sp,sp,-12
 2006238:	dc000015 	stw	r16,0(sp)
 200623c:	009ffc34 	movhi	r2,32752
 2006240:	2021883a 	mov	r16,r4
 2006244:	291ffc2c 	andhi	r4,r5,32752
 2006248:	dc400115 	stw	r17,4(sp)
 200624c:	dfc00215 	stw	ra,8(sp)
 2006250:	2823883a 	mov	r17,r5
 2006254:	280f883a 	mov	r7,r5
 2006258:	2807883a 	mov	r3,r5
 200625c:	8011883a 	mov	r8,r16
 2006260:	20807d26 	beq	r4,r2,2006458 <__ieee754_sqrt+0x224>
 2006264:	01408d0e 	bge	zero,r5,200649c <__ieee754_sqrt+0x268>
 2006268:	380dd53a 	srai	r6,r7,20
 200626c:	3000131e 	bne	r6,zero,20062bc <__ieee754_sqrt+0x88>
 2006270:	1800041e 	bne	r3,zero,2006284 <__ieee754_sqrt+0x50>
 2006274:	400ed2fa 	srli	r7,r8,11
 2006278:	31bffac4 	addi	r6,r6,-21
 200627c:	4010957a 	slli	r8,r8,21
 2006280:	383ffc26 	beq	r7,zero,2006274 <__ieee754_sqrt+0x40>
 2006284:	3880042c 	andhi	r2,r7,16
 2006288:	1000991e 	bne	r2,zero,20064f0 <__ieee754_sqrt+0x2bc>
 200628c:	0009883a 	mov	r4,zero
 2006290:	39cf883a 	add	r7,r7,r7
 2006294:	3880042c 	andhi	r2,r7,16
 2006298:	21000044 	addi	r4,r4,1
 200629c:	103ffc26 	beq	r2,zero,2006290 <__ieee754_sqrt+0x5c>
 20062a0:	00800804 	movi	r2,32
 20062a4:	1105c83a 	sub	r2,r2,r4
 20062a8:	4086d83a 	srl	r3,r8,r2
 20062ac:	4110983a 	sll	r8,r8,r4
 20062b0:	3105c83a 	sub	r2,r6,r4
 20062b4:	38ceb03a 	or	r7,r7,r3
 20062b8:	11800044 	addi	r6,r2,1
 20062bc:	31bf0044 	addi	r6,r6,-1023
 20062c0:	30c0004c 	andi	r3,r6,1
 20062c4:	00800434 	movhi	r2,16
 20062c8:	10bfffc4 	addi	r2,r2,-1
 20062cc:	3884703a 	and	r2,r7,r2
 20062d0:	1807003a 	cmpeq	r3,r3,zero
 20062d4:	11000434 	orhi	r4,r2,16
 20062d8:	18005426 	beq	r3,zero,200642c <__ieee754_sqrt+0x1f8>
 20062dc:	4004d7fa 	srli	r2,r8,31
 20062e0:	4207883a 	add	r3,r8,r8
 20062e4:	02800834 	movhi	r10,32
 20062e8:	1105883a 	add	r2,r2,r4
 20062ec:	2089883a 	add	r4,r4,r2
 20062f0:	0011883a 	mov	r8,zero
 20062f4:	000b883a 	mov	r5,zero
 20062f8:	0013883a 	mov	r9,zero
 20062fc:	02c00584 	movi	r11,22
 2006300:	520f883a 	add	r7,r10,r8
 2006304:	1804d7fa 	srli	r2,r3,31
 2006308:	4a400044 	addi	r9,r9,1
 200630c:	18c7883a 	add	r3,r3,r3
 2006310:	21c00316 	blt	r4,r7,2006320 <__ieee754_sqrt+0xec>
 2006314:	21c9c83a 	sub	r4,r4,r7
 2006318:	2a8b883a 	add	r5,r5,r10
 200631c:	51d1883a 	add	r8,r10,r7
 2006320:	1105883a 	add	r2,r2,r4
 2006324:	5014d07a 	srli	r10,r10,1
 2006328:	2089883a 	add	r4,r4,r2
 200632c:	4afff41e 	bne	r9,r11,2006300 <__ieee754_sqrt+0xcc>
 2006330:	02600034 	movhi	r9,32768
 2006334:	0017883a 	mov	r11,zero
 2006338:	0019883a 	mov	r12,zero
 200633c:	0015883a 	mov	r10,zero
 2006340:	4821883a 	mov	r16,r9
 2006344:	03c00804 	movi	r15,32
 2006348:	00000806 	br	200636c <__ieee754_sqrt+0x138>
 200634c:	22003426 	beq	r4,r8,2006420 <__ieee754_sqrt+0x1ec>
 2006350:	1804d7fa 	srli	r2,r3,31
 2006354:	52800044 	addi	r10,r10,1
 2006358:	18c7883a 	add	r3,r3,r3
 200635c:	1105883a 	add	r2,r2,r4
 2006360:	2089883a 	add	r4,r4,r2
 2006364:	4812d07a 	srli	r9,r9,1
 2006368:	53c01326 	beq	r10,r15,20063b8 <__ieee754_sqrt+0x184>
 200636c:	4acf883a 	add	r7,r9,r11
 2006370:	413ff60e 	bge	r8,r4,200634c <__ieee754_sqrt+0x118>
 2006374:	38a0002c 	andhi	r2,r7,32768
 2006378:	3a57883a 	add	r11,r7,r9
 200637c:	14002426 	beq	r2,r16,2006410 <__ieee754_sqrt+0x1dc>
 2006380:	4005883a 	mov	r2,r8
 2006384:	2209c83a 	sub	r4,r4,r8
 2006388:	19c0012e 	bgeu	r3,r7,2006390 <__ieee754_sqrt+0x15c>
 200638c:	213fffc4 	addi	r4,r4,-1
 2006390:	19c7c83a 	sub	r3,r3,r7
 2006394:	1011883a 	mov	r8,r2
 2006398:	1804d7fa 	srli	r2,r3,31
 200639c:	52800044 	addi	r10,r10,1
 20063a0:	6259883a 	add	r12,r12,r9
 20063a4:	1105883a 	add	r2,r2,r4
 20063a8:	18c7883a 	add	r3,r3,r3
 20063ac:	2089883a 	add	r4,r4,r2
 20063b0:	4812d07a 	srli	r9,r9,1
 20063b4:	53ffed1e 	bne	r10,r15,200636c <__ieee754_sqrt+0x138>
 20063b8:	20c4b03a 	or	r2,r4,r3
 20063bc:	1000201e 	bne	r2,zero,2006440 <__ieee754_sqrt+0x20c>
 20063c0:	600ed07a 	srli	r7,r12,1
 20063c4:	2880004c 	andi	r2,r5,1
 20063c8:	1005003a 	cmpeq	r2,r2,zero
 20063cc:	1000011e 	bne	r2,zero,20063d4 <__ieee754_sqrt+0x1a0>
 20063d0:	39e00034 	orhi	r7,r7,32768
 20063d4:	300dd07a 	srai	r6,r6,1
 20063d8:	280bd07a 	srai	r5,r5,1
 20063dc:	010ff834 	movhi	r4,16352
 20063e0:	300c953a 	slli	r6,r6,20
 20063e4:	290b883a 	add	r5,r5,r4
 20063e8:	3821883a 	mov	r16,r7
 20063ec:	299d883a 	add	r14,r5,r6
 20063f0:	7023883a 	mov	r17,r14
 20063f4:	8005883a 	mov	r2,r16
 20063f8:	8807883a 	mov	r3,r17
 20063fc:	dfc00217 	ldw	ra,8(sp)
 2006400:	dc400117 	ldw	r17,4(sp)
 2006404:	dc000017 	ldw	r16,0(sp)
 2006408:	dec00304 	addi	sp,sp,12
 200640c:	f800283a 	ret
 2006410:	5884703a 	and	r2,r11,r2
 2006414:	103fda1e 	bne	r2,zero,2006380 <__ieee754_sqrt+0x14c>
 2006418:	40800044 	addi	r2,r8,1
 200641c:	003fd906 	br	2006384 <__ieee754_sqrt+0x150>
 2006420:	19ffd42e 	bgeu	r3,r7,2006374 <__ieee754_sqrt+0x140>
 2006424:	2011883a 	mov	r8,r4
 2006428:	003fc906 	br	2006350 <__ieee754_sqrt+0x11c>
 200642c:	4004d7fa 	srli	r2,r8,31
 2006430:	4211883a 	add	r8,r8,r8
 2006434:	1105883a 	add	r2,r2,r4
 2006438:	2089883a 	add	r4,r4,r2
 200643c:	003fa706 	br	20062dc <__ieee754_sqrt+0xa8>
 2006440:	00bfffc4 	movi	r2,-1
 2006444:	60802726 	beq	r12,r2,20064e4 <__ieee754_sqrt+0x2b0>
 2006448:	6080004c 	andi	r2,r12,1
 200644c:	6085883a 	add	r2,r12,r2
 2006450:	100ed07a 	srli	r7,r2,1
 2006454:	003fdb06 	br	20063c4 <__ieee754_sqrt+0x190>
 2006458:	8009883a 	mov	r4,r16
 200645c:	800d883a 	mov	r6,r16
 2006460:	20092f40 	call	20092f4 <__muldf3>
 2006464:	180f883a 	mov	r7,r3
 2006468:	880b883a 	mov	r5,r17
 200646c:	8009883a 	mov	r4,r16
 2006470:	100d883a 	mov	r6,r2
 2006474:	20092800 	call	2009280 <__adddf3>
 2006478:	1021883a 	mov	r16,r2
 200647c:	1823883a 	mov	r17,r3
 2006480:	8005883a 	mov	r2,r16
 2006484:	8807883a 	mov	r3,r17
 2006488:	dfc00217 	ldw	ra,8(sp)
 200648c:	dc400117 	ldw	r17,4(sp)
 2006490:	dc000017 	ldw	r16,0(sp)
 2006494:	dec00304 	addi	sp,sp,12
 2006498:	f800283a 	ret
 200649c:	00a00034 	movhi	r2,32768
 20064a0:	10bfffc4 	addi	r2,r2,-1
 20064a4:	2884703a 	and	r2,r5,r2
 20064a8:	8084b03a 	or	r2,r16,r2
 20064ac:	103fd126 	beq	r2,zero,20063f4 <__ieee754_sqrt+0x1c0>
 20064b0:	283f6d26 	beq	r5,zero,2006268 <__ieee754_sqrt+0x34>
 20064b4:	280f883a 	mov	r7,r5
 20064b8:	8009883a 	mov	r4,r16
 20064bc:	800d883a 	mov	r6,r16
 20064c0:	20092000 	call	2009200 <__subdf3>
 20064c4:	1009883a 	mov	r4,r2
 20064c8:	180b883a 	mov	r5,r3
 20064cc:	100d883a 	mov	r6,r2
 20064d0:	180f883a 	mov	r7,r3
 20064d4:	20096b80 	call	20096b8 <__divdf3>
 20064d8:	1021883a 	mov	r16,r2
 20064dc:	1823883a 	mov	r17,r3
 20064e0:	003fc406 	br	20063f4 <__ieee754_sqrt+0x1c0>
 20064e4:	29400044 	addi	r5,r5,1
 20064e8:	000f883a 	mov	r7,zero
 20064ec:	003fb506 	br	20063c4 <__ieee754_sqrt+0x190>
 20064f0:	0009883a 	mov	r4,zero
 20064f4:	00800804 	movi	r2,32
 20064f8:	003f6b06 	br	20062a8 <__ieee754_sqrt+0x74>

020064fc <__kernel_cos>:
 20064fc:	defff104 	addi	sp,sp,-60
 2006500:	00a00034 	movhi	r2,32768
 2006504:	10bfffc4 	addi	r2,r2,-1
 2006508:	dd800c15 	stw	r22,48(sp)
 200650c:	116c703a 	and	r22,r2,r5
 2006510:	0005883a 	mov	r2,zero
 2006514:	dd000a15 	stw	r20,40(sp)
 2006518:	d8800215 	stw	r2,8(sp)
 200651c:	2029883a 	mov	r20,r4
 2006520:	008f9034 	movhi	r2,15936
 2006524:	10bfffc4 	addi	r2,r2,-1
 2006528:	0009883a 	mov	r4,zero
 200652c:	dd400b15 	stw	r21,44(sp)
 2006530:	dfc00e15 	stw	ra,56(sp)
 2006534:	ddc00d15 	stw	r23,52(sp)
 2006538:	dcc00915 	stw	r19,36(sp)
 200653c:	dc800815 	stw	r18,32(sp)
 2006540:	dc400715 	stw	r17,28(sp)
 2006544:	dc000615 	stw	r16,24(sp)
 2006548:	282b883a 	mov	r21,r5
 200654c:	d9800415 	stw	r6,16(sp)
 2006550:	d9c00515 	stw	r7,20(sp)
 2006554:	d9000315 	stw	r4,12(sp)
 2006558:	15809216 	blt	r2,r22,20067a4 <__kernel_cos+0x2a8>
 200655c:	a009883a 	mov	r4,r20
 2006560:	2009c280 	call	2009c28 <__fixdfsi>
 2006564:	10011c26 	beq	r2,zero,20069d8 <__kernel_cos+0x4dc>
 2006568:	a009883a 	mov	r4,r20
 200656c:	a80b883a 	mov	r5,r21
 2006570:	a00d883a 	mov	r6,r20
 2006574:	a80f883a 	mov	r7,r21
 2006578:	20092f40 	call	20092f4 <__muldf3>
 200657c:	1021883a 	mov	r16,r2
 2006580:	1823883a 	mov	r17,r3
 2006584:	1025883a 	mov	r18,r2
 2006588:	1827883a 	mov	r19,r3
 200658c:	00afa234 	movhi	r2,48776
 2006590:	108e3504 	addi	r2,r2,14548
 2006594:	00ef6a74 	movhi	r3,48553
 2006598:	18feba44 	addi	r3,r3,-1303
 200659c:	8009883a 	mov	r4,r16
 20065a0:	880b883a 	mov	r5,r17
 20065a4:	180f883a 	mov	r7,r3
 20065a8:	100d883a 	mov	r6,r2
 20065ac:	20092f40 	call	20092f4 <__muldf3>
 20065b0:	022f6d74 	movhi	r8,48565
 20065b4:	422c7104 	addi	r8,r8,-20028
 20065b8:	024f88b4 	movhi	r9,15906
 20065bc:	4a7ba784 	addi	r9,r9,-4450
 20065c0:	480f883a 	mov	r7,r9
 20065c4:	400d883a 	mov	r6,r8
 20065c8:	180b883a 	mov	r5,r3
 20065cc:	1009883a 	mov	r4,r2
 20065d0:	20092800 	call	2009280 <__adddf3>
 20065d4:	180f883a 	mov	r7,r3
 20065d8:	8009883a 	mov	r4,r16
 20065dc:	880b883a 	mov	r5,r17
 20065e0:	100d883a 	mov	r6,r2
 20065e4:	20092f40 	call	20092f4 <__muldf3>
 20065e8:	02202734 	movhi	r8,32924
 20065ec:	4214ab44 	addi	r8,r8,21165
 20065f0:	024fa4b4 	movhi	r9,16018
 20065f4:	4a5f93c4 	addi	r9,r9,32335
 20065f8:	480f883a 	mov	r7,r9
 20065fc:	400d883a 	mov	r6,r8
 2006600:	180b883a 	mov	r5,r3
 2006604:	1009883a 	mov	r4,r2
 2006608:	20092000 	call	2009200 <__subdf3>
 200660c:	180f883a 	mov	r7,r3
 2006610:	8009883a 	mov	r4,r16
 2006614:	880b883a 	mov	r5,r17
 2006618:	100d883a 	mov	r6,r2
 200661c:	20092f40 	call	20092f4 <__muldf3>
 2006620:	020672f4 	movhi	r8,6603
 2006624:	42056404 	addi	r8,r8,5520
 2006628:	024fbeb4 	movhi	r9,16122
 200662c:	4a406804 	addi	r9,r9,416
 2006630:	480f883a 	mov	r7,r9
 2006634:	400d883a 	mov	r6,r8
 2006638:	180b883a 	mov	r5,r3
 200663c:	1009883a 	mov	r4,r2
 2006640:	20092800 	call	2009280 <__adddf3>
 2006644:	180f883a 	mov	r7,r3
 2006648:	8009883a 	mov	r4,r16
 200664c:	880b883a 	mov	r5,r17
 2006650:	100d883a 	mov	r6,r2
 2006654:	20092f40 	call	20092f4 <__muldf3>
 2006658:	0205b074 	movhi	r8,5825
 200665c:	42145dc4 	addi	r8,r8,20855
 2006660:	024fd5f4 	movhi	r9,16215
 2006664:	4a705b04 	addi	r9,r9,-16020
 2006668:	480f883a 	mov	r7,r9
 200666c:	400d883a 	mov	r6,r8
 2006670:	180b883a 	mov	r5,r3
 2006674:	1009883a 	mov	r4,r2
 2006678:	20092000 	call	2009200 <__subdf3>
 200667c:	180f883a 	mov	r7,r3
 2006680:	8009883a 	mov	r4,r16
 2006684:	880b883a 	mov	r5,r17
 2006688:	100d883a 	mov	r6,r2
 200668c:	20092f40 	call	20092f4 <__muldf3>
 2006690:	02155574 	movhi	r8,21845
 2006694:	42155304 	addi	r8,r8,21836
 2006698:	024fe974 	movhi	r9,16293
 200669c:	4a555544 	addi	r9,r9,21845
 20066a0:	480f883a 	mov	r7,r9
 20066a4:	400d883a 	mov	r6,r8
 20066a8:	180b883a 	mov	r5,r3
 20066ac:	1009883a 	mov	r4,r2
 20066b0:	20092800 	call	2009280 <__adddf3>
 20066b4:	180f883a 	mov	r7,r3
 20066b8:	880b883a 	mov	r5,r17
 20066bc:	8009883a 	mov	r4,r16
 20066c0:	100d883a 	mov	r6,r2
 20066c4:	20092f40 	call	20092f4 <__muldf3>
 20066c8:	1021883a 	mov	r16,r2
 20066cc:	1823883a 	mov	r17,r3
 20066d0:	0005883a 	mov	r2,zero
 20066d4:	00cff834 	movhi	r3,16352
 20066d8:	9009883a 	mov	r4,r18
 20066dc:	980b883a 	mov	r5,r19
 20066e0:	180f883a 	mov	r7,r3
 20066e4:	100d883a 	mov	r6,r2
 20066e8:	20092f40 	call	20092f4 <__muldf3>
 20066ec:	980b883a 	mov	r5,r19
 20066f0:	880f883a 	mov	r7,r17
 20066f4:	9009883a 	mov	r4,r18
 20066f8:	800d883a 	mov	r6,r16
 20066fc:	1025883a 	mov	r18,r2
 2006700:	1827883a 	mov	r19,r3
 2006704:	20092f40 	call	20092f4 <__muldf3>
 2006708:	d9c00517 	ldw	r7,20(sp)
 200670c:	d9800417 	ldw	r6,16(sp)
 2006710:	a80b883a 	mov	r5,r21
 2006714:	a009883a 	mov	r4,r20
 2006718:	1021883a 	mov	r16,r2
 200671c:	1823883a 	mov	r17,r3
 2006720:	20092f40 	call	20092f4 <__muldf3>
 2006724:	180f883a 	mov	r7,r3
 2006728:	880b883a 	mov	r5,r17
 200672c:	8009883a 	mov	r4,r16
 2006730:	100d883a 	mov	r6,r2
 2006734:	20092000 	call	2009200 <__subdf3>
 2006738:	180f883a 	mov	r7,r3
 200673c:	980b883a 	mov	r5,r19
 2006740:	9009883a 	mov	r4,r18
 2006744:	100d883a 	mov	r6,r2
 2006748:	20092000 	call	2009200 <__subdf3>
 200674c:	0011883a 	mov	r8,zero
 2006750:	024ffc34 	movhi	r9,16368
 2006754:	480b883a 	mov	r5,r9
 2006758:	180f883a 	mov	r7,r3
 200675c:	4009883a 	mov	r4,r8
 2006760:	100d883a 	mov	r6,r2
 2006764:	20092000 	call	2009200 <__subdf3>
 2006768:	100d883a 	mov	r6,r2
 200676c:	180f883a 	mov	r7,r3
 2006770:	3005883a 	mov	r2,r6
 2006774:	3807883a 	mov	r3,r7
 2006778:	dfc00e17 	ldw	ra,56(sp)
 200677c:	ddc00d17 	ldw	r23,52(sp)
 2006780:	dd800c17 	ldw	r22,48(sp)
 2006784:	dd400b17 	ldw	r21,44(sp)
 2006788:	dd000a17 	ldw	r20,40(sp)
 200678c:	dcc00917 	ldw	r19,36(sp)
 2006790:	dc800817 	ldw	r18,32(sp)
 2006794:	dc400717 	ldw	r17,28(sp)
 2006798:	dc000617 	ldw	r16,24(sp)
 200679c:	dec00f04 	addi	sp,sp,60
 20067a0:	f800283a 	ret
 20067a4:	280f883a 	mov	r7,r5
 20067a8:	a009883a 	mov	r4,r20
 20067ac:	a00d883a 	mov	r6,r20
 20067b0:	20092f40 	call	20092f4 <__muldf3>
 20067b4:	1021883a 	mov	r16,r2
 20067b8:	1823883a 	mov	r17,r3
 20067bc:	1025883a 	mov	r18,r2
 20067c0:	1827883a 	mov	r19,r3
 20067c4:	00afa234 	movhi	r2,48776
 20067c8:	108e3504 	addi	r2,r2,14548
 20067cc:	00ef6a74 	movhi	r3,48553
 20067d0:	18feba44 	addi	r3,r3,-1303
 20067d4:	8009883a 	mov	r4,r16
 20067d8:	880b883a 	mov	r5,r17
 20067dc:	180f883a 	mov	r7,r3
 20067e0:	100d883a 	mov	r6,r2
 20067e4:	20092f40 	call	20092f4 <__muldf3>
 20067e8:	022f6d74 	movhi	r8,48565
 20067ec:	422c7104 	addi	r8,r8,-20028
 20067f0:	024f88b4 	movhi	r9,15906
 20067f4:	4a7ba784 	addi	r9,r9,-4450
 20067f8:	480f883a 	mov	r7,r9
 20067fc:	400d883a 	mov	r6,r8
 2006800:	180b883a 	mov	r5,r3
 2006804:	1009883a 	mov	r4,r2
 2006808:	20092800 	call	2009280 <__adddf3>
 200680c:	180f883a 	mov	r7,r3
 2006810:	8009883a 	mov	r4,r16
 2006814:	880b883a 	mov	r5,r17
 2006818:	100d883a 	mov	r6,r2
 200681c:	20092f40 	call	20092f4 <__muldf3>
 2006820:	02202734 	movhi	r8,32924
 2006824:	4214ab44 	addi	r8,r8,21165
 2006828:	024fa4b4 	movhi	r9,16018
 200682c:	4a5f93c4 	addi	r9,r9,32335
 2006830:	480f883a 	mov	r7,r9
 2006834:	400d883a 	mov	r6,r8
 2006838:	180b883a 	mov	r5,r3
 200683c:	1009883a 	mov	r4,r2
 2006840:	20092000 	call	2009200 <__subdf3>
 2006844:	180f883a 	mov	r7,r3
 2006848:	8009883a 	mov	r4,r16
 200684c:	880b883a 	mov	r5,r17
 2006850:	100d883a 	mov	r6,r2
 2006854:	20092f40 	call	20092f4 <__muldf3>
 2006858:	020672f4 	movhi	r8,6603
 200685c:	42056404 	addi	r8,r8,5520
 2006860:	024fbeb4 	movhi	r9,16122
 2006864:	4a406804 	addi	r9,r9,416
 2006868:	480f883a 	mov	r7,r9
 200686c:	400d883a 	mov	r6,r8
 2006870:	180b883a 	mov	r5,r3
 2006874:	1009883a 	mov	r4,r2
 2006878:	20092800 	call	2009280 <__adddf3>
 200687c:	180f883a 	mov	r7,r3
 2006880:	8009883a 	mov	r4,r16
 2006884:	880b883a 	mov	r5,r17
 2006888:	100d883a 	mov	r6,r2
 200688c:	20092f40 	call	20092f4 <__muldf3>
 2006890:	0205b074 	movhi	r8,5825
 2006894:	42145dc4 	addi	r8,r8,20855
 2006898:	024fd5f4 	movhi	r9,16215
 200689c:	4a705b04 	addi	r9,r9,-16020
 20068a0:	480f883a 	mov	r7,r9
 20068a4:	400d883a 	mov	r6,r8
 20068a8:	180b883a 	mov	r5,r3
 20068ac:	1009883a 	mov	r4,r2
 20068b0:	20092000 	call	2009200 <__subdf3>
 20068b4:	180f883a 	mov	r7,r3
 20068b8:	8009883a 	mov	r4,r16
 20068bc:	880b883a 	mov	r5,r17
 20068c0:	100d883a 	mov	r6,r2
 20068c4:	20092f40 	call	20092f4 <__muldf3>
 20068c8:	02155574 	movhi	r8,21845
 20068cc:	42155304 	addi	r8,r8,21836
 20068d0:	024fe974 	movhi	r9,16293
 20068d4:	4a555544 	addi	r9,r9,21845
 20068d8:	480f883a 	mov	r7,r9
 20068dc:	400d883a 	mov	r6,r8
 20068e0:	180b883a 	mov	r5,r3
 20068e4:	1009883a 	mov	r4,r2
 20068e8:	20092800 	call	2009280 <__adddf3>
 20068ec:	180f883a 	mov	r7,r3
 20068f0:	880b883a 	mov	r5,r17
 20068f4:	8009883a 	mov	r4,r16
 20068f8:	100d883a 	mov	r6,r2
 20068fc:	20092f40 	call	20092f4 <__muldf3>
 2006900:	1021883a 	mov	r16,r2
 2006904:	008ff4f4 	movhi	r2,16339
 2006908:	108ccc84 	addi	r2,r2,13106
 200690c:	1823883a 	mov	r17,r3
 2006910:	15bf6f0e 	bge	r2,r22,20066d0 <__kernel_cos+0x1d4>
 2006914:	008ffa74 	movhi	r2,16361
 2006918:	1580320e 	bge	r2,r22,20069e4 <__kernel_cos+0x4e8>
 200691c:	0005883a 	mov	r2,zero
 2006920:	010ff9f4 	movhi	r4,16359
 2006924:	002d883a 	mov	r22,zero
 2006928:	d8800015 	stw	r2,0(sp)
 200692c:	05cff4b4 	movhi	r23,16338
 2006930:	d9000115 	stw	r4,4(sp)
 2006934:	0005883a 	mov	r2,zero
 2006938:	00cff834 	movhi	r3,16352
 200693c:	9009883a 	mov	r4,r18
 2006940:	980b883a 	mov	r5,r19
 2006944:	180f883a 	mov	r7,r3
 2006948:	100d883a 	mov	r6,r2
 200694c:	20092f40 	call	20092f4 <__muldf3>
 2006950:	180b883a 	mov	r5,r3
 2006954:	b80f883a 	mov	r7,r23
 2006958:	1009883a 	mov	r4,r2
 200695c:	b00d883a 	mov	r6,r22
 2006960:	20092000 	call	2009200 <__subdf3>
 2006964:	980b883a 	mov	r5,r19
 2006968:	880f883a 	mov	r7,r17
 200696c:	9009883a 	mov	r4,r18
 2006970:	800d883a 	mov	r6,r16
 2006974:	1025883a 	mov	r18,r2
 2006978:	1827883a 	mov	r19,r3
 200697c:	20092f40 	call	20092f4 <__muldf3>
 2006980:	d9c00517 	ldw	r7,20(sp)
 2006984:	d9800417 	ldw	r6,16(sp)
 2006988:	a80b883a 	mov	r5,r21
 200698c:	a009883a 	mov	r4,r20
 2006990:	1021883a 	mov	r16,r2
 2006994:	1823883a 	mov	r17,r3
 2006998:	20092f40 	call	20092f4 <__muldf3>
 200699c:	180f883a 	mov	r7,r3
 20069a0:	880b883a 	mov	r5,r17
 20069a4:	8009883a 	mov	r4,r16
 20069a8:	100d883a 	mov	r6,r2
 20069ac:	20092000 	call	2009200 <__subdf3>
 20069b0:	180f883a 	mov	r7,r3
 20069b4:	980b883a 	mov	r5,r19
 20069b8:	9009883a 	mov	r4,r18
 20069bc:	100d883a 	mov	r6,r2
 20069c0:	20092000 	call	2009200 <__subdf3>
 20069c4:	d9400117 	ldw	r5,4(sp)
 20069c8:	d9000017 	ldw	r4,0(sp)
 20069cc:	180f883a 	mov	r7,r3
 20069d0:	100d883a 	mov	r6,r2
 20069d4:	003f6306 	br	2006764 <__kernel_cos+0x268>
 20069d8:	000d883a 	mov	r6,zero
 20069dc:	01cffc34 	movhi	r7,16368
 20069e0:	003f6306 	br	2006770 <__kernel_cos+0x274>
 20069e4:	00bff834 	movhi	r2,65504
 20069e8:	b0ad883a 	add	r22,r22,r2
 20069ec:	dd800315 	stw	r22,12(sp)
 20069f0:	d9000317 	ldw	r4,12(sp)
 20069f4:	0005883a 	mov	r2,zero
 20069f8:	00cffc34 	movhi	r3,16368
 20069fc:	002d883a 	mov	r22,zero
 2006a00:	200f883a 	mov	r7,r4
 2006a04:	202f883a 	mov	r23,r4
 2006a08:	180b883a 	mov	r5,r3
 2006a0c:	1009883a 	mov	r4,r2
 2006a10:	b00d883a 	mov	r6,r22
 2006a14:	d8800215 	stw	r2,8(sp)
 2006a18:	20092000 	call	2009200 <__subdf3>
 2006a1c:	d8800015 	stw	r2,0(sp)
 2006a20:	d8c00115 	stw	r3,4(sp)
 2006a24:	003fc306 	br	2006934 <__kernel_cos+0x438>

02006a28 <__kernel_rem_pio2>:
 2006a28:	deff5304 	addi	sp,sp,-692
 2006a2c:	d880ad17 	ldw	r2,692(sp)
 2006a30:	d9009615 	stw	r4,600(sp)
 2006a34:	d9409715 	stw	r5,604(sp)
 2006a38:	1087883a 	add	r3,r2,r2
 2006a3c:	18c7883a 	add	r3,r3,r3
 2006a40:	00808074 	movhi	r2,513
 2006a44:	10ba0d04 	addi	r2,r2,-6092
 2006a48:	1887883a 	add	r3,r3,r2
 2006a4c:	18c00017 	ldw	r3,0(r3)
 2006a50:	313fff44 	addi	r4,r6,-3
 2006a54:	01400604 	movi	r5,24
 2006a58:	df00ab15 	stw	fp,684(sp)
 2006a5c:	dc00a315 	stw	r16,652(sp)
 2006a60:	d8c09515 	stw	r3,596(sp)
 2006a64:	dfc0ac15 	stw	ra,688(sp)
 2006a68:	ddc0aa15 	stw	r23,680(sp)
 2006a6c:	dd80a915 	stw	r22,676(sp)
 2006a70:	dd40a815 	stw	r21,672(sp)
 2006a74:	dd00a715 	stw	r20,668(sp)
 2006a78:	dcc0a615 	stw	r19,664(sp)
 2006a7c:	dc80a515 	stw	r18,660(sp)
 2006a80:	dc40a415 	stw	r17,656(sp)
 2006a84:	3021883a 	mov	r16,r6
 2006a88:	d9c09815 	stw	r7,608(sp)
 2006a8c:	2009e280 	call	2009e28 <__divsi3>
 2006a90:	d8c09817 	ldw	r3,608(sp)
 2006a94:	d8808c15 	stw	r2,560(sp)
 2006a98:	1f3fffc4 	addi	fp,r3,-1
 2006a9c:	10031816 	blt	r2,zero,2007700 <__kernel_rem_pio2+0xcd8>
 2006aa0:	d9008c17 	ldw	r4,560(sp)
 2006aa4:	d9409517 	ldw	r5,596(sp)
 2006aa8:	20bffa24 	muli	r2,r4,-24
 2006aac:	2f07883a 	add	r3,r5,fp
 2006ab0:	8085883a 	add	r2,r16,r2
 2006ab4:	10bffa04 	addi	r2,r2,-24
 2006ab8:	d8809315 	stw	r2,588(sp)
 2006abc:	18001516 	blt	r3,zero,2006b14 <__kernel_rem_pio2+0xec>
 2006ac0:	2721c83a 	sub	r16,r4,fp
 2006ac4:	d980ae17 	ldw	r6,696(sp)
 2006ac8:	8405883a 	add	r2,r16,r16
 2006acc:	1085883a 	add	r2,r2,r2
 2006ad0:	30a3883a 	add	r17,r6,r2
 2006ad4:	80e7883a 	add	r19,r16,r3
 2006ad8:	dc801404 	addi	r18,sp,80
 2006adc:	00000106 	br	2006ae4 <__kernel_rem_pio2+0xbc>
 2006ae0:	84000044 	addi	r16,r16,1
 2006ae4:	0009883a 	mov	r4,zero
 2006ae8:	000b883a 	mov	r5,zero
 2006aec:	80000416 	blt	r16,zero,2006b00 <__kernel_rem_pio2+0xd8>
 2006af0:	89000017 	ldw	r4,0(r17)
 2006af4:	2009b300 	call	2009b30 <__floatsidf>
 2006af8:	1009883a 	mov	r4,r2
 2006afc:	180b883a 	mov	r5,r3
 2006b00:	91400115 	stw	r5,4(r18)
 2006b04:	91000015 	stw	r4,0(r18)
 2006b08:	8c400104 	addi	r17,r17,4
 2006b0c:	94800204 	addi	r18,r18,8
 2006b10:	84fff31e 	bne	r16,r19,2006ae0 <__kernel_rem_pio2+0xb8>
 2006b14:	d9c09517 	ldw	r7,596(sp)
 2006b18:	38002416 	blt	r7,zero,2006bac <__kernel_rem_pio2+0x184>
 2006b1c:	da809817 	ldw	r10,608(sp)
 2006b20:	e029883a 	mov	r20,fp
 2006b24:	dd406404 	addi	r21,sp,400
 2006b28:	3aaf883a 	add	r23,r7,r10
 2006b2c:	e02c403a 	cmpge	r22,fp,zero
 2006b30:	b0023e26 	beq	r22,zero,200742c <__kernel_rem_pio2+0xa04>
 2006b34:	dcc09617 	ldw	r19,600(sp)
 2006b38:	0021883a 	mov	r16,zero
 2006b3c:	0025883a 	mov	r18,zero
 2006b40:	0023883a 	mov	r17,zero
 2006b44:	a489c83a 	sub	r4,r20,r18
 2006b48:	200890fa 	slli	r4,r4,3
 2006b4c:	99800017 	ldw	r6,0(r19)
 2006b50:	99c00117 	ldw	r7,4(r19)
 2006b54:	26c9883a 	add	r4,r4,sp
 2006b58:	20c01517 	ldw	r3,84(r4)
 2006b5c:	20801417 	ldw	r2,80(r4)
 2006b60:	94800044 	addi	r18,r18,1
 2006b64:	180b883a 	mov	r5,r3
 2006b68:	1009883a 	mov	r4,r2
 2006b6c:	20092f40 	call	20092f4 <__muldf3>
 2006b70:	180f883a 	mov	r7,r3
 2006b74:	880b883a 	mov	r5,r17
 2006b78:	8009883a 	mov	r4,r16
 2006b7c:	100d883a 	mov	r6,r2
 2006b80:	20092800 	call	2009280 <__adddf3>
 2006b84:	1021883a 	mov	r16,r2
 2006b88:	d8809817 	ldw	r2,608(sp)
 2006b8c:	9cc00204 	addi	r19,r19,8
 2006b90:	1823883a 	mov	r17,r3
 2006b94:	14bfeb1e 	bne	r2,r18,2006b44 <__kernel_rem_pio2+0x11c>
 2006b98:	a5000044 	addi	r20,r20,1
 2006b9c:	ac400115 	stw	r17,4(r21)
 2006ba0:	ac000015 	stw	r16,0(r21)
 2006ba4:	ad400204 	addi	r21,r21,8
 2006ba8:	a5ffe11e 	bne	r20,r23,2006b30 <__kernel_rem_pio2+0x108>
 2006bac:	d8c09517 	ldw	r3,596(sp)
 2006bb0:	d9409317 	ldw	r5,588(sp)
 2006bb4:	e038403a 	cmpge	fp,fp,zero
 2006bb8:	d8c08d15 	stw	r3,564(sp)
 2006bbc:	d9008d17 	ldw	r4,564(sp)
 2006bc0:	18c5883a 	add	r2,r3,r3
 2006bc4:	10c7883a 	add	r3,r2,r3
 2006bc8:	1907883a 	add	r3,r3,r4
 2006bcc:	1085883a 	add	r2,r2,r2
 2006bd0:	16c5883a 	add	r2,r2,sp
 2006bd4:	1ec7883a 	add	r3,r3,sp
 2006bd8:	29400050 	cmplti	r5,r5,1
 2006bdc:	df00a215 	stw	fp,648(sp)
 2006be0:	d8809915 	stw	r2,612(sp)
 2006be4:	d8c0a115 	stw	r3,644(sp)
 2006be8:	d940a015 	stw	r5,640(sp)
 2006bec:	d9808d17 	ldw	r6,564(sp)
 2006bf0:	300490fa 	slli	r2,r6,3
 2006bf4:	16c5883a 	add	r2,r2,sp
 2006bf8:	15006417 	ldw	r20,400(r2)
 2006bfc:	15406517 	ldw	r21,404(r2)
 2006c00:	01802e0e 	bge	zero,r6,2006cbc <__kernel_rem_pio2+0x294>
 2006c04:	102d883a 	mov	r22,r2
 2006c08:	302f883a 	mov	r23,r6
 2006c0c:	d839883a 	mov	fp,sp
 2006c10:	0005883a 	mov	r2,zero
 2006c14:	00cf9c34 	movhi	r3,15984
 2006c18:	180f883a 	mov	r7,r3
 2006c1c:	100d883a 	mov	r6,r2
 2006c20:	a009883a 	mov	r4,r20
 2006c24:	a80b883a 	mov	r5,r21
 2006c28:	20092f40 	call	20092f4 <__muldf3>
 2006c2c:	180b883a 	mov	r5,r3
 2006c30:	1009883a 	mov	r4,r2
 2006c34:	2009c280 	call	2009c28 <__fixdfsi>
 2006c38:	1009883a 	mov	r4,r2
 2006c3c:	2009b300 	call	2009b30 <__floatsidf>
 2006c40:	1021883a 	mov	r16,r2
 2006c44:	1823883a 	mov	r17,r3
 2006c48:	0005883a 	mov	r2,zero
 2006c4c:	00f05c34 	movhi	r3,49520
 2006c50:	180f883a 	mov	r7,r3
 2006c54:	8009883a 	mov	r4,r16
 2006c58:	880b883a 	mov	r5,r17
 2006c5c:	100d883a 	mov	r6,r2
 2006c60:	20092f40 	call	20092f4 <__muldf3>
 2006c64:	180b883a 	mov	r5,r3
 2006c68:	a80f883a 	mov	r7,r21
 2006c6c:	a00d883a 	mov	r6,r20
 2006c70:	1009883a 	mov	r4,r2
 2006c74:	20092800 	call	2009280 <__adddf3>
 2006c78:	180b883a 	mov	r5,r3
 2006c7c:	1009883a 	mov	r4,r2
 2006c80:	2009c280 	call	2009c28 <__fixdfsi>
 2006c84:	e0800015 	stw	r2,0(fp)
 2006c88:	b5bffe04 	addi	r22,r22,-8
 2006c8c:	b0806417 	ldw	r2,400(r22)
 2006c90:	b0c06517 	ldw	r3,404(r22)
 2006c94:	8009883a 	mov	r4,r16
 2006c98:	880b883a 	mov	r5,r17
 2006c9c:	180f883a 	mov	r7,r3
 2006ca0:	100d883a 	mov	r6,r2
 2006ca4:	20092800 	call	2009280 <__adddf3>
 2006ca8:	bdffffc4 	addi	r23,r23,-1
 2006cac:	e7000104 	addi	fp,fp,4
 2006cb0:	1029883a 	mov	r20,r2
 2006cb4:	182b883a 	mov	r21,r3
 2006cb8:	b83fd51e 	bne	r23,zero,2006c10 <__kernel_rem_pio2+0x1e8>
 2006cbc:	d9809317 	ldw	r6,588(sp)
 2006cc0:	a80b883a 	mov	r5,r21
 2006cc4:	a009883a 	mov	r4,r20
 2006cc8:	20084d80 	call	20084d8 <scalbn>
 2006ccc:	0009883a 	mov	r4,zero
 2006cd0:	014ff034 	movhi	r5,16320
 2006cd4:	280f883a 	mov	r7,r5
 2006cd8:	200d883a 	mov	r6,r4
 2006cdc:	180b883a 	mov	r5,r3
 2006ce0:	1009883a 	mov	r4,r2
 2006ce4:	1021883a 	mov	r16,r2
 2006ce8:	1823883a 	mov	r17,r3
 2006cec:	20092f40 	call	20092f4 <__muldf3>
 2006cf0:	180b883a 	mov	r5,r3
 2006cf4:	1009883a 	mov	r4,r2
 2006cf8:	200826c0 	call	200826c <floor>
 2006cfc:	0011883a 	mov	r8,zero
 2006d00:	02700834 	movhi	r9,49184
 2006d04:	480f883a 	mov	r7,r9
 2006d08:	400d883a 	mov	r6,r8
 2006d0c:	180b883a 	mov	r5,r3
 2006d10:	1009883a 	mov	r4,r2
 2006d14:	20092f40 	call	20092f4 <__muldf3>
 2006d18:	180f883a 	mov	r7,r3
 2006d1c:	100d883a 	mov	r6,r2
 2006d20:	880b883a 	mov	r5,r17
 2006d24:	8009883a 	mov	r4,r16
 2006d28:	20092800 	call	2009280 <__adddf3>
 2006d2c:	180b883a 	mov	r5,r3
 2006d30:	1009883a 	mov	r4,r2
 2006d34:	1823883a 	mov	r17,r3
 2006d38:	1021883a 	mov	r16,r2
 2006d3c:	2009c280 	call	2009c28 <__fixdfsi>
 2006d40:	1009883a 	mov	r4,r2
 2006d44:	d8809415 	stw	r2,592(sp)
 2006d48:	2009b300 	call	2009b30 <__floatsidf>
 2006d4c:	880b883a 	mov	r5,r17
 2006d50:	8009883a 	mov	r4,r16
 2006d54:	180f883a 	mov	r7,r3
 2006d58:	100d883a 	mov	r6,r2
 2006d5c:	20092000 	call	2009200 <__subdf3>
 2006d60:	d9c0a017 	ldw	r7,640(sp)
 2006d64:	180d883a 	mov	r6,r3
 2006d68:	1021883a 	mov	r16,r2
 2006d6c:	1823883a 	mov	r17,r3
 2006d70:	38017d1e 	bne	r7,zero,2007368 <__kernel_rem_pio2+0x940>
 2006d74:	da808d17 	ldw	r10,564(sp)
 2006d78:	d9009317 	ldw	r4,588(sp)
 2006d7c:	00c00604 	movi	r3,24
 2006d80:	50bfffc4 	addi	r2,r10,-1
 2006d84:	1085883a 	add	r2,r2,r2
 2006d88:	1085883a 	add	r2,r2,r2
 2006d8c:	16c5883a 	add	r2,r2,sp
 2006d90:	11400017 	ldw	r5,0(r2)
 2006d94:	1907c83a 	sub	r3,r3,r4
 2006d98:	d9c09317 	ldw	r7,588(sp)
 2006d9c:	28cdd83a 	sra	r6,r5,r3
 2006da0:	010005c4 	movi	r4,23
 2006da4:	da809417 	ldw	r10,592(sp)
 2006da8:	30c6983a 	sll	r3,r6,r3
 2006dac:	21c9c83a 	sub	r4,r4,r7
 2006db0:	5195883a 	add	r10,r10,r6
 2006db4:	28cbc83a 	sub	r5,r5,r3
 2006db8:	2909d83a 	sra	r4,r5,r4
 2006dbc:	da809415 	stw	r10,592(sp)
 2006dc0:	11400015 	stw	r5,0(r2)
 2006dc4:	d9009215 	stw	r4,584(sp)
 2006dc8:	d9409217 	ldw	r5,584(sp)
 2006dcc:	0140270e 	bge	zero,r5,2006e6c <__kernel_rem_pio2+0x444>
 2006dd0:	d9809417 	ldw	r6,592(sp)
 2006dd4:	d9c08d17 	ldw	r7,564(sp)
 2006dd8:	31800044 	addi	r6,r6,1
 2006ddc:	d9809415 	stw	r6,592(sp)
 2006de0:	01c1a50e 	bge	zero,r7,2007478 <__kernel_rem_pio2+0xa50>
 2006de4:	002d883a 	mov	r22,zero
 2006de8:	000b883a 	mov	r5,zero
 2006dec:	d809883a 	mov	r4,sp
 2006df0:	01c04034 	movhi	r7,256
 2006df4:	01804034 	movhi	r6,256
 2006df8:	31bfffc4 	addi	r6,r6,-1
 2006dfc:	00000806 	br	2006e20 <__kernel_rem_pio2+0x3f8>
 2006e00:	38c5c83a 	sub	r2,r7,r3
 2006e04:	18000226 	beq	r3,zero,2006e10 <__kernel_rem_pio2+0x3e8>
 2006e08:	05800044 	movi	r22,1
 2006e0c:	20800015 	stw	r2,0(r4)
 2006e10:	da808d17 	ldw	r10,564(sp)
 2006e14:	29400044 	addi	r5,r5,1
 2006e18:	21000104 	addi	r4,r4,4
 2006e1c:	51400926 	beq	r10,r5,2006e44 <__kernel_rem_pio2+0x41c>
 2006e20:	b004c03a 	cmpne	r2,r22,zero
 2006e24:	20c00017 	ldw	r3,0(r4)
 2006e28:	103ff526 	beq	r2,zero,2006e00 <__kernel_rem_pio2+0x3d8>
 2006e2c:	da808d17 	ldw	r10,564(sp)
 2006e30:	30c5c83a 	sub	r2,r6,r3
 2006e34:	29400044 	addi	r5,r5,1
 2006e38:	20800015 	stw	r2,0(r4)
 2006e3c:	21000104 	addi	r4,r4,4
 2006e40:	517ff71e 	bne	r10,r5,2006e20 <__kernel_rem_pio2+0x3f8>
 2006e44:	d880a017 	ldw	r2,640(sp)
 2006e48:	1000051e 	bne	r2,zero,2006e60 <__kernel_rem_pio2+0x438>
 2006e4c:	d8c09317 	ldw	r3,588(sp)
 2006e50:	00800044 	movi	r2,1
 2006e54:	18814e26 	beq	r3,r2,2007390 <__kernel_rem_pio2+0x968>
 2006e58:	00800084 	movi	r2,2
 2006e5c:	18815826 	beq	r3,r2,20073c0 <__kernel_rem_pio2+0x998>
 2006e60:	d9c09217 	ldw	r7,584(sp)
 2006e64:	00800084 	movi	r2,2
 2006e68:	38806926 	beq	r7,r2,2007010 <__kernel_rem_pio2+0x5e8>
 2006e6c:	000d883a 	mov	r6,zero
 2006e70:	000f883a 	mov	r7,zero
 2006e74:	8009883a 	mov	r4,r16
 2006e78:	880b883a 	mov	r5,r17
 2006e7c:	20099100 	call	2009910 <__eqdf2>
 2006e80:	1000811e 	bne	r2,zero,2007088 <__kernel_rem_pio2+0x660>
 2006e84:	da808d17 	ldw	r10,564(sp)
 2006e88:	d8809517 	ldw	r2,596(sp)
 2006e8c:	51bfffc4 	addi	r6,r10,-1
 2006e90:	30800c16 	blt	r6,r2,2006ec4 <__kernel_rem_pio2+0x49c>
 2006e94:	3185883a 	add	r2,r6,r6
 2006e98:	1085883a 	add	r2,r2,r2
 2006e9c:	16c9883a 	add	r4,r2,sp
 2006ea0:	3007883a 	mov	r3,r6
 2006ea4:	000b883a 	mov	r5,zero
 2006ea8:	20800017 	ldw	r2,0(r4)
 2006eac:	d9c09517 	ldw	r7,596(sp)
 2006eb0:	18ffffc4 	addi	r3,r3,-1
 2006eb4:	213fff04 	addi	r4,r4,-4
 2006eb8:	288ab03a 	or	r5,r5,r2
 2006ebc:	19fffa0e 	bge	r3,r7,2006ea8 <__kernel_rem_pio2+0x480>
 2006ec0:	2800791e 	bne	r5,zero,20070a8 <__kernel_rem_pio2+0x680>
 2006ec4:	da809917 	ldw	r10,612(sp)
 2006ec8:	50bfff17 	ldw	r2,-4(r10)
 2006ecc:	1001511e 	bne	r2,zero,2007414 <__kernel_rem_pio2+0x9ec>
 2006ed0:	d880a117 	ldw	r2,644(sp)
 2006ed4:	01000044 	movi	r4,1
 2006ed8:	10ffff04 	addi	r3,r2,-4
 2006edc:	18ffff04 	addi	r3,r3,-4
 2006ee0:	18800017 	ldw	r2,0(r3)
 2006ee4:	21000044 	addi	r4,r4,1
 2006ee8:	103ffc26 	beq	r2,zero,2006edc <__kernel_rem_pio2+0x4b4>
 2006eec:	d8c08d17 	ldw	r3,564(sp)
 2006ef0:	192f883a 	add	r23,r3,r4
 2006ef4:	1f000044 	addi	fp,r3,1
 2006ef8:	bf00020e 	bge	r23,fp,2006f04 <__kernel_rem_pio2+0x4dc>
 2006efc:	ddc08d15 	stw	r23,564(sp)
 2006f00:	003f3a06 	br	2006bec <__kernel_rem_pio2+0x1c4>
 2006f04:	d9408c17 	ldw	r5,560(sp)
 2006f08:	d9009817 	ldw	r4,608(sp)
 2006f0c:	da80ae17 	ldw	r10,696(sp)
 2006f10:	1945883a 	add	r2,r3,r5
 2006f14:	190f883a 	add	r7,r3,r4
 2006f18:	1085883a 	add	r2,r2,r2
 2006f1c:	380a90fa 	slli	r5,r7,3
 2006f20:	e00c90fa 	slli	r6,fp,3
 2006f24:	1085883a 	add	r2,r2,r2
 2006f28:	5085883a 	add	r2,r10,r2
 2006f2c:	d8c01404 	addi	r3,sp,80
 2006f30:	d9006404 	addi	r4,sp,400
 2006f34:	10800104 	addi	r2,r2,4
 2006f38:	196b883a 	add	r21,r3,r5
 2006f3c:	21a1883a 	add	r16,r4,r6
 2006f40:	d8809115 	stw	r2,580(sp)
 2006f44:	d9c09015 	stw	r7,576(sp)
 2006f48:	d8809117 	ldw	r2,580(sp)
 2006f4c:	11000017 	ldw	r4,0(r2)
 2006f50:	2009b300 	call	2009b30 <__floatsidf>
 2006f54:	a8c00115 	stw	r3,4(r21)
 2006f58:	d8c0a217 	ldw	r3,648(sp)
 2006f5c:	a8800015 	stw	r2,0(r21)
 2006f60:	18002826 	beq	r3,zero,2007004 <__kernel_rem_pio2+0x5dc>
 2006f64:	d9009017 	ldw	r4,576(sp)
 2006f68:	dd009617 	ldw	r20,600(sp)
 2006f6c:	0023883a 	mov	r17,zero
 2006f70:	200490fa 	slli	r2,r4,3
 2006f74:	002d883a 	mov	r22,zero
 2006f78:	0025883a 	mov	r18,zero
 2006f7c:	16e7883a 	add	r19,r2,sp
 2006f80:	98801417 	ldw	r2,80(r19)
 2006f84:	98c01517 	ldw	r3,84(r19)
 2006f88:	a1800017 	ldw	r6,0(r20)
 2006f8c:	a1c00117 	ldw	r7,4(r20)
 2006f90:	180b883a 	mov	r5,r3
 2006f94:	1009883a 	mov	r4,r2
 2006f98:	20092f40 	call	20092f4 <__muldf3>
 2006f9c:	180f883a 	mov	r7,r3
 2006fa0:	900b883a 	mov	r5,r18
 2006fa4:	8809883a 	mov	r4,r17
 2006fa8:	100d883a 	mov	r6,r2
 2006fac:	20092800 	call	2009280 <__adddf3>
 2006fb0:	d9409817 	ldw	r5,608(sp)
 2006fb4:	b5800044 	addi	r22,r22,1
 2006fb8:	9cfffe04 	addi	r19,r19,-8
 2006fbc:	1023883a 	mov	r17,r2
 2006fc0:	1825883a 	mov	r18,r3
 2006fc4:	a5000204 	addi	r20,r20,8
 2006fc8:	2dbfed1e 	bne	r5,r22,2006f80 <__kernel_rem_pio2+0x558>
 2006fcc:	d9809117 	ldw	r6,580(sp)
 2006fd0:	d9c09017 	ldw	r7,576(sp)
 2006fd4:	e7000044 	addi	fp,fp,1
 2006fd8:	31800104 	addi	r6,r6,4
 2006fdc:	39c00044 	addi	r7,r7,1
 2006fe0:	84800115 	stw	r18,4(r16)
 2006fe4:	84400015 	stw	r17,0(r16)
 2006fe8:	d9809115 	stw	r6,580(sp)
 2006fec:	ad400204 	addi	r21,r21,8
 2006ff0:	84000204 	addi	r16,r16,8
 2006ff4:	d9c09015 	stw	r7,576(sp)
 2006ff8:	bf3fd30e 	bge	r23,fp,2006f48 <__kernel_rem_pio2+0x520>
 2006ffc:	ddc08d15 	stw	r23,564(sp)
 2007000:	003efa06 	br	2006bec <__kernel_rem_pio2+0x1c4>
 2007004:	0023883a 	mov	r17,zero
 2007008:	0025883a 	mov	r18,zero
 200700c:	003fef06 	br	2006fcc <__kernel_rem_pio2+0x5a4>
 2007010:	0029883a 	mov	r20,zero
 2007014:	054ffc34 	movhi	r21,16368
 2007018:	880f883a 	mov	r7,r17
 200701c:	800d883a 	mov	r6,r16
 2007020:	a009883a 	mov	r4,r20
 2007024:	a80b883a 	mov	r5,r21
 2007028:	20092000 	call	2009200 <__subdf3>
 200702c:	1025883a 	mov	r18,r2
 2007030:	b005003a 	cmpeq	r2,r22,zero
 2007034:	1827883a 	mov	r19,r3
 2007038:	9021883a 	mov	r16,r18
 200703c:	1823883a 	mov	r17,r3
 2007040:	103f8a1e 	bne	r2,zero,2006e6c <__kernel_rem_pio2+0x444>
 2007044:	d9809317 	ldw	r6,588(sp)
 2007048:	0009883a 	mov	r4,zero
 200704c:	a80b883a 	mov	r5,r21
 2007050:	20084d80 	call	20084d8 <scalbn>
 2007054:	180f883a 	mov	r7,r3
 2007058:	9009883a 	mov	r4,r18
 200705c:	980b883a 	mov	r5,r19
 2007060:	100d883a 	mov	r6,r2
 2007064:	20092000 	call	2009200 <__subdf3>
 2007068:	1021883a 	mov	r16,r2
 200706c:	1823883a 	mov	r17,r3
 2007070:	000d883a 	mov	r6,zero
 2007074:	000f883a 	mov	r7,zero
 2007078:	8009883a 	mov	r4,r16
 200707c:	880b883a 	mov	r5,r17
 2007080:	20099100 	call	2009910 <__eqdf2>
 2007084:	103f7f26 	beq	r2,zero,2006e84 <__kernel_rem_pio2+0x45c>
 2007088:	000d883a 	mov	r6,zero
 200708c:	000f883a 	mov	r7,zero
 2007090:	8009883a 	mov	r4,r16
 2007094:	880b883a 	mov	r5,r17
 2007098:	20099100 	call	2009910 <__eqdf2>
 200709c:	10019a1e 	bne	r2,zero,2007708 <__kernel_rem_pio2+0xce0>
 20070a0:	da808d17 	ldw	r10,564(sp)
 20070a4:	51bfffc4 	addi	r6,r10,-1
 20070a8:	3185883a 	add	r2,r6,r6
 20070ac:	1085883a 	add	r2,r2,r2
 20070b0:	d9009317 	ldw	r4,588(sp)
 20070b4:	16c5883a 	add	r2,r2,sp
 20070b8:	10c00017 	ldw	r3,0(r2)
 20070bc:	213ffa04 	addi	r4,r4,-24
 20070c0:	d9009315 	stw	r4,588(sp)
 20070c4:	1801d41e 	bne	r3,zero,2007818 <__kernel_rem_pio2+0xdf0>
 20070c8:	d9808d15 	stw	r6,564(sp)
 20070cc:	1007883a 	mov	r3,r2
 20070d0:	d9408d17 	ldw	r5,564(sp)
 20070d4:	d9809317 	ldw	r6,588(sp)
 20070d8:	18ffff04 	addi	r3,r3,-4
 20070dc:	18800017 	ldw	r2,0(r3)
 20070e0:	297fffc4 	addi	r5,r5,-1
 20070e4:	31bffa04 	addi	r6,r6,-24
 20070e8:	d9408d15 	stw	r5,564(sp)
 20070ec:	d9809315 	stw	r6,588(sp)
 20070f0:	103ff726 	beq	r2,zero,20070d0 <__kernel_rem_pio2+0x6a8>
 20070f4:	d9809317 	ldw	r6,588(sp)
 20070f8:	0005883a 	mov	r2,zero
 20070fc:	00cffc34 	movhi	r3,16368
 2007100:	180b883a 	mov	r5,r3
 2007104:	1009883a 	mov	r4,r2
 2007108:	20084d80 	call	20084d8 <scalbn>
 200710c:	d9808d17 	ldw	r6,564(sp)
 2007110:	1021883a 	mov	r16,r2
 2007114:	1823883a 	mov	r17,r3
 2007118:	30004616 	blt	r6,zero,2007234 <__kernel_rem_pio2+0x80c>
 200711c:	300690fa 	slli	r3,r6,3
 2007120:	3185883a 	add	r2,r6,r6
 2007124:	1085883a 	add	r2,r2,r2
 2007128:	16e9883a 	add	r20,r2,sp
 200712c:	1ee5883a 	add	r18,r3,sp
 2007130:	3027883a 	mov	r19,r6
 2007134:	057fffc4 	movi	r21,-1
 2007138:	a1000017 	ldw	r4,0(r20)
 200713c:	9cffffc4 	addi	r19,r19,-1
 2007140:	a53fff04 	addi	r20,r20,-4
 2007144:	2009b300 	call	2009b30 <__floatsidf>
 2007148:	800d883a 	mov	r6,r16
 200714c:	880f883a 	mov	r7,r17
 2007150:	180b883a 	mov	r5,r3
 2007154:	1009883a 	mov	r4,r2
 2007158:	20092f40 	call	20092f4 <__muldf3>
 200715c:	0015883a 	mov	r10,zero
 2007160:	02cf9c34 	movhi	r11,15984
 2007164:	880b883a 	mov	r5,r17
 2007168:	8009883a 	mov	r4,r16
 200716c:	90c06515 	stw	r3,404(r18)
 2007170:	90806415 	stw	r2,400(r18)
 2007174:	580f883a 	mov	r7,r11
 2007178:	500d883a 	mov	r6,r10
 200717c:	20092f40 	call	20092f4 <__muldf3>
 2007180:	1021883a 	mov	r16,r2
 2007184:	1823883a 	mov	r17,r3
 2007188:	94bffe04 	addi	r18,r18,-8
 200718c:	9d7fea1e 	bne	r19,r21,2007138 <__kernel_rem_pio2+0x710>
 2007190:	d9c09517 	ldw	r7,596(sp)
 2007194:	dd808d17 	ldw	r22,564(sp)
 2007198:	002b883a 	mov	r21,zero
 200719c:	382e403a 	cmpge	r23,r7,zero
 20071a0:	b800aa26 	beq	r23,zero,200744c <__kernel_rem_pio2+0xa24>
 20071a4:	a800a916 	blt	r21,zero,200744c <__kernel_rem_pio2+0xa24>
 20071a8:	b00690fa 	slli	r3,r22,3
 20071ac:	d8806404 	addi	r2,sp,400
 20071b0:	0021883a 	mov	r16,zero
 20071b4:	10e9883a 	add	r20,r2,r3
 20071b8:	0027883a 	mov	r19,zero
 20071bc:	0023883a 	mov	r17,zero
 20071c0:	04808074 	movhi	r18,513
 20071c4:	94ba1104 	addi	r18,r18,-6076
 20071c8:	00000106 	br	20071d0 <__kernel_rem_pio2+0x7a8>
 20071cc:	acc01116 	blt	r21,r19,2007214 <__kernel_rem_pio2+0x7ec>
 20071d0:	91000017 	ldw	r4,0(r18)
 20071d4:	91400117 	ldw	r5,4(r18)
 20071d8:	a1800017 	ldw	r6,0(r20)
 20071dc:	a1c00117 	ldw	r7,4(r20)
 20071e0:	9cc00044 	addi	r19,r19,1
 20071e4:	94800204 	addi	r18,r18,8
 20071e8:	20092f40 	call	20092f4 <__muldf3>
 20071ec:	180f883a 	mov	r7,r3
 20071f0:	880b883a 	mov	r5,r17
 20071f4:	8009883a 	mov	r4,r16
 20071f8:	100d883a 	mov	r6,r2
 20071fc:	20092800 	call	2009280 <__adddf3>
 2007200:	da809517 	ldw	r10,596(sp)
 2007204:	a5000204 	addi	r20,r20,8
 2007208:	1021883a 	mov	r16,r2
 200720c:	1823883a 	mov	r17,r3
 2007210:	54ffee0e 	bge	r10,r19,20071cc <__kernel_rem_pio2+0x7a4>
 2007214:	a80490fa 	slli	r2,r21,3
 2007218:	b5bfffc4 	addi	r22,r22,-1
 200721c:	ad400044 	addi	r21,r21,1
 2007220:	16c5883a 	add	r2,r2,sp
 2007224:	14403d15 	stw	r17,244(r2)
 2007228:	14003c15 	stw	r16,240(r2)
 200722c:	00bfffc4 	movi	r2,-1
 2007230:	b0bfdb1e 	bne	r22,r2,20071a0 <__kernel_rem_pio2+0x778>
 2007234:	d8c0ad17 	ldw	r3,692(sp)
 2007238:	00800084 	movi	r2,2
 200723c:	10c09316 	blt	r2,r3,200748c <__kernel_rem_pio2+0xa64>
 2007240:	00c1120e 	bge	zero,r3,200768c <__kernel_rem_pio2+0xc64>
 2007244:	d9808d17 	ldw	r6,564(sp)
 2007248:	30018d16 	blt	r6,zero,2007880 <__kernel_rem_pio2+0xe58>
 200724c:	d8c08d17 	ldw	r3,564(sp)
 2007250:	0011883a 	mov	r8,zero
 2007254:	0013883a 	mov	r9,zero
 2007258:	180490fa 	slli	r2,r3,3
 200725c:	1823883a 	mov	r17,r3
 2007260:	04bfffc4 	movi	r18,-1
 2007264:	16e1883a 	add	r16,r2,sp
 2007268:	80803c17 	ldw	r2,240(r16)
 200726c:	80c03d17 	ldw	r3,244(r16)
 2007270:	480b883a 	mov	r5,r9
 2007274:	4009883a 	mov	r4,r8
 2007278:	180f883a 	mov	r7,r3
 200727c:	100d883a 	mov	r6,r2
 2007280:	20092800 	call	2009280 <__adddf3>
 2007284:	8c7fffc4 	addi	r17,r17,-1
 2007288:	843ffe04 	addi	r16,r16,-8
 200728c:	1011883a 	mov	r8,r2
 2007290:	1813883a 	mov	r9,r3
 2007294:	8cbff41e 	bne	r17,r18,2007268 <__kernel_rem_pio2+0x840>
 2007298:	d9009217 	ldw	r4,584(sp)
 200729c:	20015b1e 	bne	r4,zero,200780c <__kernel_rem_pio2+0xde4>
 20072a0:	4009883a 	mov	r4,r8
 20072a4:	480b883a 	mov	r5,r9
 20072a8:	d9809717 	ldw	r6,604(sp)
 20072ac:	d8803c17 	ldw	r2,240(sp)
 20072b0:	480f883a 	mov	r7,r9
 20072b4:	31400115 	stw	r5,4(r6)
 20072b8:	31000015 	stw	r4,0(r6)
 20072bc:	d8c03d17 	ldw	r3,244(sp)
 20072c0:	400d883a 	mov	r6,r8
 20072c4:	1009883a 	mov	r4,r2
 20072c8:	180b883a 	mov	r5,r3
 20072cc:	20092000 	call	2009200 <__subdf3>
 20072d0:	d9c08d17 	ldw	r7,564(sp)
 20072d4:	1011883a 	mov	r8,r2
 20072d8:	1813883a 	mov	r9,r3
 20072dc:	01c00d0e 	bge	zero,r7,2007314 <__kernel_rem_pio2+0x8ec>
 20072e0:	0023883a 	mov	r17,zero
 20072e4:	dc003e04 	addi	r16,sp,248
 20072e8:	81800017 	ldw	r6,0(r16)
 20072ec:	81c00117 	ldw	r7,4(r16)
 20072f0:	480b883a 	mov	r5,r9
 20072f4:	4009883a 	mov	r4,r8
 20072f8:	20092800 	call	2009280 <__adddf3>
 20072fc:	da808d17 	ldw	r10,564(sp)
 2007300:	8c400044 	addi	r17,r17,1
 2007304:	1011883a 	mov	r8,r2
 2007308:	1813883a 	mov	r9,r3
 200730c:	84000204 	addi	r16,r16,8
 2007310:	8abff51e 	bne	r17,r10,20072e8 <__kernel_rem_pio2+0x8c0>
 2007314:	d8809217 	ldw	r2,584(sp)
 2007318:	10000226 	beq	r2,zero,2007324 <__kernel_rem_pio2+0x8fc>
 200731c:	48e0003c 	xorhi	r3,r9,32768
 2007320:	1813883a 	mov	r9,r3
 2007324:	d8c09717 	ldw	r3,604(sp)
 2007328:	1a400315 	stw	r9,12(r3)
 200732c:	1a000215 	stw	r8,8(r3)
 2007330:	d8c09417 	ldw	r3,592(sp)
 2007334:	188001cc 	andi	r2,r3,7
 2007338:	dfc0ac17 	ldw	ra,688(sp)
 200733c:	df00ab17 	ldw	fp,684(sp)
 2007340:	ddc0aa17 	ldw	r23,680(sp)
 2007344:	dd80a917 	ldw	r22,676(sp)
 2007348:	dd40a817 	ldw	r21,672(sp)
 200734c:	dd00a717 	ldw	r20,668(sp)
 2007350:	dcc0a617 	ldw	r19,664(sp)
 2007354:	dc80a517 	ldw	r18,660(sp)
 2007358:	dc40a417 	ldw	r17,656(sp)
 200735c:	dc00a317 	ldw	r16,652(sp)
 2007360:	dec0ad04 	addi	sp,sp,692
 2007364:	f800283a 	ret
 2007368:	d8809317 	ldw	r2,588(sp)
 200736c:	10001f1e 	bne	r2,zero,20073ec <__kernel_rem_pio2+0x9c4>
 2007370:	d8c08d17 	ldw	r3,564(sp)
 2007374:	18c5883a 	add	r2,r3,r3
 2007378:	1085883a 	add	r2,r2,r2
 200737c:	16c5883a 	add	r2,r2,sp
 2007380:	10ffff17 	ldw	r3,-4(r2)
 2007384:	1807d5fa 	srai	r3,r3,23
 2007388:	d8c09215 	stw	r3,584(sp)
 200738c:	003e8e06 	br	2006dc8 <__kernel_rem_pio2+0x3a0>
 2007390:	d9008d17 	ldw	r4,564(sp)
 2007394:	d9409317 	ldw	r5,588(sp)
 2007398:	2145c83a 	sub	r2,r4,r5
 200739c:	1085883a 	add	r2,r2,r2
 20073a0:	1085883a 	add	r2,r2,r2
 20073a4:	16c5883a 	add	r2,r2,sp
 20073a8:	10c00017 	ldw	r3,0(r2)
 20073ac:	01002034 	movhi	r4,128
 20073b0:	213fffc4 	addi	r4,r4,-1
 20073b4:	1906703a 	and	r3,r3,r4
 20073b8:	10c00015 	stw	r3,0(r2)
 20073bc:	003ea806 	br	2006e60 <__kernel_rem_pio2+0x438>
 20073c0:	d9808d17 	ldw	r6,564(sp)
 20073c4:	01001034 	movhi	r4,64
 20073c8:	213fffc4 	addi	r4,r4,-1
 20073cc:	30bfffc4 	addi	r2,r6,-1
 20073d0:	1085883a 	add	r2,r2,r2
 20073d4:	1085883a 	add	r2,r2,r2
 20073d8:	16c5883a 	add	r2,r2,sp
 20073dc:	10c00017 	ldw	r3,0(r2)
 20073e0:	1906703a 	and	r3,r3,r4
 20073e4:	10c00015 	stw	r3,0(r2)
 20073e8:	003e9d06 	br	2006e60 <__kernel_rem_pio2+0x438>
 20073ec:	0005883a 	mov	r2,zero
 20073f0:	00cff834 	movhi	r3,16352
 20073f4:	300b883a 	mov	r5,r6
 20073f8:	180f883a 	mov	r7,r3
 20073fc:	8009883a 	mov	r4,r16
 2007400:	100d883a 	mov	r6,r2
 2007404:	2009a200 	call	2009a20 <__gedf2>
 2007408:	10001d0e 	bge	r2,zero,2007480 <__kernel_rem_pio2+0xa58>
 200740c:	d8009215 	stw	zero,584(sp)
 2007410:	003e9606 	br	2006e6c <__kernel_rem_pio2+0x444>
 2007414:	d8c08d17 	ldw	r3,564(sp)
 2007418:	01000044 	movi	r4,1
 200741c:	192f883a 	add	r23,r3,r4
 2007420:	1f000044 	addi	fp,r3,1
 2007424:	bf3eb516 	blt	r23,fp,2006efc <__kernel_rem_pio2+0x4d4>
 2007428:	003eb606 	br	2006f04 <__kernel_rem_pio2+0x4dc>
 200742c:	0021883a 	mov	r16,zero
 2007430:	0023883a 	mov	r17,zero
 2007434:	a5000044 	addi	r20,r20,1
 2007438:	ac400115 	stw	r17,4(r21)
 200743c:	ac000015 	stw	r16,0(r21)
 2007440:	ad400204 	addi	r21,r21,8
 2007444:	a5fdba1e 	bne	r20,r23,2006b30 <__kernel_rem_pio2+0x108>
 2007448:	003dd806 	br	2006bac <__kernel_rem_pio2+0x184>
 200744c:	a80490fa 	slli	r2,r21,3
 2007450:	0021883a 	mov	r16,zero
 2007454:	0023883a 	mov	r17,zero
 2007458:	16c5883a 	add	r2,r2,sp
 200745c:	14403d15 	stw	r17,244(r2)
 2007460:	14003c15 	stw	r16,240(r2)
 2007464:	b5bfffc4 	addi	r22,r22,-1
 2007468:	00bfffc4 	movi	r2,-1
 200746c:	ad400044 	addi	r21,r21,1
 2007470:	b0bf4b1e 	bne	r22,r2,20071a0 <__kernel_rem_pio2+0x778>
 2007474:	003f6f06 	br	2007234 <__kernel_rem_pio2+0x80c>
 2007478:	002d883a 	mov	r22,zero
 200747c:	003e7106 	br	2006e44 <__kernel_rem_pio2+0x41c>
 2007480:	01000084 	movi	r4,2
 2007484:	d9009215 	stw	r4,584(sp)
 2007488:	003e5106 	br	2006dd0 <__kernel_rem_pio2+0x3a8>
 200748c:	d900ad17 	ldw	r4,692(sp)
 2007490:	008000c4 	movi	r2,3
 2007494:	20bfa61e 	bne	r4,r2,2007330 <__kernel_rem_pio2+0x908>
 2007498:	d9c08d17 	ldw	r7,564(sp)
 200749c:	01c02c0e 	bge	zero,r7,2007550 <__kernel_rem_pio2+0xb28>
 20074a0:	3805883a 	mov	r2,r7
 20074a4:	00000106 	br	20074ac <__kernel_rem_pio2+0xa84>
 20074a8:	d8808e17 	ldw	r2,568(sp)
 20074ac:	113fffc4 	addi	r4,r2,-1
 20074b0:	100690fa 	slli	r3,r2,3
 20074b4:	200490fa 	slli	r2,r4,3
 20074b8:	d9008e15 	stw	r4,568(sp)
 20074bc:	1ef9883a 	add	fp,r3,sp
 20074c0:	16c5883a 	add	r2,r2,sp
 20074c4:	d8809a15 	stw	r2,616(sp)
 20074c8:	11403c04 	addi	r5,r2,240
 20074cc:	e1803c04 	addi	r6,fp,240
 20074d0:	14003c17 	ldw	r16,240(r2)
 20074d4:	e5003c17 	ldw	r20,240(fp)
 20074d8:	d9409b15 	stw	r5,620(sp)
 20074dc:	d9809c15 	stw	r6,624(sp)
 20074e0:	35400117 	ldw	r21,4(r6)
 20074e4:	2c400117 	ldw	r17,4(r5)
 20074e8:	8009883a 	mov	r4,r16
 20074ec:	a00d883a 	mov	r6,r20
 20074f0:	880b883a 	mov	r5,r17
 20074f4:	a80f883a 	mov	r7,r21
 20074f8:	20092800 	call	2009280 <__adddf3>
 20074fc:	100d883a 	mov	r6,r2
 2007500:	880b883a 	mov	r5,r17
 2007504:	8009883a 	mov	r4,r16
 2007508:	180f883a 	mov	r7,r3
 200750c:	1025883a 	mov	r18,r2
 2007510:	1827883a 	mov	r19,r3
 2007514:	20092000 	call	2009200 <__subdf3>
 2007518:	180f883a 	mov	r7,r3
 200751c:	a80b883a 	mov	r5,r21
 2007520:	a009883a 	mov	r4,r20
 2007524:	100d883a 	mov	r6,r2
 2007528:	20092800 	call	2009280 <__adddf3>
 200752c:	e0803c15 	stw	r2,240(fp)
 2007530:	d9c09c17 	ldw	r7,624(sp)
 2007534:	38c00115 	stw	r3,4(r7)
 2007538:	da809a17 	ldw	r10,616(sp)
 200753c:	54803c15 	stw	r18,240(r10)
 2007540:	d8809b17 	ldw	r2,620(sp)
 2007544:	14c00115 	stw	r19,4(r2)
 2007548:	d8c08e17 	ldw	r3,568(sp)
 200754c:	183fd61e 	bne	r3,zero,20074a8 <__kernel_rem_pio2+0xa80>
 2007550:	d9008d17 	ldw	r4,564(sp)
 2007554:	00800044 	movi	r2,1
 2007558:	1100cc0e 	bge	r2,r4,200788c <__kernel_rem_pio2+0xe64>
 200755c:	d8808d17 	ldw	r2,564(sp)
 2007560:	117fffc4 	addi	r5,r2,-1
 2007564:	100690fa 	slli	r3,r2,3
 2007568:	280490fa 	slli	r2,r5,3
 200756c:	d9408f15 	stw	r5,572(sp)
 2007570:	1ef9883a 	add	fp,r3,sp
 2007574:	16c5883a 	add	r2,r2,sp
 2007578:	d8809d15 	stw	r2,628(sp)
 200757c:	11803c04 	addi	r6,r2,240
 2007580:	e1c03c04 	addi	r7,fp,240
 2007584:	14003c17 	ldw	r16,240(r2)
 2007588:	e5003c17 	ldw	r20,240(fp)
 200758c:	d9809e15 	stw	r6,632(sp)
 2007590:	d9c09f15 	stw	r7,636(sp)
 2007594:	34400117 	ldw	r17,4(r6)
 2007598:	3d400117 	ldw	r21,4(r7)
 200759c:	8009883a 	mov	r4,r16
 20075a0:	880b883a 	mov	r5,r17
 20075a4:	a00d883a 	mov	r6,r20
 20075a8:	a80f883a 	mov	r7,r21
 20075ac:	20092800 	call	2009280 <__adddf3>
 20075b0:	100d883a 	mov	r6,r2
 20075b4:	880b883a 	mov	r5,r17
 20075b8:	8009883a 	mov	r4,r16
 20075bc:	180f883a 	mov	r7,r3
 20075c0:	1025883a 	mov	r18,r2
 20075c4:	1827883a 	mov	r19,r3
 20075c8:	20092000 	call	2009200 <__subdf3>
 20075cc:	180f883a 	mov	r7,r3
 20075d0:	a80b883a 	mov	r5,r21
 20075d4:	a009883a 	mov	r4,r20
 20075d8:	100d883a 	mov	r6,r2
 20075dc:	20092800 	call	2009280 <__adddf3>
 20075e0:	e0803c15 	stw	r2,240(fp)
 20075e4:	da809f17 	ldw	r10,636(sp)
 20075e8:	50c00115 	stw	r3,4(r10)
 20075ec:	d8c09d17 	ldw	r3,628(sp)
 20075f0:	d8808f17 	ldw	r2,572(sp)
 20075f4:	1c803c15 	stw	r18,240(r3)
 20075f8:	d9009e17 	ldw	r4,632(sp)
 20075fc:	00c00044 	movi	r3,1
 2007600:	24c00115 	stw	r19,4(r4)
 2007604:	d9408f17 	ldw	r5,572(sp)
 2007608:	28ffd51e 	bne	r5,r3,2007560 <__kernel_rem_pio2+0xb38>
 200760c:	dc008d17 	ldw	r16,564(sp)
 2007610:	0011883a 	mov	r8,zero
 2007614:	1825883a 	mov	r18,r3
 2007618:	800490fa 	slli	r2,r16,3
 200761c:	0013883a 	mov	r9,zero
 2007620:	16e3883a 	add	r17,r2,sp
 2007624:	88803c17 	ldw	r2,240(r17)
 2007628:	88c03d17 	ldw	r3,244(r17)
 200762c:	480b883a 	mov	r5,r9
 2007630:	4009883a 	mov	r4,r8
 2007634:	180f883a 	mov	r7,r3
 2007638:	100d883a 	mov	r6,r2
 200763c:	20092800 	call	2009280 <__adddf3>
 2007640:	843fffc4 	addi	r16,r16,-1
 2007644:	8c7ffe04 	addi	r17,r17,-8
 2007648:	1011883a 	mov	r8,r2
 200764c:	1813883a 	mov	r9,r3
 2007650:	84bff41e 	bne	r16,r18,2007624 <__kernel_rem_pio2+0xbfc>
 2007654:	d9809217 	ldw	r6,584(sp)
 2007658:	30007a1e 	bne	r6,zero,2007844 <__kernel_rem_pio2+0xe1c>
 200765c:	d9c09717 	ldw	r7,604(sp)
 2007660:	d8803c17 	ldw	r2,240(sp)
 2007664:	d9003e17 	ldw	r4,248(sp)
 2007668:	3a400515 	stw	r9,20(r7)
 200766c:	d8c03d17 	ldw	r3,244(sp)
 2007670:	d9403f17 	ldw	r5,252(sp)
 2007674:	3a000415 	stw	r8,16(r7)
 2007678:	38c00115 	stw	r3,4(r7)
 200767c:	39400315 	stw	r5,12(r7)
 2007680:	38800015 	stw	r2,0(r7)
 2007684:	39000215 	stw	r4,8(r7)
 2007688:	003f2906 	br	2007330 <__kernel_rem_pio2+0x908>
 200768c:	183f281e 	bne	r3,zero,2007330 <__kernel_rem_pio2+0x908>
 2007690:	d9408d17 	ldw	r5,564(sp)
 2007694:	28008016 	blt	r5,zero,2007898 <__kernel_rem_pio2+0xe70>
 2007698:	dc008d17 	ldw	r16,564(sp)
 200769c:	000d883a 	mov	r6,zero
 20076a0:	000f883a 	mov	r7,zero
 20076a4:	800490fa 	slli	r2,r16,3
 20076a8:	04bfffc4 	movi	r18,-1
 20076ac:	16e3883a 	add	r17,r2,sp
 20076b0:	88803c17 	ldw	r2,240(r17)
 20076b4:	88c03d17 	ldw	r3,244(r17)
 20076b8:	380b883a 	mov	r5,r7
 20076bc:	3009883a 	mov	r4,r6
 20076c0:	180f883a 	mov	r7,r3
 20076c4:	100d883a 	mov	r6,r2
 20076c8:	20092800 	call	2009280 <__adddf3>
 20076cc:	843fffc4 	addi	r16,r16,-1
 20076d0:	8c7ffe04 	addi	r17,r17,-8
 20076d4:	100d883a 	mov	r6,r2
 20076d8:	180f883a 	mov	r7,r3
 20076dc:	84bff41e 	bne	r16,r18,20076b0 <__kernel_rem_pio2+0xc88>
 20076e0:	da809217 	ldw	r10,584(sp)
 20076e4:	50000226 	beq	r10,zero,20076f0 <__kernel_rem_pio2+0xcc8>
 20076e8:	38e0003c 	xorhi	r3,r7,32768
 20076ec:	180f883a 	mov	r7,r3
 20076f0:	d8809717 	ldw	r2,604(sp)
 20076f4:	11c00115 	stw	r7,4(r2)
 20076f8:	11800015 	stw	r6,0(r2)
 20076fc:	003f0c06 	br	2007330 <__kernel_rem_pio2+0x908>
 2007700:	d8008c15 	stw	zero,560(sp)
 2007704:	003ce606 	br	2006aa0 <__kernel_rem_pio2+0x78>
 2007708:	d9c09317 	ldw	r7,588(sp)
 200770c:	880b883a 	mov	r5,r17
 2007710:	8009883a 	mov	r4,r16
 2007714:	01cdc83a 	sub	r6,zero,r7
 2007718:	20084d80 	call	20084d8 <scalbn>
 200771c:	0011883a 	mov	r8,zero
 2007720:	02505c34 	movhi	r9,16752
 2007724:	480f883a 	mov	r7,r9
 2007728:	1009883a 	mov	r4,r2
 200772c:	180b883a 	mov	r5,r3
 2007730:	400d883a 	mov	r6,r8
 2007734:	102d883a 	mov	r22,r2
 2007738:	182f883a 	mov	r23,r3
 200773c:	2009a200 	call	2009a20 <__gedf2>
 2007740:	10003716 	blt	r2,zero,2007820 <__kernel_rem_pio2+0xdf8>
 2007744:	0005883a 	mov	r2,zero
 2007748:	00cf9c34 	movhi	r3,15984
 200774c:	180f883a 	mov	r7,r3
 2007750:	100d883a 	mov	r6,r2
 2007754:	b009883a 	mov	r4,r22
 2007758:	b80b883a 	mov	r5,r23
 200775c:	20092f40 	call	20092f4 <__muldf3>
 2007760:	180b883a 	mov	r5,r3
 2007764:	1009883a 	mov	r4,r2
 2007768:	2009c280 	call	2009c28 <__fixdfsi>
 200776c:	1009883a 	mov	r4,r2
 2007770:	2009b300 	call	2009b30 <__floatsidf>
 2007774:	da808d17 	ldw	r10,564(sp)
 2007778:	1023883a 	mov	r17,r2
 200777c:	1825883a 	mov	r18,r3
 2007780:	0005883a 	mov	r2,zero
 2007784:	00f05c34 	movhi	r3,49520
 2007788:	180f883a 	mov	r7,r3
 200778c:	8809883a 	mov	r4,r17
 2007790:	900b883a 	mov	r5,r18
 2007794:	100d883a 	mov	r6,r2
 2007798:	52ab883a 	add	r21,r10,r10
 200779c:	20092f40 	call	20092f4 <__muldf3>
 20077a0:	180f883a 	mov	r7,r3
 20077a4:	b80b883a 	mov	r5,r23
 20077a8:	100d883a 	mov	r6,r2
 20077ac:	b009883a 	mov	r4,r22
 20077b0:	20092800 	call	2009280 <__adddf3>
 20077b4:	100d883a 	mov	r6,r2
 20077b8:	d8808d17 	ldw	r2,564(sp)
 20077bc:	180b883a 	mov	r5,r3
 20077c0:	3009883a 	mov	r4,r6
 20077c4:	10800044 	addi	r2,r2,1
 20077c8:	ad6b883a 	add	r21,r21,r21
 20077cc:	d8808d15 	stw	r2,564(sp)
 20077d0:	2009c280 	call	2009c28 <__fixdfsi>
 20077d4:	d8c08d17 	ldw	r3,564(sp)
 20077d8:	aeeb883a 	add	r21,r21,sp
 20077dc:	8809883a 	mov	r4,r17
 20077e0:	900b883a 	mov	r5,r18
 20077e4:	a8800015 	stw	r2,0(r21)
 20077e8:	18e1883a 	add	r16,r3,r3
 20077ec:	2009c280 	call	2009c28 <__fixdfsi>
 20077f0:	d9009317 	ldw	r4,588(sp)
 20077f4:	8421883a 	add	r16,r16,r16
 20077f8:	86e1883a 	add	r16,r16,sp
 20077fc:	21000604 	addi	r4,r4,24
 2007800:	d9009315 	stw	r4,588(sp)
 2007804:	80800015 	stw	r2,0(r16)
 2007808:	003e3a06 	br	20070f4 <__kernel_rem_pio2+0x6cc>
 200780c:	4009883a 	mov	r4,r8
 2007810:	4960003c 	xorhi	r5,r9,32768
 2007814:	003ea406 	br	20072a8 <__kernel_rem_pio2+0x880>
 2007818:	d9808d15 	stw	r6,564(sp)
 200781c:	003e3506 	br	20070f4 <__kernel_rem_pio2+0x6cc>
 2007820:	d9408d17 	ldw	r5,564(sp)
 2007824:	b009883a 	mov	r4,r22
 2007828:	2961883a 	add	r16,r5,r5
 200782c:	8421883a 	add	r16,r16,r16
 2007830:	b80b883a 	mov	r5,r23
 2007834:	86e1883a 	add	r16,r16,sp
 2007838:	2009c280 	call	2009c28 <__fixdfsi>
 200783c:	80800015 	stw	r2,0(r16)
 2007840:	003e2c06 	br	20070f4 <__kernel_rem_pio2+0x6cc>
 2007844:	d8c03d17 	ldw	r3,244(sp)
 2007848:	d9403f17 	ldw	r5,252(sp)
 200784c:	da809717 	ldw	r10,604(sp)
 2007850:	d8803c17 	ldw	r2,240(sp)
 2007854:	d9003e17 	ldw	r4,248(sp)
 2007858:	49e0003c 	xorhi	r7,r9,32768
 200785c:	51c00515 	stw	r7,20(r10)
 2007860:	19a0003c 	xorhi	r6,r3,32768
 2007864:	29e0003c 	xorhi	r7,r5,32768
 2007868:	51800115 	stw	r6,4(r10)
 200786c:	51c00315 	stw	r7,12(r10)
 2007870:	50800015 	stw	r2,0(r10)
 2007874:	51000215 	stw	r4,8(r10)
 2007878:	52000415 	stw	r8,16(r10)
 200787c:	003eac06 	br	2007330 <__kernel_rem_pio2+0x908>
 2007880:	0011883a 	mov	r8,zero
 2007884:	0013883a 	mov	r9,zero
 2007888:	003e8306 	br	2007298 <__kernel_rem_pio2+0x870>
 200788c:	0011883a 	mov	r8,zero
 2007890:	0013883a 	mov	r9,zero
 2007894:	003f6f06 	br	2007654 <__kernel_rem_pio2+0xc2c>
 2007898:	000d883a 	mov	r6,zero
 200789c:	000f883a 	mov	r7,zero
 20078a0:	003f8f06 	br	20076e0 <__kernel_rem_pio2+0xcb8>

020078a4 <__kernel_sin>:
 20078a4:	00a00034 	movhi	r2,32768
 20078a8:	10bfffc4 	addi	r2,r2,-1
 20078ac:	deffef04 	addi	sp,sp,-68
 20078b0:	1144703a 	and	r2,r2,r5
 20078b4:	00cf9034 	movhi	r3,15936
 20078b8:	18ffffc4 	addi	r3,r3,-1
 20078bc:	dd400d15 	stw	r21,52(sp)
 20078c0:	dd000c15 	stw	r20,48(sp)
 20078c4:	dfc01015 	stw	ra,64(sp)
 20078c8:	ddc00f15 	stw	r23,60(sp)
 20078cc:	dd800e15 	stw	r22,56(sp)
 20078d0:	dcc00b15 	stw	r19,44(sp)
 20078d4:	dc800a15 	stw	r18,40(sp)
 20078d8:	dc400915 	stw	r17,36(sp)
 20078dc:	dc000815 	stw	r16,32(sp)
 20078e0:	2029883a 	mov	r20,r4
 20078e4:	282b883a 	mov	r21,r5
 20078e8:	d9800415 	stw	r6,16(sp)
 20078ec:	d9c00515 	stw	r7,20(sp)
 20078f0:	18800216 	blt	r3,r2,20078fc <__kernel_sin+0x58>
 20078f4:	2009c280 	call	2009c28 <__fixdfsi>
 20078f8:	10008826 	beq	r2,zero,2007b1c <__kernel_sin+0x278>
 20078fc:	a009883a 	mov	r4,r20
 2007900:	a80b883a 	mov	r5,r21
 2007904:	a00d883a 	mov	r6,r20
 2007908:	a80f883a 	mov	r7,r21
 200790c:	20092f40 	call	20092f4 <__muldf3>
 2007910:	102d883a 	mov	r22,r2
 2007914:	a009883a 	mov	r4,r20
 2007918:	a80b883a 	mov	r5,r21
 200791c:	b00d883a 	mov	r6,r22
 2007920:	180f883a 	mov	r7,r3
 2007924:	182f883a 	mov	r23,r3
 2007928:	d8800215 	stw	r2,8(sp)
 200792c:	d8c00315 	stw	r3,12(sp)
 2007930:	20092f40 	call	20092f4 <__muldf3>
 2007934:	d9000217 	ldw	r4,8(sp)
 2007938:	0216b434 	movhi	r8,23248
 200793c:	42355f04 	addi	r8,r8,-10884
 2007940:	024f79b4 	movhi	r9,15846
 2007944:	4a764e84 	addi	r9,r9,-9926
 2007948:	480f883a 	mov	r7,r9
 200794c:	400d883a 	mov	r6,r8
 2007950:	b80b883a 	mov	r5,r23
 2007954:	d8800615 	stw	r2,24(sp)
 2007958:	d8c00715 	stw	r3,28(sp)
 200795c:	20092f40 	call	20092f4 <__muldf3>
 2007960:	02228b34 	movhi	r8,35372
 2007964:	42273ac4 	addi	r8,r8,-25365
 2007968:	024f96f4 	movhi	r9,15963
 200796c:	4a797984 	addi	r9,r9,-6682
 2007970:	480f883a 	mov	r7,r9
 2007974:	400d883a 	mov	r6,r8
 2007978:	180b883a 	mov	r5,r3
 200797c:	1009883a 	mov	r4,r2
 2007980:	20092000 	call	2009200 <__subdf3>
 2007984:	d9000217 	ldw	r4,8(sp)
 2007988:	180f883a 	mov	r7,r3
 200798c:	b80b883a 	mov	r5,r23
 2007990:	100d883a 	mov	r6,r2
 2007994:	20092f40 	call	20092f4 <__muldf3>
 2007998:	0215ecb4 	movhi	r8,22450
 200799c:	423f9f44 	addi	r8,r8,-387
 20079a0:	024fb1f4 	movhi	r9,16071
 20079a4:	4a4778c4 	addi	r9,r9,7651
 20079a8:	480f883a 	mov	r7,r9
 20079ac:	400d883a 	mov	r6,r8
 20079b0:	180b883a 	mov	r5,r3
 20079b4:	1009883a 	mov	r4,r2
 20079b8:	20092800 	call	2009280 <__adddf3>
 20079bc:	d9000217 	ldw	r4,8(sp)
 20079c0:	180f883a 	mov	r7,r3
 20079c4:	b80b883a 	mov	r5,r23
 20079c8:	100d883a 	mov	r6,r2
 20079cc:	20092f40 	call	20092f4 <__muldf3>
 20079d0:	02067074 	movhi	r8,6593
 20079d4:	42187544 	addi	r8,r8,25045
 20079d8:	024fcab4 	movhi	r9,16170
 20079dc:	4a406804 	addi	r9,r9,416
 20079e0:	480f883a 	mov	r7,r9
 20079e4:	400d883a 	mov	r6,r8
 20079e8:	180b883a 	mov	r5,r3
 20079ec:	1009883a 	mov	r4,r2
 20079f0:	20092000 	call	2009200 <__subdf3>
 20079f4:	d9000217 	ldw	r4,8(sp)
 20079f8:	180f883a 	mov	r7,r3
 20079fc:	b80b883a 	mov	r5,r23
 2007a00:	100d883a 	mov	r6,r2
 2007a04:	20092f40 	call	20092f4 <__muldf3>
 2007a08:	02044474 	movhi	r8,4369
 2007a0c:	423e2984 	addi	r8,r8,-1882
 2007a10:	024fe074 	movhi	r9,16257
 2007a14:	4a444444 	addi	r9,r9,4369
 2007a18:	180b883a 	mov	r5,r3
 2007a1c:	480f883a 	mov	r7,r9
 2007a20:	1009883a 	mov	r4,r2
 2007a24:	400d883a 	mov	r6,r8
 2007a28:	20092800 	call	2009280 <__adddf3>
 2007a2c:	1021883a 	mov	r16,r2
 2007a30:	d8800617 	ldw	r2,24(sp)
 2007a34:	1823883a 	mov	r17,r3
 2007a38:	d8800015 	stw	r2,0(sp)
 2007a3c:	d8800717 	ldw	r2,28(sp)
 2007a40:	d8800115 	stw	r2,4(sp)
 2007a44:	d8801117 	ldw	r2,68(sp)
 2007a48:	10004126 	beq	r2,zero,2007b50 <__kernel_sin+0x2ac>
 2007a4c:	d9000417 	ldw	r4,16(sp)
 2007a50:	d9400517 	ldw	r5,20(sp)
 2007a54:	0005883a 	mov	r2,zero
 2007a58:	00cff834 	movhi	r3,16352
 2007a5c:	180f883a 	mov	r7,r3
 2007a60:	100d883a 	mov	r6,r2
 2007a64:	20092f40 	call	20092f4 <__muldf3>
 2007a68:	d9000017 	ldw	r4,0(sp)
 2007a6c:	d9400717 	ldw	r5,28(sp)
 2007a70:	800d883a 	mov	r6,r16
 2007a74:	880f883a 	mov	r7,r17
 2007a78:	1021883a 	mov	r16,r2
 2007a7c:	1823883a 	mov	r17,r3
 2007a80:	20092f40 	call	20092f4 <__muldf3>
 2007a84:	180f883a 	mov	r7,r3
 2007a88:	880b883a 	mov	r5,r17
 2007a8c:	8009883a 	mov	r4,r16
 2007a90:	100d883a 	mov	r6,r2
 2007a94:	20092000 	call	2009200 <__subdf3>
 2007a98:	d9000217 	ldw	r4,8(sp)
 2007a9c:	b80b883a 	mov	r5,r23
 2007aa0:	180f883a 	mov	r7,r3
 2007aa4:	100d883a 	mov	r6,r2
 2007aa8:	20092f40 	call	20092f4 <__muldf3>
 2007aac:	d9c00517 	ldw	r7,20(sp)
 2007ab0:	d9800417 	ldw	r6,16(sp)
 2007ab4:	180b883a 	mov	r5,r3
 2007ab8:	1009883a 	mov	r4,r2
 2007abc:	20092000 	call	2009200 <__subdf3>
 2007ac0:	d9000017 	ldw	r4,0(sp)
 2007ac4:	d9400717 	ldw	r5,28(sp)
 2007ac8:	02155574 	movhi	r8,21845
 2007acc:	42155244 	addi	r8,r8,21833
 2007ad0:	024ff174 	movhi	r9,16325
 2007ad4:	4a555544 	addi	r9,r9,21845
 2007ad8:	480f883a 	mov	r7,r9
 2007adc:	400d883a 	mov	r6,r8
 2007ae0:	1021883a 	mov	r16,r2
 2007ae4:	1823883a 	mov	r17,r3
 2007ae8:	20092f40 	call	20092f4 <__muldf3>
 2007aec:	180f883a 	mov	r7,r3
 2007af0:	880b883a 	mov	r5,r17
 2007af4:	8009883a 	mov	r4,r16
 2007af8:	100d883a 	mov	r6,r2
 2007afc:	20092800 	call	2009280 <__adddf3>
 2007b00:	180f883a 	mov	r7,r3
 2007b04:	a80b883a 	mov	r5,r21
 2007b08:	a009883a 	mov	r4,r20
 2007b0c:	100d883a 	mov	r6,r2
 2007b10:	20092000 	call	2009200 <__subdf3>
 2007b14:	1029883a 	mov	r20,r2
 2007b18:	182b883a 	mov	r21,r3
 2007b1c:	a005883a 	mov	r2,r20
 2007b20:	a807883a 	mov	r3,r21
 2007b24:	dfc01017 	ldw	ra,64(sp)
 2007b28:	ddc00f17 	ldw	r23,60(sp)
 2007b2c:	dd800e17 	ldw	r22,56(sp)
 2007b30:	dd400d17 	ldw	r21,52(sp)
 2007b34:	dd000c17 	ldw	r20,48(sp)
 2007b38:	dcc00b17 	ldw	r19,44(sp)
 2007b3c:	dc800a17 	ldw	r18,40(sp)
 2007b40:	dc400917 	ldw	r17,36(sp)
 2007b44:	dc000817 	ldw	r16,32(sp)
 2007b48:	dec01104 	addi	sp,sp,68
 2007b4c:	f800283a 	ret
 2007b50:	d9000217 	ldw	r4,8(sp)
 2007b54:	b80b883a 	mov	r5,r23
 2007b58:	800d883a 	mov	r6,r16
 2007b5c:	180f883a 	mov	r7,r3
 2007b60:	20092f40 	call	20092f4 <__muldf3>
 2007b64:	02155574 	movhi	r8,21845
 2007b68:	42155244 	addi	r8,r8,21833
 2007b6c:	024ff174 	movhi	r9,16325
 2007b70:	4a555544 	addi	r9,r9,21845
 2007b74:	480f883a 	mov	r7,r9
 2007b78:	400d883a 	mov	r6,r8
 2007b7c:	180b883a 	mov	r5,r3
 2007b80:	1009883a 	mov	r4,r2
 2007b84:	20092000 	call	2009200 <__subdf3>
 2007b88:	d9000017 	ldw	r4,0(sp)
 2007b8c:	d9400717 	ldw	r5,28(sp)
 2007b90:	180f883a 	mov	r7,r3
 2007b94:	100d883a 	mov	r6,r2
 2007b98:	20092f40 	call	20092f4 <__muldf3>
 2007b9c:	180f883a 	mov	r7,r3
 2007ba0:	a80b883a 	mov	r5,r21
 2007ba4:	a009883a 	mov	r4,r20
 2007ba8:	100d883a 	mov	r6,r2
 2007bac:	20092800 	call	2009280 <__adddf3>
 2007bb0:	1029883a 	mov	r20,r2
 2007bb4:	182b883a 	mov	r21,r3
 2007bb8:	003fd806 	br	2007b1c <__kernel_sin+0x278>

02007bbc <atan>:
 2007bbc:	defff304 	addi	sp,sp,-52
 2007bc0:	00a00034 	movhi	r2,32768
 2007bc4:	10bfffc4 	addi	r2,r2,-1
 2007bc8:	dc000315 	stw	r16,12(sp)
 2007bcc:	28a0703a 	and	r16,r5,r2
 2007bd0:	00910434 	movhi	r2,17424
 2007bd4:	10bfffc4 	addi	r2,r2,-1
 2007bd8:	df000b15 	stw	fp,44(sp)
 2007bdc:	dfc00c15 	stw	ra,48(sp)
 2007be0:	ddc00a15 	stw	r23,40(sp)
 2007be4:	dd800915 	stw	r22,36(sp)
 2007be8:	dd400815 	stw	r21,32(sp)
 2007bec:	dd000715 	stw	r20,28(sp)
 2007bf0:	dcc00615 	stw	r19,24(sp)
 2007bf4:	dc800515 	stw	r18,20(sp)
 2007bf8:	dc400415 	stw	r17,16(sp)
 2007bfc:	d9000115 	stw	r4,4(sp)
 2007c00:	d9400215 	stw	r5,8(sp)
 2007c04:	2839883a 	mov	fp,r5
 2007c08:	1400190e 	bge	r2,r16,2007c70 <atan+0xb4>
 2007c0c:	2005883a 	mov	r2,r4
 2007c10:	011ffc34 	movhi	r4,32752
 2007c14:	2400eb0e 	bge	r4,r16,2007fc4 <atan+0x408>
 2007c18:	d9000117 	ldw	r4,4(sp)
 2007c1c:	d9c00217 	ldw	r7,8(sp)
 2007c20:	200d883a 	mov	r6,r4
 2007c24:	20092800 	call	2009280 <__adddf3>
 2007c28:	d8800115 	stw	r2,4(sp)
 2007c2c:	d8c00215 	stw	r3,8(sp)
 2007c30:	d9000117 	ldw	r4,4(sp)
 2007c34:	2005883a 	mov	r2,r4
 2007c38:	d9000217 	ldw	r4,8(sp)
 2007c3c:	2007883a 	mov	r3,r4
 2007c40:	dfc00c17 	ldw	ra,48(sp)
 2007c44:	df000b17 	ldw	fp,44(sp)
 2007c48:	ddc00a17 	ldw	r23,40(sp)
 2007c4c:	dd800917 	ldw	r22,36(sp)
 2007c50:	dd400817 	ldw	r21,32(sp)
 2007c54:	dd000717 	ldw	r20,28(sp)
 2007c58:	dcc00617 	ldw	r19,24(sp)
 2007c5c:	dc800517 	ldw	r18,20(sp)
 2007c60:	dc400417 	ldw	r17,16(sp)
 2007c64:	dc000317 	ldw	r16,12(sp)
 2007c68:	dec00d04 	addi	sp,sp,52
 2007c6c:	f800283a 	ret
 2007c70:	008ff734 	movhi	r2,16348
 2007c74:	10bfffc4 	addi	r2,r2,-1
 2007c78:	1400ec16 	blt	r2,r16,200802c <atan+0x470>
 2007c7c:	008f8834 	movhi	r2,15904
 2007c80:	10bfffc4 	addi	r2,r2,-1
 2007c84:	1400d80e 	bge	r2,r16,2007fe8 <atan+0x42c>
 2007c88:	00bfffc4 	movi	r2,-1
 2007c8c:	d8800015 	stw	r2,0(sp)
 2007c90:	d9000117 	ldw	r4,4(sp)
 2007c94:	d9400217 	ldw	r5,8(sp)
 2007c98:	200d883a 	mov	r6,r4
 2007c9c:	280f883a 	mov	r7,r5
 2007ca0:	20092f40 	call	20092f4 <__muldf3>
 2007ca4:	1009883a 	mov	r4,r2
 2007ca8:	180b883a 	mov	r5,r3
 2007cac:	100d883a 	mov	r6,r2
 2007cb0:	180f883a 	mov	r7,r3
 2007cb4:	1025883a 	mov	r18,r2
 2007cb8:	1827883a 	mov	r19,r3
 2007cbc:	20092f40 	call	20092f4 <__muldf3>
 2007cc0:	1021883a 	mov	r16,r2
 2007cc4:	1823883a 	mov	r17,r3
 2007cc8:	00b8c8f4 	movhi	r2,58147
 2007ccc:	10b68444 	addi	r2,r2,-9711
 2007cd0:	00cfe474 	movhi	r3,16273
 2007cd4:	18eb4e84 	addi	r3,r3,-21190
 2007cd8:	180f883a 	mov	r7,r3
 2007cdc:	8009883a 	mov	r4,r16
 2007ce0:	880b883a 	mov	r5,r17
 2007ce4:	100d883a 	mov	r6,r2
 2007ce8:	20092f40 	call	20092f4 <__muldf3>
 2007cec:	02091db4 	movhi	r8,9334
 2007cf0:	42037ac4 	addi	r8,r8,3563
 2007cf4:	024fea74 	movhi	r9,16297
 2007cf8:	4a5ed2c4 	addi	r9,r9,31563
 2007cfc:	480f883a 	mov	r7,r9
 2007d00:	400d883a 	mov	r6,r8
 2007d04:	180b883a 	mov	r5,r3
 2007d08:	1009883a 	mov	r4,r2
 2007d0c:	20092800 	call	2009280 <__adddf3>
 2007d10:	180f883a 	mov	r7,r3
 2007d14:	8009883a 	mov	r4,r16
 2007d18:	880b883a 	mov	r5,r17
 2007d1c:	100d883a 	mov	r6,r2
 2007d20:	20092f40 	call	20092f4 <__muldf3>
 2007d24:	02283434 	movhi	r8,41168
 2007d28:	420f5444 	addi	r8,r8,15697
 2007d2c:	024fec74 	movhi	r9,16305
 2007d30:	4a435984 	addi	r9,r9,3430
 2007d34:	480f883a 	mov	r7,r9
 2007d38:	400d883a 	mov	r6,r8
 2007d3c:	180b883a 	mov	r5,r3
 2007d40:	1009883a 	mov	r4,r2
 2007d44:	20092800 	call	2009280 <__adddf3>
 2007d48:	180f883a 	mov	r7,r3
 2007d4c:	8009883a 	mov	r4,r16
 2007d50:	880b883a 	mov	r5,r17
 2007d54:	100d883a 	mov	r6,r2
 2007d58:	20092f40 	call	20092f4 <__muldf3>
 2007d5c:	02315334 	movhi	r8,50508
 2007d60:	42081b84 	addi	r8,r8,8302
 2007d64:	024fedf4 	movhi	r9,16311
 2007d68:	4a517344 	addi	r9,r9,17869
 2007d6c:	480f883a 	mov	r7,r9
 2007d70:	400d883a 	mov	r6,r8
 2007d74:	180b883a 	mov	r5,r3
 2007d78:	1009883a 	mov	r4,r2
 2007d7c:	20092800 	call	2009280 <__adddf3>
 2007d80:	180f883a 	mov	r7,r3
 2007d84:	8009883a 	mov	r4,r16
 2007d88:	880b883a 	mov	r5,r17
 2007d8c:	100d883a 	mov	r6,r2
 2007d90:	20092f40 	call	20092f4 <__muldf3>
 2007d94:	02248074 	movhi	r8,37377
 2007d98:	4220ffc4 	addi	r8,r8,-31745
 2007d9c:	024ff0b4 	movhi	r9,16322
 2007da0:	4a524904 	addi	r9,r9,18724
 2007da4:	480f883a 	mov	r7,r9
 2007da8:	400d883a 	mov	r6,r8
 2007dac:	180b883a 	mov	r5,r3
 2007db0:	1009883a 	mov	r4,r2
 2007db4:	20092800 	call	2009280 <__adddf3>
 2007db8:	180f883a 	mov	r7,r3
 2007dbc:	8009883a 	mov	r4,r16
 2007dc0:	880b883a 	mov	r5,r17
 2007dc4:	100d883a 	mov	r6,r2
 2007dc8:	20092f40 	call	20092f4 <__muldf3>
 2007dcc:	02155574 	movhi	r8,21845
 2007dd0:	42154344 	addi	r8,r8,21773
 2007dd4:	024ff574 	movhi	r9,16341
 2007dd8:	4a555544 	addi	r9,r9,21845
 2007ddc:	480f883a 	mov	r7,r9
 2007de0:	400d883a 	mov	r6,r8
 2007de4:	180b883a 	mov	r5,r3
 2007de8:	1009883a 	mov	r4,r2
 2007dec:	20092800 	call	2009280 <__adddf3>
 2007df0:	180f883a 	mov	r7,r3
 2007df4:	9009883a 	mov	r4,r18
 2007df8:	980b883a 	mov	r5,r19
 2007dfc:	100d883a 	mov	r6,r2
 2007e00:	20092f40 	call	20092f4 <__muldf3>
 2007e04:	020b1ab4 	movhi	r8,11370
 2007e08:	421b0bc4 	addi	r8,r8,27695
 2007e0c:	026fe8f4 	movhi	r9,49059
 2007e10:	4a6d1104 	addi	r9,r9,-19388
 2007e14:	480f883a 	mov	r7,r9
 2007e18:	400d883a 	mov	r6,r8
 2007e1c:	8009883a 	mov	r4,r16
 2007e20:	880b883a 	mov	r5,r17
 2007e24:	102d883a 	mov	r22,r2
 2007e28:	182f883a 	mov	r23,r3
 2007e2c:	20092f40 	call	20092f4 <__muldf3>
 2007e30:	0214b7f4 	movhi	r8,21215
 2007e34:	423f6684 	addi	r8,r8,-614
 2007e38:	024febb4 	movhi	r9,16302
 2007e3c:	4a778b44 	addi	r9,r9,-8659
 2007e40:	480f883a 	mov	r7,r9
 2007e44:	400d883a 	mov	r6,r8
 2007e48:	180b883a 	mov	r5,r3
 2007e4c:	1009883a 	mov	r4,r2
 2007e50:	20092000 	call	2009200 <__subdf3>
 2007e54:	180f883a 	mov	r7,r3
 2007e58:	8009883a 	mov	r4,r16
 2007e5c:	880b883a 	mov	r5,r17
 2007e60:	100d883a 	mov	r6,r2
 2007e64:	20092f40 	call	20092f4 <__muldf3>
 2007e68:	022bdd74 	movhi	r8,44917
 2007e6c:	42269b44 	addi	r8,r8,-26003
 2007e70:	024fed34 	movhi	r9,16308
 2007e74:	4a6c3c84 	addi	r9,r9,-20238
 2007e78:	480f883a 	mov	r7,r9
 2007e7c:	400d883a 	mov	r6,r8
 2007e80:	180b883a 	mov	r5,r3
 2007e84:	1009883a 	mov	r4,r2
 2007e88:	20092000 	call	2009200 <__subdf3>
 2007e8c:	180f883a 	mov	r7,r3
 2007e90:	8009883a 	mov	r4,r16
 2007e94:	880b883a 	mov	r5,r17
 2007e98:	100d883a 	mov	r6,r2
 2007e9c:	20092f40 	call	20092f4 <__muldf3>
 2007ea0:	023f88f4 	movhi	r8,65059
 2007ea4:	42059c44 	addi	r8,r8,5745
 2007ea8:	024fef34 	movhi	r9,16316
 2007eac:	4a5c7184 	addi	r9,r9,29126
 2007eb0:	480f883a 	mov	r7,r9
 2007eb4:	400d883a 	mov	r6,r8
 2007eb8:	180b883a 	mov	r5,r3
 2007ebc:	1009883a 	mov	r4,r2
 2007ec0:	20092000 	call	2009200 <__subdf3>
 2007ec4:	180f883a 	mov	r7,r3
 2007ec8:	8009883a 	mov	r4,r16
 2007ecc:	880b883a 	mov	r5,r17
 2007ed0:	100d883a 	mov	r6,r2
 2007ed4:	20092f40 	call	20092f4 <__muldf3>
 2007ed8:	02266674 	movhi	r8,39321
 2007edc:	423af104 	addi	r8,r8,-5180
 2007ee0:	024ff2b4 	movhi	r9,16330
 2007ee4:	4a666644 	addi	r9,r9,-26215
 2007ee8:	480f883a 	mov	r7,r9
 2007eec:	400d883a 	mov	r6,r8
 2007ef0:	180b883a 	mov	r5,r3
 2007ef4:	1009883a 	mov	r4,r2
 2007ef8:	20092000 	call	2009200 <__subdf3>
 2007efc:	180f883a 	mov	r7,r3
 2007f00:	8009883a 	mov	r4,r16
 2007f04:	880b883a 	mov	r5,r17
 2007f08:	100d883a 	mov	r6,r2
 2007f0c:	20092f40 	call	20092f4 <__muldf3>
 2007f10:	100f883a 	mov	r7,r2
 2007f14:	d8800017 	ldw	r2,0(sp)
 2007f18:	b009883a 	mov	r4,r22
 2007f1c:	b80b883a 	mov	r5,r23
 2007f20:	10006b16 	blt	r2,zero,20080d0 <atan+0x514>
 2007f24:	d8800017 	ldw	r2,0(sp)
 2007f28:	380d883a 	mov	r6,r7
 2007f2c:	b80b883a 	mov	r5,r23
 2007f30:	102490fa 	slli	r18,r2,3
 2007f34:	00808074 	movhi	r2,513
 2007f38:	10ba2104 	addi	r2,r2,-6012
 2007f3c:	180f883a 	mov	r7,r3
 2007f40:	9085883a 	add	r2,r18,r2
 2007f44:	14000017 	ldw	r16,0(r2)
 2007f48:	14400117 	ldw	r17,4(r2)
 2007f4c:	20092800 	call	2009280 <__adddf3>
 2007f50:	d9000117 	ldw	r4,4(sp)
 2007f54:	d9400217 	ldw	r5,8(sp)
 2007f58:	180f883a 	mov	r7,r3
 2007f5c:	100d883a 	mov	r6,r2
 2007f60:	20092f40 	call	20092f4 <__muldf3>
 2007f64:	01008074 	movhi	r4,513
 2007f68:	213a2904 	addi	r4,r4,-5980
 2007f6c:	9125883a 	add	r18,r18,r4
 2007f70:	92000017 	ldw	r8,0(r18)
 2007f74:	92400117 	ldw	r9,4(r18)
 2007f78:	180b883a 	mov	r5,r3
 2007f7c:	400d883a 	mov	r6,r8
 2007f80:	480f883a 	mov	r7,r9
 2007f84:	1009883a 	mov	r4,r2
 2007f88:	20092000 	call	2009200 <__subdf3>
 2007f8c:	d9c00217 	ldw	r7,8(sp)
 2007f90:	d9800117 	ldw	r6,4(sp)
 2007f94:	180b883a 	mov	r5,r3
 2007f98:	1009883a 	mov	r4,r2
 2007f9c:	20092000 	call	2009200 <__subdf3>
 2007fa0:	180f883a 	mov	r7,r3
 2007fa4:	880b883a 	mov	r5,r17
 2007fa8:	8009883a 	mov	r4,r16
 2007fac:	100d883a 	mov	r6,r2
 2007fb0:	20092000 	call	2009200 <__subdf3>
 2007fb4:	e0003f16 	blt	fp,zero,20080b4 <atan+0x4f8>
 2007fb8:	d8800115 	stw	r2,4(sp)
 2007fbc:	d8c00215 	stw	r3,8(sp)
 2007fc0:	003f1b06 	br	2007c30 <atan+0x74>
 2007fc4:	81003f26 	beq	r16,r4,20080c4 <atan+0x508>
 2007fc8:	07005e0e 	bge	zero,fp,2008144 <atan+0x588>
 2007fcc:	01151134 	movhi	r4,21572
 2007fd0:	210b4604 	addi	r4,r4,11544
 2007fd4:	008ffe74 	movhi	r2,16377
 2007fd8:	10887ec4 	addi	r2,r2,8699
 2007fdc:	d9000115 	stw	r4,4(sp)
 2007fe0:	d8800215 	stw	r2,8(sp)
 2007fe4:	003f1206 	br	2007c30 <atan+0x74>
 2007fe8:	d9000117 	ldw	r4,4(sp)
 2007fec:	00a20034 	movhi	r2,34816
 2007ff0:	109d6704 	addi	r2,r2,30108
 2007ff4:	00df8e34 	movhi	r3,32312
 2007ff8:	18f90f04 	addi	r3,r3,-7108
 2007ffc:	180f883a 	mov	r7,r3
 2008000:	100d883a 	mov	r6,r2
 2008004:	20092800 	call	2009280 <__adddf3>
 2008008:	0011883a 	mov	r8,zero
 200800c:	024ffc34 	movhi	r9,16368
 2008010:	180b883a 	mov	r5,r3
 2008014:	480f883a 	mov	r7,r9
 2008018:	1009883a 	mov	r4,r2
 200801c:	400d883a 	mov	r6,r8
 2008020:	20099980 	call	2009998 <__gtdf2>
 2008024:	00bf0216 	blt	zero,r2,2007c30 <atan+0x74>
 2008028:	003f1706 	br	2007c88 <atan+0xcc>
 200802c:	d9000117 	ldw	r4,4(sp)
 2008030:	20082540 	call	2008254 <fabs>
 2008034:	102d883a 	mov	r22,r2
 2008038:	008ffcf4 	movhi	r2,16371
 200803c:	10bfffc4 	addi	r2,r2,-1
 2008040:	182f883a 	mov	r23,r3
 2008044:	14003016 	blt	r2,r16,2008108 <atan+0x54c>
 2008048:	008ff9b4 	movhi	r2,16358
 200804c:	10bfffc4 	addi	r2,r2,-1
 2008050:	1400430e 	bge	r2,r16,2008160 <atan+0x5a4>
 2008054:	044ffc34 	movhi	r17,16368
 2008058:	0021883a 	mov	r16,zero
 200805c:	800d883a 	mov	r6,r16
 2008060:	880f883a 	mov	r7,r17
 2008064:	b009883a 	mov	r4,r22
 2008068:	180b883a 	mov	r5,r3
 200806c:	20092000 	call	2009200 <__subdf3>
 2008070:	880f883a 	mov	r7,r17
 2008074:	000d883a 	mov	r6,zero
 2008078:	b80b883a 	mov	r5,r23
 200807c:	b009883a 	mov	r4,r22
 2008080:	1021883a 	mov	r16,r2
 2008084:	1823883a 	mov	r17,r3
 2008088:	20092800 	call	2009280 <__adddf3>
 200808c:	180f883a 	mov	r7,r3
 2008090:	8009883a 	mov	r4,r16
 2008094:	880b883a 	mov	r5,r17
 2008098:	100d883a 	mov	r6,r2
 200809c:	20096b80 	call	20096b8 <__divdf3>
 20080a0:	01000044 	movi	r4,1
 20080a4:	d8800115 	stw	r2,4(sp)
 20080a8:	d8c00215 	stw	r3,8(sp)
 20080ac:	d9000015 	stw	r4,0(sp)
 20080b0:	003ef706 	br	2007c90 <atan+0xd4>
 20080b4:	18e0003c 	xorhi	r3,r3,32768
 20080b8:	d8800115 	stw	r2,4(sp)
 20080bc:	d8c00215 	stw	r3,8(sp)
 20080c0:	003edb06 	br	2007c30 <atan+0x74>
 20080c4:	103ed41e 	bne	r2,zero,2007c18 <atan+0x5c>
 20080c8:	073fc016 	blt	zero,fp,2007fcc <atan+0x410>
 20080cc:	00001d06 	br	2008144 <atan+0x588>
 20080d0:	380d883a 	mov	r6,r7
 20080d4:	180f883a 	mov	r7,r3
 20080d8:	20092800 	call	2009280 <__adddf3>
 20080dc:	d9000117 	ldw	r4,4(sp)
 20080e0:	d9400217 	ldw	r5,8(sp)
 20080e4:	180f883a 	mov	r7,r3
 20080e8:	100d883a 	mov	r6,r2
 20080ec:	20092f40 	call	20092f4 <__muldf3>
 20080f0:	d9400217 	ldw	r5,8(sp)
 20080f4:	d9000117 	ldw	r4,4(sp)
 20080f8:	180f883a 	mov	r7,r3
 20080fc:	100d883a 	mov	r6,r2
 2008100:	20092000 	call	2009200 <__subdf3>
 2008104:	003ec806 	br	2007c28 <atan+0x6c>
 2008108:	009000f4 	movhi	r2,16387
 200810c:	109fffc4 	addi	r2,r2,32767
 2008110:	1400310e 	bge	r2,r16,20081d8 <atan+0x61c>
 2008114:	0005883a 	mov	r2,zero
 2008118:	00effc34 	movhi	r3,49136
 200811c:	1009883a 	mov	r4,r2
 2008120:	180b883a 	mov	r5,r3
 2008124:	b80f883a 	mov	r7,r23
 2008128:	b00d883a 	mov	r6,r22
 200812c:	20096b80 	call	20096b8 <__divdf3>
 2008130:	010000c4 	movi	r4,3
 2008134:	d8800115 	stw	r2,4(sp)
 2008138:	d8c00215 	stw	r3,8(sp)
 200813c:	d9000015 	stw	r4,0(sp)
 2008140:	003ed306 	br	2007c90 <atan+0xd4>
 2008144:	01151134 	movhi	r4,21572
 2008148:	210b4604 	addi	r4,r4,11544
 200814c:	00affe74 	movhi	r2,49145
 2008150:	10887ec4 	addi	r2,r2,8699
 2008154:	d9000115 	stw	r4,4(sp)
 2008158:	d8800215 	stw	r2,8(sp)
 200815c:	003eb406 	br	2007c30 <atan+0x74>
 2008160:	b009883a 	mov	r4,r22
 2008164:	180b883a 	mov	r5,r3
 2008168:	b00d883a 	mov	r6,r22
 200816c:	180f883a 	mov	r7,r3
 2008170:	20092800 	call	2009280 <__adddf3>
 2008174:	0011883a 	mov	r8,zero
 2008178:	024ffc34 	movhi	r9,16368
 200817c:	480f883a 	mov	r7,r9
 2008180:	400d883a 	mov	r6,r8
 2008184:	180b883a 	mov	r5,r3
 2008188:	1009883a 	mov	r4,r2
 200818c:	20092000 	call	2009200 <__subdf3>
 2008190:	0011883a 	mov	r8,zero
 2008194:	02500034 	movhi	r9,16384
 2008198:	480f883a 	mov	r7,r9
 200819c:	400d883a 	mov	r6,r8
 20081a0:	b80b883a 	mov	r5,r23
 20081a4:	b009883a 	mov	r4,r22
 20081a8:	1021883a 	mov	r16,r2
 20081ac:	1823883a 	mov	r17,r3
 20081b0:	20092800 	call	2009280 <__adddf3>
 20081b4:	180f883a 	mov	r7,r3
 20081b8:	880b883a 	mov	r5,r17
 20081bc:	8009883a 	mov	r4,r16
 20081c0:	100d883a 	mov	r6,r2
 20081c4:	20096b80 	call	20096b8 <__divdf3>
 20081c8:	d8800115 	stw	r2,4(sp)
 20081cc:	d8c00215 	stw	r3,8(sp)
 20081d0:	d8000015 	stw	zero,0(sp)
 20081d4:	003eae06 	br	2007c90 <atan+0xd4>
 20081d8:	044ffe34 	movhi	r17,16376
 20081dc:	0021883a 	mov	r16,zero
 20081e0:	800d883a 	mov	r6,r16
 20081e4:	880f883a 	mov	r7,r17
 20081e8:	b009883a 	mov	r4,r22
 20081ec:	180b883a 	mov	r5,r3
 20081f0:	20092000 	call	2009200 <__subdf3>
 20081f4:	880f883a 	mov	r7,r17
 20081f8:	000d883a 	mov	r6,zero
 20081fc:	b80b883a 	mov	r5,r23
 2008200:	b009883a 	mov	r4,r22
 2008204:	1021883a 	mov	r16,r2
 2008208:	1823883a 	mov	r17,r3
 200820c:	20092f40 	call	20092f4 <__muldf3>
 2008210:	0011883a 	mov	r8,zero
 2008214:	024ffc34 	movhi	r9,16368
 2008218:	480f883a 	mov	r7,r9
 200821c:	400d883a 	mov	r6,r8
 2008220:	180b883a 	mov	r5,r3
 2008224:	1009883a 	mov	r4,r2
 2008228:	20092800 	call	2009280 <__adddf3>
 200822c:	180f883a 	mov	r7,r3
 2008230:	8009883a 	mov	r4,r16
 2008234:	880b883a 	mov	r5,r17
 2008238:	100d883a 	mov	r6,r2
 200823c:	20096b80 	call	20096b8 <__divdf3>
 2008240:	01000084 	movi	r4,2
 2008244:	d8800115 	stw	r2,4(sp)
 2008248:	d8c00215 	stw	r3,8(sp)
 200824c:	d9000015 	stw	r4,0(sp)
 2008250:	003e8f06 	br	2007c90 <atan+0xd4>

02008254 <fabs>:
 2008254:	01e00034 	movhi	r7,32768
 2008258:	39ffffc4 	addi	r7,r7,-1
 200825c:	394e703a 	and	r7,r7,r5
 2008260:	2005883a 	mov	r2,r4
 2008264:	3807883a 	mov	r3,r7
 2008268:	f800283a 	ret

0200826c <floor>:
 200826c:	2805d53a 	srai	r2,r5,20
 2008270:	defff604 	addi	sp,sp,-40
 2008274:	dd800615 	stw	r22,24(sp)
 2008278:	10c1ffcc 	andi	r3,r2,2047
 200827c:	1dbf0044 	addi	r22,r3,-1023
 2008280:	008004c4 	movi	r2,19
 2008284:	ddc00715 	stw	r23,28(sp)
 2008288:	dc800215 	stw	r18,8(sp)
 200828c:	dc400115 	stw	r17,4(sp)
 2008290:	dc000015 	stw	r16,0(sp)
 2008294:	dfc00915 	stw	ra,36(sp)
 2008298:	df000815 	stw	fp,32(sp)
 200829c:	dd400515 	stw	r21,20(sp)
 20082a0:	dd000415 	stw	r20,16(sp)
 20082a4:	dcc00315 	stw	r19,12(sp)
 20082a8:	2021883a 	mov	r16,r4
 20082ac:	2823883a 	mov	r17,r5
 20082b0:	282f883a 	mov	r23,r5
 20082b4:	2025883a 	mov	r18,r4
 20082b8:	15802916 	blt	r2,r22,2008360 <floor+0xf4>
 20082bc:	b0004816 	blt	r22,zero,20083e0 <floor+0x174>
 20082c0:	00800434 	movhi	r2,16
 20082c4:	10bfffc4 	addi	r2,r2,-1
 20082c8:	15b9d83a 	sra	fp,r2,r22
 20082cc:	282f883a 	mov	r23,r5
 20082d0:	e144703a 	and	r2,fp,r5
 20082d4:	1104b03a 	or	r2,r2,r4
 20082d8:	10001326 	beq	r2,zero,2008328 <floor+0xbc>
 20082dc:	00a20034 	movhi	r2,34816
 20082e0:	109d6704 	addi	r2,r2,30108
 20082e4:	00df8e34 	movhi	r3,32312
 20082e8:	18f90f04 	addi	r3,r3,-7108
 20082ec:	180f883a 	mov	r7,r3
 20082f0:	100d883a 	mov	r6,r2
 20082f4:	20092800 	call	2009280 <__adddf3>
 20082f8:	180b883a 	mov	r5,r3
 20082fc:	000d883a 	mov	r6,zero
 2008300:	000f883a 	mov	r7,zero
 2008304:	1009883a 	mov	r4,r2
 2008308:	20099980 	call	2009998 <__gtdf2>
 200830c:	0080040e 	bge	zero,r2,2008320 <floor+0xb4>
 2008310:	88004416 	blt	r17,zero,2008424 <floor+0x1b8>
 2008314:	0704303a 	nor	r2,zero,fp
 2008318:	b8ae703a 	and	r23,r23,r2
 200831c:	0025883a 	mov	r18,zero
 2008320:	9021883a 	mov	r16,r18
 2008324:	b823883a 	mov	r17,r23
 2008328:	8005883a 	mov	r2,r16
 200832c:	8807883a 	mov	r3,r17
 2008330:	dfc00917 	ldw	ra,36(sp)
 2008334:	df000817 	ldw	fp,32(sp)
 2008338:	ddc00717 	ldw	r23,28(sp)
 200833c:	dd800617 	ldw	r22,24(sp)
 2008340:	dd400517 	ldw	r21,20(sp)
 2008344:	dd000417 	ldw	r20,16(sp)
 2008348:	dcc00317 	ldw	r19,12(sp)
 200834c:	dc800217 	ldw	r18,8(sp)
 2008350:	dc400117 	ldw	r17,4(sp)
 2008354:	dc000017 	ldw	r16,0(sp)
 2008358:	dec00a04 	addi	sp,sp,40
 200835c:	f800283a 	ret
 2008360:	00800cc4 	movi	r2,51
 2008364:	15801616 	blt	r2,r22,20083c0 <floor+0x154>
 2008368:	18befb44 	addi	r2,r3,-1043
 200836c:	00ffffc4 	movi	r3,-1
 2008370:	18b8d83a 	srl	fp,r3,r2
 2008374:	e104703a 	and	r2,fp,r4
 2008378:	103feb26 	beq	r2,zero,2008328 <floor+0xbc>
 200837c:	00a20034 	movhi	r2,34816
 2008380:	109d6704 	addi	r2,r2,30108
 2008384:	00df8e34 	movhi	r3,32312
 2008388:	18f90f04 	addi	r3,r3,-7108
 200838c:	180f883a 	mov	r7,r3
 2008390:	100d883a 	mov	r6,r2
 2008394:	20092800 	call	2009280 <__adddf3>
 2008398:	180b883a 	mov	r5,r3
 200839c:	000d883a 	mov	r6,zero
 20083a0:	000f883a 	mov	r7,zero
 20083a4:	1009883a 	mov	r4,r2
 20083a8:	20099980 	call	2009998 <__gtdf2>
 20083ac:	0080210e 	bge	zero,r2,2008434 <floor+0x1c8>
 20083b0:	88002216 	blt	r17,zero,200843c <floor+0x1d0>
 20083b4:	0704303a 	nor	r2,zero,fp
 20083b8:	90a4703a 	and	r18,r18,r2
 20083bc:	003fd806 	br	2008320 <floor+0xb4>
 20083c0:	00810004 	movi	r2,1024
 20083c4:	b0bfd81e 	bne	r22,r2,2008328 <floor+0xbc>
 20083c8:	800d883a 	mov	r6,r16
 20083cc:	280f883a 	mov	r7,r5
 20083d0:	20092800 	call	2009280 <__adddf3>
 20083d4:	1021883a 	mov	r16,r2
 20083d8:	1823883a 	mov	r17,r3
 20083dc:	003fd206 	br	2008328 <floor+0xbc>
 20083e0:	00a20034 	movhi	r2,34816
 20083e4:	109d6704 	addi	r2,r2,30108
 20083e8:	00df8e34 	movhi	r3,32312
 20083ec:	18f90f04 	addi	r3,r3,-7108
 20083f0:	180f883a 	mov	r7,r3
 20083f4:	100d883a 	mov	r6,r2
 20083f8:	20092800 	call	2009280 <__adddf3>
 20083fc:	180b883a 	mov	r5,r3
 2008400:	000d883a 	mov	r6,zero
 2008404:	000f883a 	mov	r7,zero
 2008408:	1009883a 	mov	r4,r2
 200840c:	20099980 	call	2009998 <__gtdf2>
 2008410:	00bfc30e 	bge	zero,r2,2008320 <floor+0xb4>
 2008414:	88001416 	blt	r17,zero,2008468 <floor+0x1fc>
 2008418:	002f883a 	mov	r23,zero
 200841c:	0025883a 	mov	r18,zero
 2008420:	003fbf06 	br	2008320 <floor+0xb4>
 2008424:	00800434 	movhi	r2,16
 2008428:	1585d83a 	sra	r2,r2,r22
 200842c:	88af883a 	add	r23,r17,r2
 2008430:	003fb806 	br	2008314 <floor+0xa8>
 2008434:	882f883a 	mov	r23,r17
 2008438:	003fb906 	br	2008320 <floor+0xb4>
 200843c:	00800504 	movi	r2,20
 2008440:	b0801126 	beq	r22,r2,2008488 <floor+0x21c>
 2008444:	00c00d04 	movi	r3,52
 2008448:	1d87c83a 	sub	r3,r3,r22
 200844c:	00800044 	movi	r2,1
 2008450:	10c4983a 	sll	r2,r2,r3
 2008454:	8085883a 	add	r2,r16,r2
 2008458:	1400012e 	bgeu	r2,r16,2008460 <floor+0x1f4>
 200845c:	8dc00044 	addi	r23,r17,1
 2008460:	1025883a 	mov	r18,r2
 2008464:	003fd306 	br	20083b4 <floor+0x148>
 2008468:	00a00034 	movhi	r2,32768
 200846c:	10bfffc4 	addi	r2,r2,-1
 2008470:	8884703a 	and	r2,r17,r2
 2008474:	8084b03a 	or	r2,r16,r2
 2008478:	103fee26 	beq	r2,zero,2008434 <floor+0x1c8>
 200847c:	05effc34 	movhi	r23,49136
 2008480:	0025883a 	mov	r18,zero
 2008484:	003fa606 	br	2008320 <floor+0xb4>
 2008488:	8dc00044 	addi	r23,r17,1
 200848c:	003fc906 	br	20083b4 <floor+0x148>

02008490 <__isnand>:
 2008490:	200d883a 	mov	r6,r4
 2008494:	0109c83a 	sub	r4,zero,r4
 2008498:	2188b03a 	or	r4,r4,r6
 200849c:	2008d7fa 	srli	r4,r4,31
 20084a0:	00a00034 	movhi	r2,32768
 20084a4:	10bfffc4 	addi	r2,r2,-1
 20084a8:	1144703a 	and	r2,r2,r5
 20084ac:	2088b03a 	or	r4,r4,r2
 20084b0:	009ffc34 	movhi	r2,32752
 20084b4:	1105c83a 	sub	r2,r2,r4
 20084b8:	1004d7fa 	srli	r2,r2,31
 20084bc:	f800283a 	ret

020084c0 <matherr>:
 20084c0:	0005883a 	mov	r2,zero
 20084c4:	f800283a 	ret

020084c8 <nan>:
 20084c8:	015ffe34 	movhi	r5,32760
 20084cc:	0005883a 	mov	r2,zero
 20084d0:	2807883a 	mov	r3,r5
 20084d4:	f800283a 	ret

020084d8 <scalbn>:
 20084d8:	2011883a 	mov	r8,r4
 20084dc:	291ffc2c 	andhi	r4,r5,32752
 20084e0:	2009d53a 	srai	r4,r4,20
 20084e4:	defffd04 	addi	sp,sp,-12
 20084e8:	dc000015 	stw	r16,0(sp)
 20084ec:	dfc00215 	stw	ra,8(sp)
 20084f0:	dc400115 	stw	r17,4(sp)
 20084f4:	2813883a 	mov	r9,r5
 20084f8:	2815883a 	mov	r10,r5
 20084fc:	3021883a 	mov	r16,r6
 2008500:	2000281e 	bne	r4,zero,20085a4 <scalbn+0xcc>
 2008504:	00a00034 	movhi	r2,32768
 2008508:	10bfffc4 	addi	r2,r2,-1
 200850c:	2884703a 	and	r2,r5,r2
 2008510:	4084b03a 	or	r2,r8,r2
 2008514:	10001826 	beq	r2,zero,2008578 <scalbn+0xa0>
 2008518:	0005883a 	mov	r2,zero
 200851c:	00d0d434 	movhi	r3,17232
 2008520:	4009883a 	mov	r4,r8
 2008524:	100d883a 	mov	r6,r2
 2008528:	180f883a 	mov	r7,r3
 200852c:	20092f40 	call	20092f4 <__muldf3>
 2008530:	100b883a 	mov	r5,r2
 2008534:	1011883a 	mov	r8,r2
 2008538:	00bffff4 	movhi	r2,65535
 200853c:	108f2c04 	addi	r2,r2,15536
 2008540:	180d883a 	mov	r6,r3
 2008544:	1813883a 	mov	r9,r3
 2008548:	8080120e 	bge	r16,r2,2008594 <scalbn+0xbc>
 200854c:	00b0be74 	movhi	r2,49913
 2008550:	10bcd644 	addi	r2,r2,-3239
 2008554:	00c06974 	movhi	r3,421
 2008558:	18db87c4 	addi	r3,r3,28191
 200855c:	2809883a 	mov	r4,r5
 2008560:	180f883a 	mov	r7,r3
 2008564:	300b883a 	mov	r5,r6
 2008568:	100d883a 	mov	r6,r2
 200856c:	20092f40 	call	20092f4 <__muldf3>
 2008570:	1011883a 	mov	r8,r2
 2008574:	1813883a 	mov	r9,r3
 2008578:	4005883a 	mov	r2,r8
 200857c:	4807883a 	mov	r3,r9
 2008580:	dfc00217 	ldw	ra,8(sp)
 2008584:	dc400117 	ldw	r17,4(sp)
 2008588:	dc000017 	ldw	r16,0(sp)
 200858c:	dec00304 	addi	sp,sp,12
 2008590:	f800283a 	ret
 2008594:	189ffc2c 	andhi	r2,r3,32752
 2008598:	1005d53a 	srai	r2,r2,20
 200859c:	1815883a 	mov	r10,r3
 20085a0:	113ff284 	addi	r4,r2,-54
 20085a4:	0081ffc4 	movi	r2,2047
 20085a8:	20801126 	beq	r4,r2,20085f0 <scalbn+0x118>
 20085ac:	2409883a 	add	r4,r4,r16
 20085b0:	0081ff84 	movi	r2,2046
 20085b4:	11001c16 	blt	r2,r4,2008628 <scalbn+0x150>
 20085b8:	0100290e 	bge	zero,r4,2008660 <scalbn+0x188>
 20085bc:	200a953a 	slli	r5,r4,20
 20085c0:	01200434 	movhi	r4,32784
 20085c4:	213fffc4 	addi	r4,r4,-1
 20085c8:	5108703a 	and	r4,r10,r4
 20085cc:	2148b03a 	or	r4,r4,r5
 20085d0:	2013883a 	mov	r9,r4
 20085d4:	4005883a 	mov	r2,r8
 20085d8:	4807883a 	mov	r3,r9
 20085dc:	dfc00217 	ldw	ra,8(sp)
 20085e0:	dc400117 	ldw	r17,4(sp)
 20085e4:	dc000017 	ldw	r16,0(sp)
 20085e8:	dec00304 	addi	sp,sp,12
 20085ec:	f800283a 	ret
 20085f0:	480f883a 	mov	r7,r9
 20085f4:	4009883a 	mov	r4,r8
 20085f8:	480b883a 	mov	r5,r9
 20085fc:	400d883a 	mov	r6,r8
 2008600:	20092800 	call	2009280 <__adddf3>
 2008604:	1011883a 	mov	r8,r2
 2008608:	1813883a 	mov	r9,r3
 200860c:	4005883a 	mov	r2,r8
 2008610:	4807883a 	mov	r3,r9
 2008614:	dfc00217 	ldw	ra,8(sp)
 2008618:	dc400117 	ldw	r17,4(sp)
 200861c:	dc000017 	ldw	r16,0(sp)
 2008620:	dec00304 	addi	sp,sp,12
 2008624:	f800283a 	ret
 2008628:	04220034 	movhi	r16,34816
 200862c:	841d6704 	addi	r16,r16,30108
 2008630:	045f8e34 	movhi	r17,32312
 2008634:	8c790f04 	addi	r17,r17,-7108
 2008638:	480f883a 	mov	r7,r9
 200863c:	400d883a 	mov	r6,r8
 2008640:	8009883a 	mov	r4,r16
 2008644:	880b883a 	mov	r5,r17
 2008648:	20086b80 	call	20086b8 <copysign>
 200864c:	180b883a 	mov	r5,r3
 2008650:	800d883a 	mov	r6,r16
 2008654:	880f883a 	mov	r7,r17
 2008658:	1009883a 	mov	r4,r2
 200865c:	003fc306 	br	200856c <scalbn+0x94>
 2008660:	00bff284 	movi	r2,-54
 2008664:	11000716 	blt	r2,r4,2008684 <scalbn+0x1ac>
 2008668:	00b0d414 	movui	r2,50000
 200866c:	143fee16 	blt	r2,r16,2008628 <scalbn+0x150>
 2008670:	0430be74 	movhi	r16,49913
 2008674:	843cd644 	addi	r16,r16,-3239
 2008678:	04406974 	movhi	r17,421
 200867c:	8c5b87c4 	addi	r17,r17,28191
 2008680:	003fed06 	br	2008638 <scalbn+0x160>
 2008684:	21000d84 	addi	r4,r4,54
 2008688:	2008953a 	slli	r4,r4,20
 200868c:	01e00434 	movhi	r7,32784
 2008690:	39ffffc4 	addi	r7,r7,-1
 2008694:	51ce703a 	and	r7,r10,r7
 2008698:	390eb03a 	or	r7,r7,r4
 200869c:	024f2434 	movhi	r9,15504
 20086a0:	4009883a 	mov	r4,r8
 20086a4:	0011883a 	mov	r8,zero
 20086a8:	380b883a 	mov	r5,r7
 20086ac:	400d883a 	mov	r6,r8
 20086b0:	480f883a 	mov	r7,r9
 20086b4:	003fad06 	br	200856c <scalbn+0x94>

020086b8 <copysign>:
 20086b8:	3813883a 	mov	r9,r7
 20086bc:	01e00034 	movhi	r7,32768
 20086c0:	39ffffc4 	addi	r7,r7,-1
 20086c4:	394e703a 	and	r7,r7,r5
 20086c8:	4aa0002c 	andhi	r10,r9,32768
 20086cc:	3a8eb03a 	or	r7,r7,r10
 20086d0:	2005883a 	mov	r2,r4
 20086d4:	3807883a 	mov	r3,r7
 20086d8:	f800283a 	ret

020086dc <_fpadd_parts>:
 20086dc:	21c00017 	ldw	r7,0(r4)
 20086e0:	02000044 	movi	r8,1
 20086e4:	41c0332e 	bgeu	r8,r7,20087b4 <_fpadd_parts+0xd8>
 20086e8:	28800017 	ldw	r2,0(r5)
 20086ec:	4080462e 	bgeu	r8,r2,2008808 <_fpadd_parts+0x12c>
 20086f0:	00c00104 	movi	r3,4
 20086f4:	38c06b26 	beq	r7,r3,20088a4 <_fpadd_parts+0x1c8>
 20086f8:	10c04326 	beq	r2,r3,2008808 <_fpadd_parts+0x12c>
 20086fc:	00c00084 	movi	r3,2
 2008700:	10c02e26 	beq	r2,r3,20087bc <_fpadd_parts+0xe0>
 2008704:	38c04026 	beq	r7,r3,2008808 <_fpadd_parts+0x12c>
 2008708:	22800217 	ldw	r10,8(r4)
 200870c:	28c00217 	ldw	r3,8(r5)
 2008710:	23000317 	ldw	r12,12(r4)
 2008714:	2a400317 	ldw	r9,12(r5)
 2008718:	50cfc83a 	sub	r7,r10,r3
 200871c:	3817883a 	mov	r11,r7
 2008720:	38004f16 	blt	r7,zero,2008860 <_fpadd_parts+0x184>
 2008724:	008007c4 	movi	r2,31
 2008728:	11c03316 	blt	r2,r7,20087f8 <_fpadd_parts+0x11c>
 200872c:	02c0540e 	bge	zero,r11,2008880 <_fpadd_parts+0x1a4>
 2008730:	41c4983a 	sll	r2,r8,r7
 2008734:	49c6d83a 	srl	r3,r9,r7
 2008738:	10bfffc4 	addi	r2,r2,-1
 200873c:	4884703a 	and	r2,r9,r2
 2008740:	1004c03a 	cmpne	r2,r2,zero
 2008744:	1892b03a 	or	r9,r3,r2
 2008748:	20c00117 	ldw	r3,4(r4)
 200874c:	28800117 	ldw	r2,4(r5)
 2008750:	18803c26 	beq	r3,r2,2008844 <_fpadd_parts+0x168>
 2008754:	18002f26 	beq	r3,zero,2008814 <_fpadd_parts+0x138>
 2008758:	4b05c83a 	sub	r2,r9,r12
 200875c:	10004216 	blt	r2,zero,2008868 <_fpadd_parts+0x18c>
 2008760:	32800215 	stw	r10,8(r6)
 2008764:	30800315 	stw	r2,12(r6)
 2008768:	30000115 	stw	zero,4(r6)
 200876c:	31000317 	ldw	r4,12(r6)
 2008770:	01d00034 	movhi	r7,16384
 2008774:	39ffff84 	addi	r7,r7,-2
 2008778:	20bfffc4 	addi	r2,r4,-1
 200877c:	2007883a 	mov	r3,r4
 2008780:	38800836 	bltu	r7,r2,20087a4 <_fpadd_parts+0xc8>
 2008784:	31400217 	ldw	r5,8(r6)
 2008788:	18c9883a 	add	r4,r3,r3
 200878c:	20bfffc4 	addi	r2,r4,-1
 2008790:	297fffc4 	addi	r5,r5,-1
 2008794:	2007883a 	mov	r3,r4
 2008798:	38bffb2e 	bgeu	r7,r2,2008788 <_fpadd_parts+0xac>
 200879c:	31400215 	stw	r5,8(r6)
 20087a0:	31000315 	stw	r4,12(r6)
 20087a4:	008000c4 	movi	r2,3
 20087a8:	30800015 	stw	r2,0(r6)
 20087ac:	20001b16 	blt	r4,zero,200881c <_fpadd_parts+0x140>
 20087b0:	3009883a 	mov	r4,r6
 20087b4:	2005883a 	mov	r2,r4
 20087b8:	f800283a 	ret
 20087bc:	38fffd1e 	bne	r7,r3,20087b4 <_fpadd_parts+0xd8>
 20087c0:	31c00015 	stw	r7,0(r6)
 20087c4:	20800117 	ldw	r2,4(r4)
 20087c8:	30800115 	stw	r2,4(r6)
 20087cc:	20c00217 	ldw	r3,8(r4)
 20087d0:	30c00215 	stw	r3,8(r6)
 20087d4:	20800317 	ldw	r2,12(r4)
 20087d8:	30800315 	stw	r2,12(r6)
 20087dc:	20c00117 	ldw	r3,4(r4)
 20087e0:	28800117 	ldw	r2,4(r5)
 20087e4:	3009883a 	mov	r4,r6
 20087e8:	1886703a 	and	r3,r3,r2
 20087ec:	2005883a 	mov	r2,r4
 20087f0:	30c00115 	stw	r3,4(r6)
 20087f4:	f800283a 	ret
 20087f8:	1a801716 	blt	r3,r10,2008858 <_fpadd_parts+0x17c>
 20087fc:	1815883a 	mov	r10,r3
 2008800:	0019883a 	mov	r12,zero
 2008804:	003fd006 	br	2008748 <_fpadd_parts+0x6c>
 2008808:	2809883a 	mov	r4,r5
 200880c:	2005883a 	mov	r2,r4
 2008810:	f800283a 	ret
 2008814:	6245c83a 	sub	r2,r12,r9
 2008818:	003fd006 	br	200875c <_fpadd_parts+0x80>
 200881c:	30800217 	ldw	r2,8(r6)
 2008820:	2006d07a 	srli	r3,r4,1
 2008824:	2100004c 	andi	r4,r4,1
 2008828:	10800044 	addi	r2,r2,1
 200882c:	1906b03a 	or	r3,r3,r4
 2008830:	3009883a 	mov	r4,r6
 2008834:	30800215 	stw	r2,8(r6)
 2008838:	2005883a 	mov	r2,r4
 200883c:	30c00315 	stw	r3,12(r6)
 2008840:	f800283a 	ret
 2008844:	4b09883a 	add	r4,r9,r12
 2008848:	30c00115 	stw	r3,4(r6)
 200884c:	32800215 	stw	r10,8(r6)
 2008850:	31000315 	stw	r4,12(r6)
 2008854:	003fd306 	br	20087a4 <_fpadd_parts+0xc8>
 2008858:	0013883a 	mov	r9,zero
 200885c:	003fba06 	br	2008748 <_fpadd_parts+0x6c>
 2008860:	01cfc83a 	sub	r7,zero,r7
 2008864:	003faf06 	br	2008724 <_fpadd_parts+0x48>
 2008868:	0089c83a 	sub	r4,zero,r2
 200886c:	00800044 	movi	r2,1
 2008870:	30800115 	stw	r2,4(r6)
 2008874:	32800215 	stw	r10,8(r6)
 2008878:	31000315 	stw	r4,12(r6)
 200887c:	003fbb06 	br	200876c <_fpadd_parts+0x90>
 2008880:	583fb126 	beq	r11,zero,2008748 <_fpadd_parts+0x6c>
 2008884:	41c4983a 	sll	r2,r8,r7
 2008888:	61c6d83a 	srl	r3,r12,r7
 200888c:	51d5883a 	add	r10,r10,r7
 2008890:	10bfffc4 	addi	r2,r2,-1
 2008894:	6084703a 	and	r2,r12,r2
 2008898:	1004c03a 	cmpne	r2,r2,zero
 200889c:	1898b03a 	or	r12,r3,r2
 20088a0:	003fa906 	br	2008748 <_fpadd_parts+0x6c>
 20088a4:	11ffc31e 	bne	r2,r7,20087b4 <_fpadd_parts+0xd8>
 20088a8:	28c00117 	ldw	r3,4(r5)
 20088ac:	20800117 	ldw	r2,4(r4)
 20088b0:	10ffc026 	beq	r2,r3,20087b4 <_fpadd_parts+0xd8>
 20088b4:	01008074 	movhi	r4,513
 20088b8:	213a3104 	addi	r4,r4,-5948
 20088bc:	003fbd06 	br	20087b4 <_fpadd_parts+0xd8>

020088c0 <__subsf3>:
 20088c0:	deffef04 	addi	sp,sp,-68
 20088c4:	dcc00f15 	stw	r19,60(sp)
 20088c8:	dcc00204 	addi	r19,sp,8
 20088cc:	dc400e15 	stw	r17,56(sp)
 20088d0:	d9000015 	stw	r4,0(sp)
 20088d4:	d9400115 	stw	r5,4(sp)
 20088d8:	d809883a 	mov	r4,sp
 20088dc:	980b883a 	mov	r5,r19
 20088e0:	dc400604 	addi	r17,sp,24
 20088e4:	dfc01015 	stw	ra,64(sp)
 20088e8:	200a1700 	call	200a170 <__unpack_f>
 20088ec:	d9000104 	addi	r4,sp,4
 20088f0:	880b883a 	mov	r5,r17
 20088f4:	200a1700 	call	200a170 <__unpack_f>
 20088f8:	d8800717 	ldw	r2,28(sp)
 20088fc:	9809883a 	mov	r4,r19
 2008900:	880b883a 	mov	r5,r17
 2008904:	d9800a04 	addi	r6,sp,40
 2008908:	1080005c 	xori	r2,r2,1
 200890c:	d8800715 	stw	r2,28(sp)
 2008910:	20086dc0 	call	20086dc <_fpadd_parts>
 2008914:	1009883a 	mov	r4,r2
 2008918:	200a0100 	call	200a010 <__pack_f>
 200891c:	dfc01017 	ldw	ra,64(sp)
 2008920:	dcc00f17 	ldw	r19,60(sp)
 2008924:	dc400e17 	ldw	r17,56(sp)
 2008928:	dec01104 	addi	sp,sp,68
 200892c:	f800283a 	ret

02008930 <__addsf3>:
 2008930:	deffef04 	addi	sp,sp,-68
 2008934:	dcc00f15 	stw	r19,60(sp)
 2008938:	dcc00204 	addi	r19,sp,8
 200893c:	dc400e15 	stw	r17,56(sp)
 2008940:	d9000015 	stw	r4,0(sp)
 2008944:	d9400115 	stw	r5,4(sp)
 2008948:	d809883a 	mov	r4,sp
 200894c:	980b883a 	mov	r5,r19
 2008950:	dc400604 	addi	r17,sp,24
 2008954:	dfc01015 	stw	ra,64(sp)
 2008958:	200a1700 	call	200a170 <__unpack_f>
 200895c:	d9000104 	addi	r4,sp,4
 2008960:	880b883a 	mov	r5,r17
 2008964:	200a1700 	call	200a170 <__unpack_f>
 2008968:	d9800a04 	addi	r6,sp,40
 200896c:	9809883a 	mov	r4,r19
 2008970:	880b883a 	mov	r5,r17
 2008974:	20086dc0 	call	20086dc <_fpadd_parts>
 2008978:	1009883a 	mov	r4,r2
 200897c:	200a0100 	call	200a010 <__pack_f>
 2008980:	dfc01017 	ldw	ra,64(sp)
 2008984:	dcc00f17 	ldw	r19,60(sp)
 2008988:	dc400e17 	ldw	r17,56(sp)
 200898c:	dec01104 	addi	sp,sp,68
 2008990:	f800283a 	ret

02008994 <__divsf3>:
 2008994:	defff304 	addi	sp,sp,-52
 2008998:	dc400b15 	stw	r17,44(sp)
 200899c:	dc400204 	addi	r17,sp,8
 20089a0:	dc000a15 	stw	r16,40(sp)
 20089a4:	d9000015 	stw	r4,0(sp)
 20089a8:	d9400115 	stw	r5,4(sp)
 20089ac:	d809883a 	mov	r4,sp
 20089b0:	880b883a 	mov	r5,r17
 20089b4:	dc000604 	addi	r16,sp,24
 20089b8:	dfc00c15 	stw	ra,48(sp)
 20089bc:	200a1700 	call	200a170 <__unpack_f>
 20089c0:	d9000104 	addi	r4,sp,4
 20089c4:	800b883a 	mov	r5,r16
 20089c8:	200a1700 	call	200a170 <__unpack_f>
 20089cc:	d9000217 	ldw	r4,8(sp)
 20089d0:	00800044 	movi	r2,1
 20089d4:	01800104 	movi	r6,4
 20089d8:	11000a2e 	bgeu	r2,r4,2008a04 <__divsf3+0x70>
 20089dc:	d9400617 	ldw	r5,24(sp)
 20089e0:	1140432e 	bgeu	r2,r5,2008af0 <__divsf3+0x15c>
 20089e4:	d8800317 	ldw	r2,12(sp)
 20089e8:	d8c00717 	ldw	r3,28(sp)
 20089ec:	10c4f03a 	xor	r2,r2,r3
 20089f0:	d8800315 	stw	r2,12(sp)
 20089f4:	21800226 	beq	r4,r6,2008a00 <__divsf3+0x6c>
 20089f8:	00800084 	movi	r2,2
 20089fc:	2080101e 	bne	r4,r2,2008a40 <__divsf3+0xac>
 2008a00:	29000726 	beq	r5,r4,2008a20 <__divsf3+0x8c>
 2008a04:	8809883a 	mov	r4,r17
 2008a08:	200a0100 	call	200a010 <__pack_f>
 2008a0c:	dfc00c17 	ldw	ra,48(sp)
 2008a10:	dc400b17 	ldw	r17,44(sp)
 2008a14:	dc000a17 	ldw	r16,40(sp)
 2008a18:	dec00d04 	addi	sp,sp,52
 2008a1c:	f800283a 	ret
 2008a20:	01008074 	movhi	r4,513
 2008a24:	213a3104 	addi	r4,r4,-5948
 2008a28:	200a0100 	call	200a010 <__pack_f>
 2008a2c:	dfc00c17 	ldw	ra,48(sp)
 2008a30:	dc400b17 	ldw	r17,44(sp)
 2008a34:	dc000a17 	ldw	r16,40(sp)
 2008a38:	dec00d04 	addi	sp,sp,52
 2008a3c:	f800283a 	ret
 2008a40:	29802d26 	beq	r5,r6,2008af8 <__divsf3+0x164>
 2008a44:	28801a26 	beq	r5,r2,2008ab0 <__divsf3+0x11c>
 2008a48:	d8c00417 	ldw	r3,16(sp)
 2008a4c:	d8800817 	ldw	r2,32(sp)
 2008a50:	d9000517 	ldw	r4,20(sp)
 2008a54:	d9800917 	ldw	r6,36(sp)
 2008a58:	1885c83a 	sub	r2,r3,r2
 2008a5c:	d8800415 	stw	r2,16(sp)
 2008a60:	2180032e 	bgeu	r4,r6,2008a70 <__divsf3+0xdc>
 2008a64:	10bfffc4 	addi	r2,r2,-1
 2008a68:	d8800415 	stw	r2,16(sp)
 2008a6c:	2109883a 	add	r4,r4,r4
 2008a70:	01500034 	movhi	r5,16384
 2008a74:	0007883a 	mov	r3,zero
 2008a78:	0005883a 	mov	r2,zero
 2008a7c:	01c007c4 	movi	r7,31
 2008a80:	10800044 	addi	r2,r2,1
 2008a84:	21800236 	bltu	r4,r6,2008a90 <__divsf3+0xfc>
 2008a88:	1946b03a 	or	r3,r3,r5
 2008a8c:	2189c83a 	sub	r4,r4,r6
 2008a90:	280ad07a 	srli	r5,r5,1
 2008a94:	2109883a 	add	r4,r4,r4
 2008a98:	11fff91e 	bne	r2,r7,2008a80 <__divsf3+0xec>
 2008a9c:	19401fcc 	andi	r5,r3,127
 2008aa0:	00801004 	movi	r2,64
 2008aa4:	28800a26 	beq	r5,r2,2008ad0 <__divsf3+0x13c>
 2008aa8:	d8c00515 	stw	r3,20(sp)
 2008aac:	003fd506 	br	2008a04 <__divsf3+0x70>
 2008ab0:	8809883a 	mov	r4,r17
 2008ab4:	d9800215 	stw	r6,8(sp)
 2008ab8:	200a0100 	call	200a010 <__pack_f>
 2008abc:	dfc00c17 	ldw	ra,48(sp)
 2008ac0:	dc400b17 	ldw	r17,44(sp)
 2008ac4:	dc000a17 	ldw	r16,40(sp)
 2008ac8:	dec00d04 	addi	sp,sp,52
 2008acc:	f800283a 	ret
 2008ad0:	1880200c 	andi	r2,r3,128
 2008ad4:	103ff41e 	bne	r2,zero,2008aa8 <__divsf3+0x114>
 2008ad8:	203ff326 	beq	r4,zero,2008aa8 <__divsf3+0x114>
 2008adc:	1947883a 	add	r3,r3,r5
 2008ae0:	00bfe004 	movi	r2,-128
 2008ae4:	1886703a 	and	r3,r3,r2
 2008ae8:	d8c00515 	stw	r3,20(sp)
 2008aec:	003fc506 	br	2008a04 <__divsf3+0x70>
 2008af0:	8009883a 	mov	r4,r16
 2008af4:	003fc406 	br	2008a08 <__divsf3+0x74>
 2008af8:	8809883a 	mov	r4,r17
 2008afc:	d8000515 	stw	zero,20(sp)
 2008b00:	d8000415 	stw	zero,16(sp)
 2008b04:	003fc006 	br	2008a08 <__divsf3+0x74>

02008b08 <__gtsf2>:
 2008b08:	defff304 	addi	sp,sp,-52
 2008b0c:	dc400b15 	stw	r17,44(sp)
 2008b10:	dc400204 	addi	r17,sp,8
 2008b14:	dc000a15 	stw	r16,40(sp)
 2008b18:	d9000015 	stw	r4,0(sp)
 2008b1c:	d9400115 	stw	r5,4(sp)
 2008b20:	d809883a 	mov	r4,sp
 2008b24:	880b883a 	mov	r5,r17
 2008b28:	dc000604 	addi	r16,sp,24
 2008b2c:	dfc00c15 	stw	ra,48(sp)
 2008b30:	200a1700 	call	200a170 <__unpack_f>
 2008b34:	d9000104 	addi	r4,sp,4
 2008b38:	800b883a 	mov	r5,r16
 2008b3c:	200a1700 	call	200a170 <__unpack_f>
 2008b40:	d8800217 	ldw	r2,8(sp)
 2008b44:	00c00044 	movi	r3,1
 2008b48:	01bfffc4 	movi	r6,-1
 2008b4c:	1880062e 	bgeu	r3,r2,2008b68 <__gtsf2+0x60>
 2008b50:	d8800617 	ldw	r2,24(sp)
 2008b54:	8809883a 	mov	r4,r17
 2008b58:	800b883a 	mov	r5,r16
 2008b5c:	1880022e 	bgeu	r3,r2,2008b68 <__gtsf2+0x60>
 2008b60:	200a2380 	call	200a238 <__fpcmp_parts_f>
 2008b64:	100d883a 	mov	r6,r2
 2008b68:	3005883a 	mov	r2,r6
 2008b6c:	dfc00c17 	ldw	ra,48(sp)
 2008b70:	dc400b17 	ldw	r17,44(sp)
 2008b74:	dc000a17 	ldw	r16,40(sp)
 2008b78:	dec00d04 	addi	sp,sp,52
 2008b7c:	f800283a 	ret

02008b80 <__gesf2>:
 2008b80:	defff304 	addi	sp,sp,-52
 2008b84:	dc400b15 	stw	r17,44(sp)
 2008b88:	dc400204 	addi	r17,sp,8
 2008b8c:	dc000a15 	stw	r16,40(sp)
 2008b90:	d9000015 	stw	r4,0(sp)
 2008b94:	d9400115 	stw	r5,4(sp)
 2008b98:	d809883a 	mov	r4,sp
 2008b9c:	880b883a 	mov	r5,r17
 2008ba0:	dc000604 	addi	r16,sp,24
 2008ba4:	dfc00c15 	stw	ra,48(sp)
 2008ba8:	200a1700 	call	200a170 <__unpack_f>
 2008bac:	d9000104 	addi	r4,sp,4
 2008bb0:	800b883a 	mov	r5,r16
 2008bb4:	200a1700 	call	200a170 <__unpack_f>
 2008bb8:	d8800217 	ldw	r2,8(sp)
 2008bbc:	00c00044 	movi	r3,1
 2008bc0:	01bfffc4 	movi	r6,-1
 2008bc4:	1880062e 	bgeu	r3,r2,2008be0 <__gesf2+0x60>
 2008bc8:	d8800617 	ldw	r2,24(sp)
 2008bcc:	8809883a 	mov	r4,r17
 2008bd0:	800b883a 	mov	r5,r16
 2008bd4:	1880022e 	bgeu	r3,r2,2008be0 <__gesf2+0x60>
 2008bd8:	200a2380 	call	200a238 <__fpcmp_parts_f>
 2008bdc:	100d883a 	mov	r6,r2
 2008be0:	3005883a 	mov	r2,r6
 2008be4:	dfc00c17 	ldw	ra,48(sp)
 2008be8:	dc400b17 	ldw	r17,44(sp)
 2008bec:	dc000a17 	ldw	r16,40(sp)
 2008bf0:	dec00d04 	addi	sp,sp,52
 2008bf4:	f800283a 	ret

02008bf8 <__ltsf2>:
 2008bf8:	defff304 	addi	sp,sp,-52
 2008bfc:	dc400b15 	stw	r17,44(sp)
 2008c00:	dc400204 	addi	r17,sp,8
 2008c04:	dc000a15 	stw	r16,40(sp)
 2008c08:	d9000015 	stw	r4,0(sp)
 2008c0c:	d9400115 	stw	r5,4(sp)
 2008c10:	d809883a 	mov	r4,sp
 2008c14:	880b883a 	mov	r5,r17
 2008c18:	dc000604 	addi	r16,sp,24
 2008c1c:	dfc00c15 	stw	ra,48(sp)
 2008c20:	200a1700 	call	200a170 <__unpack_f>
 2008c24:	d9000104 	addi	r4,sp,4
 2008c28:	800b883a 	mov	r5,r16
 2008c2c:	200a1700 	call	200a170 <__unpack_f>
 2008c30:	d8800217 	ldw	r2,8(sp)
 2008c34:	00c00044 	movi	r3,1
 2008c38:	180d883a 	mov	r6,r3
 2008c3c:	1880062e 	bgeu	r3,r2,2008c58 <__ltsf2+0x60>
 2008c40:	d8800617 	ldw	r2,24(sp)
 2008c44:	8809883a 	mov	r4,r17
 2008c48:	800b883a 	mov	r5,r16
 2008c4c:	1880022e 	bgeu	r3,r2,2008c58 <__ltsf2+0x60>
 2008c50:	200a2380 	call	200a238 <__fpcmp_parts_f>
 2008c54:	100d883a 	mov	r6,r2
 2008c58:	3005883a 	mov	r2,r6
 2008c5c:	dfc00c17 	ldw	ra,48(sp)
 2008c60:	dc400b17 	ldw	r17,44(sp)
 2008c64:	dc000a17 	ldw	r16,40(sp)
 2008c68:	dec00d04 	addi	sp,sp,52
 2008c6c:	f800283a 	ret

02008c70 <__floatsisf>:
 2008c70:	2006d7fa 	srli	r3,r4,31
 2008c74:	defffa04 	addi	sp,sp,-24
 2008c78:	008000c4 	movi	r2,3
 2008c7c:	dfc00515 	stw	ra,20(sp)
 2008c80:	dc000415 	stw	r16,16(sp)
 2008c84:	d8800015 	stw	r2,0(sp)
 2008c88:	d8c00115 	stw	r3,4(sp)
 2008c8c:	2000081e 	bne	r4,zero,2008cb0 <__floatsisf+0x40>
 2008c90:	00800084 	movi	r2,2
 2008c94:	d8800015 	stw	r2,0(sp)
 2008c98:	d809883a 	mov	r4,sp
 2008c9c:	200a0100 	call	200a010 <__pack_f>
 2008ca0:	dfc00517 	ldw	ra,20(sp)
 2008ca4:	dc000417 	ldw	r16,16(sp)
 2008ca8:	dec00604 	addi	sp,sp,24
 2008cac:	f800283a 	ret
 2008cb0:	00800784 	movi	r2,30
 2008cb4:	1807003a 	cmpeq	r3,r3,zero
 2008cb8:	d8800215 	stw	r2,8(sp)
 2008cbc:	18000e1e 	bne	r3,zero,2008cf8 <__floatsisf+0x88>
 2008cc0:	00a00034 	movhi	r2,32768
 2008cc4:	20800e26 	beq	r4,r2,2008d00 <__floatsisf+0x90>
 2008cc8:	0121c83a 	sub	r16,zero,r4
 2008ccc:	8009883a 	mov	r4,r16
 2008cd0:	dc000315 	stw	r16,12(sp)
 2008cd4:	2009f900 	call	2009f90 <__clzsi2>
 2008cd8:	117fffc4 	addi	r5,r2,-1
 2008cdc:	017fee0e 	bge	zero,r5,2008c98 <__floatsisf+0x28>
 2008ce0:	d8800217 	ldw	r2,8(sp)
 2008ce4:	8146983a 	sll	r3,r16,r5
 2008ce8:	1145c83a 	sub	r2,r2,r5
 2008cec:	d8c00315 	stw	r3,12(sp)
 2008cf0:	d8800215 	stw	r2,8(sp)
 2008cf4:	003fe806 	br	2008c98 <__floatsisf+0x28>
 2008cf8:	2021883a 	mov	r16,r4
 2008cfc:	003ff306 	br	2008ccc <__floatsisf+0x5c>
 2008d00:	00b3c034 	movhi	r2,52992
 2008d04:	003fe606 	br	2008ca0 <__floatsisf+0x30>

02008d08 <__fixsfsi>:
 2008d08:	defffa04 	addi	sp,sp,-24
 2008d0c:	d9000015 	stw	r4,0(sp)
 2008d10:	d9400104 	addi	r5,sp,4
 2008d14:	d809883a 	mov	r4,sp
 2008d18:	dfc00515 	stw	ra,20(sp)
 2008d1c:	200a1700 	call	200a170 <__unpack_f>
 2008d20:	d8c00117 	ldw	r3,4(sp)
 2008d24:	00800084 	movi	r2,2
 2008d28:	1880041e 	bne	r3,r2,2008d3c <__fixsfsi+0x34>
 2008d2c:	0005883a 	mov	r2,zero
 2008d30:	dfc00517 	ldw	ra,20(sp)
 2008d34:	dec00604 	addi	sp,sp,24
 2008d38:	f800283a 	ret
 2008d3c:	00800044 	movi	r2,1
 2008d40:	10fffa2e 	bgeu	r2,r3,2008d2c <__fixsfsi+0x24>
 2008d44:	00800104 	movi	r2,4
 2008d48:	18800426 	beq	r3,r2,2008d5c <__fixsfsi+0x54>
 2008d4c:	d8800317 	ldw	r2,12(sp)
 2008d50:	103ff616 	blt	r2,zero,2008d2c <__fixsfsi+0x24>
 2008d54:	00c00784 	movi	r3,30
 2008d58:	1880070e 	bge	r3,r2,2008d78 <__fixsfsi+0x70>
 2008d5c:	d8800217 	ldw	r2,8(sp)
 2008d60:	10000c1e 	bne	r2,zero,2008d94 <__fixsfsi+0x8c>
 2008d64:	00a00034 	movhi	r2,32768
 2008d68:	10bfffc4 	addi	r2,r2,-1
 2008d6c:	dfc00517 	ldw	ra,20(sp)
 2008d70:	dec00604 	addi	sp,sp,24
 2008d74:	f800283a 	ret
 2008d78:	1885c83a 	sub	r2,r3,r2
 2008d7c:	d9000217 	ldw	r4,8(sp)
 2008d80:	d8c00417 	ldw	r3,16(sp)
 2008d84:	1884d83a 	srl	r2,r3,r2
 2008d88:	203fe926 	beq	r4,zero,2008d30 <__fixsfsi+0x28>
 2008d8c:	0085c83a 	sub	r2,zero,r2
 2008d90:	003fe706 	br	2008d30 <__fixsfsi+0x28>
 2008d94:	00a00034 	movhi	r2,32768
 2008d98:	003fe506 	br	2008d30 <__fixsfsi+0x28>

02008d9c <__extendsfdf2>:
 2008d9c:	defff904 	addi	sp,sp,-28
 2008da0:	d9000115 	stw	r4,4(sp)
 2008da4:	d9400204 	addi	r5,sp,8
 2008da8:	d9000104 	addi	r4,sp,4
 2008dac:	dfc00615 	stw	ra,24(sp)
 2008db0:	200a1700 	call	200a170 <__unpack_f>
 2008db4:	d9c00517 	ldw	r7,20(sp)
 2008db8:	0011883a 	mov	r8,zero
 2008dbc:	400697ba 	slli	r3,r8,30
 2008dc0:	3812d0ba 	srli	r9,r7,2
 2008dc4:	380497ba 	slli	r2,r7,30
 2008dc8:	d9000217 	ldw	r4,8(sp)
 2008dcc:	d9400317 	ldw	r5,12(sp)
 2008dd0:	d9800417 	ldw	r6,16(sp)
 2008dd4:	48c6b03a 	or	r3,r9,r3
 2008dd8:	100f883a 	mov	r7,r2
 2008ddc:	d8c00015 	stw	r3,0(sp)
 2008de0:	2009d000 	call	2009d00 <__make_dp>
 2008de4:	dfc00617 	ldw	ra,24(sp)
 2008de8:	dec00704 	addi	sp,sp,28
 2008dec:	f800283a 	ret

02008df0 <_fpadd_parts>:
 2008df0:	defff804 	addi	sp,sp,-32
 2008df4:	dcc00315 	stw	r19,12(sp)
 2008df8:	2027883a 	mov	r19,r4
 2008dfc:	21000017 	ldw	r4,0(r4)
 2008e00:	00c00044 	movi	r3,1
 2008e04:	dd400515 	stw	r21,20(sp)
 2008e08:	dd000415 	stw	r20,16(sp)
 2008e0c:	ddc00715 	stw	r23,28(sp)
 2008e10:	dd800615 	stw	r22,24(sp)
 2008e14:	dc800215 	stw	r18,8(sp)
 2008e18:	dc400115 	stw	r17,4(sp)
 2008e1c:	dc000015 	stw	r16,0(sp)
 2008e20:	282b883a 	mov	r21,r5
 2008e24:	3029883a 	mov	r20,r6
 2008e28:	1900632e 	bgeu	r3,r4,2008fb8 <_fpadd_parts+0x1c8>
 2008e2c:	28800017 	ldw	r2,0(r5)
 2008e30:	1880812e 	bgeu	r3,r2,2009038 <_fpadd_parts+0x248>
 2008e34:	00c00104 	movi	r3,4
 2008e38:	20c0dc26 	beq	r4,r3,20091ac <_fpadd_parts+0x3bc>
 2008e3c:	10c07e26 	beq	r2,r3,2009038 <_fpadd_parts+0x248>
 2008e40:	00c00084 	movi	r3,2
 2008e44:	10c06726 	beq	r2,r3,2008fe4 <_fpadd_parts+0x1f4>
 2008e48:	20c07b26 	beq	r4,r3,2009038 <_fpadd_parts+0x248>
 2008e4c:	9dc00217 	ldw	r23,8(r19)
 2008e50:	28c00217 	ldw	r3,8(r5)
 2008e54:	9c400317 	ldw	r17,12(r19)
 2008e58:	2bc00317 	ldw	r15,12(r5)
 2008e5c:	b8cdc83a 	sub	r6,r23,r3
 2008e60:	9c800417 	ldw	r18,16(r19)
 2008e64:	2c000417 	ldw	r16,16(r5)
 2008e68:	3009883a 	mov	r4,r6
 2008e6c:	30009716 	blt	r6,zero,20090cc <_fpadd_parts+0x2dc>
 2008e70:	00800fc4 	movi	r2,63
 2008e74:	11806b16 	blt	r2,r6,2009024 <_fpadd_parts+0x234>
 2008e78:	0100a40e 	bge	zero,r4,200910c <_fpadd_parts+0x31c>
 2008e7c:	35bff804 	addi	r22,r6,-32
 2008e80:	b000bc16 	blt	r22,zero,2009174 <_fpadd_parts+0x384>
 2008e84:	8596d83a 	srl	r11,r16,r22
 2008e88:	0019883a 	mov	r12,zero
 2008e8c:	0013883a 	mov	r9,zero
 2008e90:	01000044 	movi	r4,1
 2008e94:	0015883a 	mov	r10,zero
 2008e98:	b000be16 	blt	r22,zero,2009194 <_fpadd_parts+0x3a4>
 2008e9c:	2590983a 	sll	r8,r4,r22
 2008ea0:	000f883a 	mov	r7,zero
 2008ea4:	00bfffc4 	movi	r2,-1
 2008ea8:	3889883a 	add	r4,r7,r2
 2008eac:	408b883a 	add	r5,r8,r2
 2008eb0:	21cd803a 	cmpltu	r6,r4,r7
 2008eb4:	314b883a 	add	r5,r6,r5
 2008eb8:	7904703a 	and	r2,r15,r4
 2008ebc:	8146703a 	and	r3,r16,r5
 2008ec0:	10c4b03a 	or	r2,r2,r3
 2008ec4:	10000226 	beq	r2,zero,2008ed0 <_fpadd_parts+0xe0>
 2008ec8:	02400044 	movi	r9,1
 2008ecc:	0015883a 	mov	r10,zero
 2008ed0:	5a5eb03a 	or	r15,r11,r9
 2008ed4:	62a0b03a 	or	r16,r12,r10
 2008ed8:	99400117 	ldw	r5,4(r19)
 2008edc:	a8800117 	ldw	r2,4(r21)
 2008ee0:	28806e26 	beq	r5,r2,200909c <_fpadd_parts+0x2ac>
 2008ee4:	28006626 	beq	r5,zero,2009080 <_fpadd_parts+0x290>
 2008ee8:	7c45c83a 	sub	r2,r15,r17
 2008eec:	7889803a 	cmpltu	r4,r15,r2
 2008ef0:	8487c83a 	sub	r3,r16,r18
 2008ef4:	1909c83a 	sub	r4,r3,r4
 2008ef8:	100d883a 	mov	r6,r2
 2008efc:	200f883a 	mov	r7,r4
 2008f00:	38007716 	blt	r7,zero,20090e0 <_fpadd_parts+0x2f0>
 2008f04:	a5c00215 	stw	r23,8(r20)
 2008f08:	a1c00415 	stw	r7,16(r20)
 2008f0c:	a0000115 	stw	zero,4(r20)
 2008f10:	a1800315 	stw	r6,12(r20)
 2008f14:	a2000317 	ldw	r8,12(r20)
 2008f18:	a2400417 	ldw	r9,16(r20)
 2008f1c:	00bfffc4 	movi	r2,-1
 2008f20:	408b883a 	add	r5,r8,r2
 2008f24:	2a09803a 	cmpltu	r4,r5,r8
 2008f28:	488d883a 	add	r6,r9,r2
 2008f2c:	01c40034 	movhi	r7,4096
 2008f30:	39ffffc4 	addi	r7,r7,-1
 2008f34:	218d883a 	add	r6,r4,r6
 2008f38:	39801736 	bltu	r7,r6,2008f98 <_fpadd_parts+0x1a8>
 2008f3c:	31c06526 	beq	r6,r7,20090d4 <_fpadd_parts+0x2e4>
 2008f40:	a3000217 	ldw	r12,8(r20)
 2008f44:	4209883a 	add	r4,r8,r8
 2008f48:	00bfffc4 	movi	r2,-1
 2008f4c:	220f803a 	cmpltu	r7,r4,r8
 2008f50:	4a4b883a 	add	r5,r9,r9
 2008f54:	394f883a 	add	r7,r7,r5
 2008f58:	2095883a 	add	r10,r4,r2
 2008f5c:	3897883a 	add	r11,r7,r2
 2008f60:	510d803a 	cmpltu	r6,r10,r4
 2008f64:	6099883a 	add	r12,r12,r2
 2008f68:	32d7883a 	add	r11,r6,r11
 2008f6c:	00840034 	movhi	r2,4096
 2008f70:	10bfffc4 	addi	r2,r2,-1
 2008f74:	2011883a 	mov	r8,r4
 2008f78:	3813883a 	mov	r9,r7
 2008f7c:	a1000315 	stw	r4,12(r20)
 2008f80:	a1c00415 	stw	r7,16(r20)
 2008f84:	a3000215 	stw	r12,8(r20)
 2008f88:	12c00336 	bltu	r2,r11,2008f98 <_fpadd_parts+0x1a8>
 2008f8c:	58bfed1e 	bne	r11,r2,2008f44 <_fpadd_parts+0x154>
 2008f90:	00bfff84 	movi	r2,-2
 2008f94:	12bfeb2e 	bgeu	r2,r10,2008f44 <_fpadd_parts+0x154>
 2008f98:	a2800417 	ldw	r10,16(r20)
 2008f9c:	008000c4 	movi	r2,3
 2008fa0:	00c80034 	movhi	r3,8192
 2008fa4:	18ffffc4 	addi	r3,r3,-1
 2008fa8:	a2400317 	ldw	r9,12(r20)
 2008fac:	a0800015 	stw	r2,0(r20)
 2008fb0:	1a802336 	bltu	r3,r10,2009040 <_fpadd_parts+0x250>
 2008fb4:	a027883a 	mov	r19,r20
 2008fb8:	9805883a 	mov	r2,r19
 2008fbc:	ddc00717 	ldw	r23,28(sp)
 2008fc0:	dd800617 	ldw	r22,24(sp)
 2008fc4:	dd400517 	ldw	r21,20(sp)
 2008fc8:	dd000417 	ldw	r20,16(sp)
 2008fcc:	dcc00317 	ldw	r19,12(sp)
 2008fd0:	dc800217 	ldw	r18,8(sp)
 2008fd4:	dc400117 	ldw	r17,4(sp)
 2008fd8:	dc000017 	ldw	r16,0(sp)
 2008fdc:	dec00804 	addi	sp,sp,32
 2008fe0:	f800283a 	ret
 2008fe4:	20fff41e 	bne	r4,r3,2008fb8 <_fpadd_parts+0x1c8>
 2008fe8:	31000015 	stw	r4,0(r6)
 2008fec:	98800117 	ldw	r2,4(r19)
 2008ff0:	30800115 	stw	r2,4(r6)
 2008ff4:	98c00217 	ldw	r3,8(r19)
 2008ff8:	30c00215 	stw	r3,8(r6)
 2008ffc:	98800317 	ldw	r2,12(r19)
 2009000:	30800315 	stw	r2,12(r6)
 2009004:	98c00417 	ldw	r3,16(r19)
 2009008:	30c00415 	stw	r3,16(r6)
 200900c:	98800117 	ldw	r2,4(r19)
 2009010:	28c00117 	ldw	r3,4(r5)
 2009014:	3027883a 	mov	r19,r6
 2009018:	10c4703a 	and	r2,r2,r3
 200901c:	30800115 	stw	r2,4(r6)
 2009020:	003fe506 	br	2008fb8 <_fpadd_parts+0x1c8>
 2009024:	1dc02616 	blt	r3,r23,20090c0 <_fpadd_parts+0x2d0>
 2009028:	0023883a 	mov	r17,zero
 200902c:	182f883a 	mov	r23,r3
 2009030:	0025883a 	mov	r18,zero
 2009034:	003fa806 	br	2008ed8 <_fpadd_parts+0xe8>
 2009038:	a827883a 	mov	r19,r21
 200903c:	003fde06 	br	2008fb8 <_fpadd_parts+0x1c8>
 2009040:	01800044 	movi	r6,1
 2009044:	500497fa 	slli	r2,r10,31
 2009048:	4808d07a 	srli	r4,r9,1
 200904c:	518ad83a 	srl	r5,r10,r6
 2009050:	a2000217 	ldw	r8,8(r20)
 2009054:	1108b03a 	or	r4,r2,r4
 2009058:	0007883a 	mov	r3,zero
 200905c:	4984703a 	and	r2,r9,r6
 2009060:	208cb03a 	or	r6,r4,r2
 2009064:	28ceb03a 	or	r7,r5,r3
 2009068:	42000044 	addi	r8,r8,1
 200906c:	a027883a 	mov	r19,r20
 2009070:	a1c00415 	stw	r7,16(r20)
 2009074:	a2000215 	stw	r8,8(r20)
 2009078:	a1800315 	stw	r6,12(r20)
 200907c:	003fce06 	br	2008fb8 <_fpadd_parts+0x1c8>
 2009080:	8bc5c83a 	sub	r2,r17,r15
 2009084:	8889803a 	cmpltu	r4,r17,r2
 2009088:	9407c83a 	sub	r3,r18,r16
 200908c:	1909c83a 	sub	r4,r3,r4
 2009090:	100d883a 	mov	r6,r2
 2009094:	200f883a 	mov	r7,r4
 2009098:	003f9906 	br	2008f00 <_fpadd_parts+0x110>
 200909c:	7c45883a 	add	r2,r15,r17
 20090a0:	13c9803a 	cmpltu	r4,r2,r15
 20090a4:	8487883a 	add	r3,r16,r18
 20090a8:	20c9883a 	add	r4,r4,r3
 20090ac:	a1400115 	stw	r5,4(r20)
 20090b0:	a5c00215 	stw	r23,8(r20)
 20090b4:	a0800315 	stw	r2,12(r20)
 20090b8:	a1000415 	stw	r4,16(r20)
 20090bc:	003fb606 	br	2008f98 <_fpadd_parts+0x1a8>
 20090c0:	001f883a 	mov	r15,zero
 20090c4:	0021883a 	mov	r16,zero
 20090c8:	003f8306 	br	2008ed8 <_fpadd_parts+0xe8>
 20090cc:	018dc83a 	sub	r6,zero,r6
 20090d0:	003f6706 	br	2008e70 <_fpadd_parts+0x80>
 20090d4:	00bfff84 	movi	r2,-2
 20090d8:	117faf36 	bltu	r2,r5,2008f98 <_fpadd_parts+0x1a8>
 20090dc:	003f9806 	br	2008f40 <_fpadd_parts+0x150>
 20090e0:	0005883a 	mov	r2,zero
 20090e4:	1189c83a 	sub	r4,r2,r6
 20090e8:	1105803a 	cmpltu	r2,r2,r4
 20090ec:	01cbc83a 	sub	r5,zero,r7
 20090f0:	2885c83a 	sub	r2,r5,r2
 20090f4:	01800044 	movi	r6,1
 20090f8:	a1800115 	stw	r6,4(r20)
 20090fc:	a5c00215 	stw	r23,8(r20)
 2009100:	a1000315 	stw	r4,12(r20)
 2009104:	a0800415 	stw	r2,16(r20)
 2009108:	003f8206 	br	2008f14 <_fpadd_parts+0x124>
 200910c:	203f7226 	beq	r4,zero,2008ed8 <_fpadd_parts+0xe8>
 2009110:	35bff804 	addi	r22,r6,-32
 2009114:	b9af883a 	add	r23,r23,r6
 2009118:	b0003116 	blt	r22,zero,20091e0 <_fpadd_parts+0x3f0>
 200911c:	959ad83a 	srl	r13,r18,r22
 2009120:	001d883a 	mov	r14,zero
 2009124:	000f883a 	mov	r7,zero
 2009128:	01000044 	movi	r4,1
 200912c:	0011883a 	mov	r8,zero
 2009130:	b0002516 	blt	r22,zero,20091c8 <_fpadd_parts+0x3d8>
 2009134:	2594983a 	sll	r10,r4,r22
 2009138:	0013883a 	mov	r9,zero
 200913c:	00bfffc4 	movi	r2,-1
 2009140:	4889883a 	add	r4,r9,r2
 2009144:	508b883a 	add	r5,r10,r2
 2009148:	224d803a 	cmpltu	r6,r4,r9
 200914c:	314b883a 	add	r5,r6,r5
 2009150:	8904703a 	and	r2,r17,r4
 2009154:	9146703a 	and	r3,r18,r5
 2009158:	10c4b03a 	or	r2,r2,r3
 200915c:	10000226 	beq	r2,zero,2009168 <_fpadd_parts+0x378>
 2009160:	01c00044 	movi	r7,1
 2009164:	0011883a 	mov	r8,zero
 2009168:	69e2b03a 	or	r17,r13,r7
 200916c:	7224b03a 	or	r18,r14,r8
 2009170:	003f5906 	br	2008ed8 <_fpadd_parts+0xe8>
 2009174:	8407883a 	add	r3,r16,r16
 2009178:	008007c4 	movi	r2,31
 200917c:	1185c83a 	sub	r2,r2,r6
 2009180:	1886983a 	sll	r3,r3,r2
 2009184:	7996d83a 	srl	r11,r15,r6
 2009188:	8198d83a 	srl	r12,r16,r6
 200918c:	1ad6b03a 	or	r11,r3,r11
 2009190:	003f3e06 	br	2008e8c <_fpadd_parts+0x9c>
 2009194:	2006d07a 	srli	r3,r4,1
 2009198:	008007c4 	movi	r2,31
 200919c:	1185c83a 	sub	r2,r2,r6
 20091a0:	1890d83a 	srl	r8,r3,r2
 20091a4:	218e983a 	sll	r7,r4,r6
 20091a8:	003f3e06 	br	2008ea4 <_fpadd_parts+0xb4>
 20091ac:	113f821e 	bne	r2,r4,2008fb8 <_fpadd_parts+0x1c8>
 20091b0:	28c00117 	ldw	r3,4(r5)
 20091b4:	98800117 	ldw	r2,4(r19)
 20091b8:	10ff7f26 	beq	r2,r3,2008fb8 <_fpadd_parts+0x1c8>
 20091bc:	04c08074 	movhi	r19,513
 20091c0:	9cfa3504 	addi	r19,r19,-5932
 20091c4:	003f7c06 	br	2008fb8 <_fpadd_parts+0x1c8>
 20091c8:	2006d07a 	srli	r3,r4,1
 20091cc:	008007c4 	movi	r2,31
 20091d0:	1185c83a 	sub	r2,r2,r6
 20091d4:	1894d83a 	srl	r10,r3,r2
 20091d8:	2192983a 	sll	r9,r4,r6
 20091dc:	003fd706 	br	200913c <_fpadd_parts+0x34c>
 20091e0:	9487883a 	add	r3,r18,r18
 20091e4:	008007c4 	movi	r2,31
 20091e8:	1185c83a 	sub	r2,r2,r6
 20091ec:	1886983a 	sll	r3,r3,r2
 20091f0:	899ad83a 	srl	r13,r17,r6
 20091f4:	919cd83a 	srl	r14,r18,r6
 20091f8:	1b5ab03a 	or	r13,r3,r13
 20091fc:	003fc906 	br	2009124 <_fpadd_parts+0x334>

02009200 <__subdf3>:
 2009200:	deffea04 	addi	sp,sp,-88
 2009204:	dcc01415 	stw	r19,80(sp)
 2009208:	dcc00404 	addi	r19,sp,16
 200920c:	2011883a 	mov	r8,r4
 2009210:	2813883a 	mov	r9,r5
 2009214:	dc401315 	stw	r17,76(sp)
 2009218:	d809883a 	mov	r4,sp
 200921c:	980b883a 	mov	r5,r19
 2009220:	dc400904 	addi	r17,sp,36
 2009224:	dfc01515 	stw	ra,84(sp)
 2009228:	da400115 	stw	r9,4(sp)
 200922c:	d9c00315 	stw	r7,12(sp)
 2009230:	da000015 	stw	r8,0(sp)
 2009234:	d9800215 	stw	r6,8(sp)
 2009238:	200a6200 	call	200a620 <__unpack_d>
 200923c:	d9000204 	addi	r4,sp,8
 2009240:	880b883a 	mov	r5,r17
 2009244:	200a6200 	call	200a620 <__unpack_d>
 2009248:	d8800a17 	ldw	r2,40(sp)
 200924c:	880b883a 	mov	r5,r17
 2009250:	9809883a 	mov	r4,r19
 2009254:	d9800e04 	addi	r6,sp,56
 2009258:	1080005c 	xori	r2,r2,1
 200925c:	d8800a15 	stw	r2,40(sp)
 2009260:	2008df00 	call	2008df0 <_fpadd_parts>
 2009264:	1009883a 	mov	r4,r2
 2009268:	200a30c0 	call	200a30c <__pack_d>
 200926c:	dfc01517 	ldw	ra,84(sp)
 2009270:	dcc01417 	ldw	r19,80(sp)
 2009274:	dc401317 	ldw	r17,76(sp)
 2009278:	dec01604 	addi	sp,sp,88
 200927c:	f800283a 	ret

02009280 <__adddf3>:
 2009280:	deffea04 	addi	sp,sp,-88
 2009284:	dcc01415 	stw	r19,80(sp)
 2009288:	dcc00404 	addi	r19,sp,16
 200928c:	2011883a 	mov	r8,r4
 2009290:	2813883a 	mov	r9,r5
 2009294:	dc401315 	stw	r17,76(sp)
 2009298:	d809883a 	mov	r4,sp
 200929c:	980b883a 	mov	r5,r19
 20092a0:	dc400904 	addi	r17,sp,36
 20092a4:	dfc01515 	stw	ra,84(sp)
 20092a8:	da400115 	stw	r9,4(sp)
 20092ac:	d9c00315 	stw	r7,12(sp)
 20092b0:	da000015 	stw	r8,0(sp)
 20092b4:	d9800215 	stw	r6,8(sp)
 20092b8:	200a6200 	call	200a620 <__unpack_d>
 20092bc:	d9000204 	addi	r4,sp,8
 20092c0:	880b883a 	mov	r5,r17
 20092c4:	200a6200 	call	200a620 <__unpack_d>
 20092c8:	d9800e04 	addi	r6,sp,56
 20092cc:	9809883a 	mov	r4,r19
 20092d0:	880b883a 	mov	r5,r17
 20092d4:	2008df00 	call	2008df0 <_fpadd_parts>
 20092d8:	1009883a 	mov	r4,r2
 20092dc:	200a30c0 	call	200a30c <__pack_d>
 20092e0:	dfc01517 	ldw	ra,84(sp)
 20092e4:	dcc01417 	ldw	r19,80(sp)
 20092e8:	dc401317 	ldw	r17,76(sp)
 20092ec:	dec01604 	addi	sp,sp,88
 20092f0:	f800283a 	ret

020092f4 <__muldf3>:
 20092f4:	deffe004 	addi	sp,sp,-128
 20092f8:	dc401815 	stw	r17,96(sp)
 20092fc:	dc400404 	addi	r17,sp,16
 2009300:	2011883a 	mov	r8,r4
 2009304:	2813883a 	mov	r9,r5
 2009308:	dc001715 	stw	r16,92(sp)
 200930c:	d809883a 	mov	r4,sp
 2009310:	880b883a 	mov	r5,r17
 2009314:	dc000904 	addi	r16,sp,36
 2009318:	dfc01f15 	stw	ra,124(sp)
 200931c:	da400115 	stw	r9,4(sp)
 2009320:	d9c00315 	stw	r7,12(sp)
 2009324:	da000015 	stw	r8,0(sp)
 2009328:	d9800215 	stw	r6,8(sp)
 200932c:	ddc01e15 	stw	r23,120(sp)
 2009330:	dd801d15 	stw	r22,116(sp)
 2009334:	dd401c15 	stw	r21,112(sp)
 2009338:	dd001b15 	stw	r20,108(sp)
 200933c:	dcc01a15 	stw	r19,104(sp)
 2009340:	dc801915 	stw	r18,100(sp)
 2009344:	200a6200 	call	200a620 <__unpack_d>
 2009348:	d9000204 	addi	r4,sp,8
 200934c:	800b883a 	mov	r5,r16
 2009350:	200a6200 	call	200a620 <__unpack_d>
 2009354:	d9000417 	ldw	r4,16(sp)
 2009358:	00800044 	movi	r2,1
 200935c:	1100102e 	bgeu	r2,r4,20093a0 <__muldf3+0xac>
 2009360:	d8c00917 	ldw	r3,36(sp)
 2009364:	10c0062e 	bgeu	r2,r3,2009380 <__muldf3+0x8c>
 2009368:	00800104 	movi	r2,4
 200936c:	20800a26 	beq	r4,r2,2009398 <__muldf3+0xa4>
 2009370:	1880cc26 	beq	r3,r2,20096a4 <__muldf3+0x3b0>
 2009374:	00800084 	movi	r2,2
 2009378:	20800926 	beq	r4,r2,20093a0 <__muldf3+0xac>
 200937c:	1880191e 	bne	r3,r2,20093e4 <__muldf3+0xf0>
 2009380:	d8c00a17 	ldw	r3,40(sp)
 2009384:	d8800517 	ldw	r2,20(sp)
 2009388:	8009883a 	mov	r4,r16
 200938c:	10c4c03a 	cmpne	r2,r2,r3
 2009390:	d8800a15 	stw	r2,40(sp)
 2009394:	00000706 	br	20093b4 <__muldf3+0xc0>
 2009398:	00800084 	movi	r2,2
 200939c:	1880c326 	beq	r3,r2,20096ac <__muldf3+0x3b8>
 20093a0:	d8800517 	ldw	r2,20(sp)
 20093a4:	d8c00a17 	ldw	r3,40(sp)
 20093a8:	8809883a 	mov	r4,r17
 20093ac:	10c4c03a 	cmpne	r2,r2,r3
 20093b0:	d8800515 	stw	r2,20(sp)
 20093b4:	200a30c0 	call	200a30c <__pack_d>
 20093b8:	dfc01f17 	ldw	ra,124(sp)
 20093bc:	ddc01e17 	ldw	r23,120(sp)
 20093c0:	dd801d17 	ldw	r22,116(sp)
 20093c4:	dd401c17 	ldw	r21,112(sp)
 20093c8:	dd001b17 	ldw	r20,108(sp)
 20093cc:	dcc01a17 	ldw	r19,104(sp)
 20093d0:	dc801917 	ldw	r18,100(sp)
 20093d4:	dc401817 	ldw	r17,96(sp)
 20093d8:	dc001717 	ldw	r16,92(sp)
 20093dc:	dec02004 	addi	sp,sp,128
 20093e0:	f800283a 	ret
 20093e4:	dd800717 	ldw	r22,28(sp)
 20093e8:	dc800c17 	ldw	r18,48(sp)
 20093ec:	002b883a 	mov	r21,zero
 20093f0:	0023883a 	mov	r17,zero
 20093f4:	a80b883a 	mov	r5,r21
 20093f8:	b00d883a 	mov	r6,r22
 20093fc:	880f883a 	mov	r7,r17
 2009400:	ddc00817 	ldw	r23,32(sp)
 2009404:	dcc00d17 	ldw	r19,52(sp)
 2009408:	9009883a 	mov	r4,r18
 200940c:	2009ef80 	call	2009ef8 <__muldi3>
 2009410:	001b883a 	mov	r13,zero
 2009414:	680f883a 	mov	r7,r13
 2009418:	b009883a 	mov	r4,r22
 200941c:	000b883a 	mov	r5,zero
 2009420:	980d883a 	mov	r6,r19
 2009424:	b82d883a 	mov	r22,r23
 2009428:	002f883a 	mov	r23,zero
 200942c:	db401615 	stw	r13,88(sp)
 2009430:	d8801315 	stw	r2,76(sp)
 2009434:	d8c01415 	stw	r3,80(sp)
 2009438:	dcc01515 	stw	r19,84(sp)
 200943c:	2009ef80 	call	2009ef8 <__muldi3>
 2009440:	b00d883a 	mov	r6,r22
 2009444:	000b883a 	mov	r5,zero
 2009448:	9009883a 	mov	r4,r18
 200944c:	b80f883a 	mov	r7,r23
 2009450:	1021883a 	mov	r16,r2
 2009454:	1823883a 	mov	r17,r3
 2009458:	2009ef80 	call	2009ef8 <__muldi3>
 200945c:	8085883a 	add	r2,r16,r2
 2009460:	140d803a 	cmpltu	r6,r2,r16
 2009464:	88c7883a 	add	r3,r17,r3
 2009468:	30cd883a 	add	r6,r6,r3
 200946c:	1029883a 	mov	r20,r2
 2009470:	302b883a 	mov	r21,r6
 2009474:	da801317 	ldw	r10,76(sp)
 2009478:	dac01417 	ldw	r11,80(sp)
 200947c:	db001517 	ldw	r12,84(sp)
 2009480:	db401617 	ldw	r13,88(sp)
 2009484:	3440612e 	bgeu	r6,r17,200960c <__muldf3+0x318>
 2009488:	0009883a 	mov	r4,zero
 200948c:	5105883a 	add	r2,r10,r4
 2009490:	128d803a 	cmpltu	r6,r2,r10
 2009494:	5d07883a 	add	r3,r11,r20
 2009498:	30cd883a 	add	r6,r6,r3
 200949c:	0021883a 	mov	r16,zero
 20094a0:	04400044 	movi	r17,1
 20094a4:	1025883a 	mov	r18,r2
 20094a8:	3027883a 	mov	r19,r6
 20094ac:	32c06236 	bltu	r6,r11,2009638 <__muldf3+0x344>
 20094b0:	59807a26 	beq	r11,r6,200969c <__muldf3+0x3a8>
 20094b4:	680b883a 	mov	r5,r13
 20094b8:	b80f883a 	mov	r7,r23
 20094bc:	6009883a 	mov	r4,r12
 20094c0:	b00d883a 	mov	r6,r22
 20094c4:	2009ef80 	call	2009ef8 <__muldi3>
 20094c8:	1009883a 	mov	r4,r2
 20094cc:	000f883a 	mov	r7,zero
 20094d0:	1545883a 	add	r2,r2,r21
 20094d4:	1111803a 	cmpltu	r8,r2,r4
 20094d8:	19c7883a 	add	r3,r3,r7
 20094dc:	40c7883a 	add	r3,r8,r3
 20094e0:	88cb883a 	add	r5,r17,r3
 20094e4:	d8c00617 	ldw	r3,24(sp)
 20094e8:	8089883a 	add	r4,r16,r2
 20094ec:	d8800b17 	ldw	r2,44(sp)
 20094f0:	18c00104 	addi	r3,r3,4
 20094f4:	240d803a 	cmpltu	r6,r4,r16
 20094f8:	10c7883a 	add	r3,r2,r3
 20094fc:	2013883a 	mov	r9,r4
 2009500:	d8800a17 	ldw	r2,40(sp)
 2009504:	d9000517 	ldw	r4,20(sp)
 2009508:	314d883a 	add	r6,r6,r5
 200950c:	3015883a 	mov	r10,r6
 2009510:	2088c03a 	cmpne	r4,r4,r2
 2009514:	00880034 	movhi	r2,8192
 2009518:	10bfffc4 	addi	r2,r2,-1
 200951c:	d9000f15 	stw	r4,60(sp)
 2009520:	d8c01015 	stw	r3,64(sp)
 2009524:	1180162e 	bgeu	r2,r6,2009580 <__muldf3+0x28c>
 2009528:	1811883a 	mov	r8,r3
 200952c:	101f883a 	mov	r15,r2
 2009530:	980497fa 	slli	r2,r19,31
 2009534:	9016d07a 	srli	r11,r18,1
 2009538:	500697fa 	slli	r3,r10,31
 200953c:	480cd07a 	srli	r6,r9,1
 2009540:	500ed07a 	srli	r7,r10,1
 2009544:	12d6b03a 	or	r11,r2,r11
 2009548:	00800044 	movi	r2,1
 200954c:	198cb03a 	or	r6,r3,r6
 2009550:	4888703a 	and	r4,r9,r2
 2009554:	9818d07a 	srli	r12,r19,1
 2009558:	001b883a 	mov	r13,zero
 200955c:	03a00034 	movhi	r14,32768
 2009560:	3013883a 	mov	r9,r6
 2009564:	3815883a 	mov	r10,r7
 2009568:	4091883a 	add	r8,r8,r2
 200956c:	20000226 	beq	r4,zero,2009578 <__muldf3+0x284>
 2009570:	5b64b03a 	or	r18,r11,r13
 2009574:	63a6b03a 	or	r19,r12,r14
 2009578:	7abfed36 	bltu	r15,r10,2009530 <__muldf3+0x23c>
 200957c:	da001015 	stw	r8,64(sp)
 2009580:	00840034 	movhi	r2,4096
 2009584:	10bfffc4 	addi	r2,r2,-1
 2009588:	12801436 	bltu	r2,r10,20095dc <__muldf3+0x2e8>
 200958c:	da001017 	ldw	r8,64(sp)
 2009590:	101f883a 	mov	r15,r2
 2009594:	4a45883a 	add	r2,r9,r9
 2009598:	124d803a 	cmpltu	r6,r2,r9
 200959c:	5287883a 	add	r3,r10,r10
 20095a0:	9497883a 	add	r11,r18,r18
 20095a4:	5c8f803a 	cmpltu	r7,r11,r18
 20095a8:	9cd9883a 	add	r12,r19,r19
 20095ac:	01000044 	movi	r4,1
 20095b0:	30cd883a 	add	r6,r6,r3
 20095b4:	3b0f883a 	add	r7,r7,r12
 20095b8:	423fffc4 	addi	r8,r8,-1
 20095bc:	1013883a 	mov	r9,r2
 20095c0:	3015883a 	mov	r10,r6
 20095c4:	111ab03a 	or	r13,r2,r4
 20095c8:	98003016 	blt	r19,zero,200968c <__muldf3+0x398>
 20095cc:	5825883a 	mov	r18,r11
 20095d0:	3827883a 	mov	r19,r7
 20095d4:	7abfef2e 	bgeu	r15,r10,2009594 <__muldf3+0x2a0>
 20095d8:	da001015 	stw	r8,64(sp)
 20095dc:	00803fc4 	movi	r2,255
 20095e0:	488e703a 	and	r7,r9,r2
 20095e4:	00802004 	movi	r2,128
 20095e8:	0007883a 	mov	r3,zero
 20095ec:	0011883a 	mov	r8,zero
 20095f0:	38801826 	beq	r7,r2,2009654 <__muldf3+0x360>
 20095f4:	008000c4 	movi	r2,3
 20095f8:	d9000e04 	addi	r4,sp,56
 20095fc:	da801215 	stw	r10,72(sp)
 2009600:	d8800e15 	stw	r2,56(sp)
 2009604:	da401115 	stw	r9,68(sp)
 2009608:	003f6a06 	br	20093b4 <__muldf3+0xc0>
 200960c:	89802126 	beq	r17,r6,2009694 <__muldf3+0x3a0>
 2009610:	0009883a 	mov	r4,zero
 2009614:	5105883a 	add	r2,r10,r4
 2009618:	128d803a 	cmpltu	r6,r2,r10
 200961c:	5d07883a 	add	r3,r11,r20
 2009620:	30cd883a 	add	r6,r6,r3
 2009624:	0021883a 	mov	r16,zero
 2009628:	0023883a 	mov	r17,zero
 200962c:	1025883a 	mov	r18,r2
 2009630:	3027883a 	mov	r19,r6
 2009634:	32ff9e2e 	bgeu	r6,r11,20094b0 <__muldf3+0x1bc>
 2009638:	00800044 	movi	r2,1
 200963c:	8089883a 	add	r4,r16,r2
 2009640:	240d803a 	cmpltu	r6,r4,r16
 2009644:	344d883a 	add	r6,r6,r17
 2009648:	2021883a 	mov	r16,r4
 200964c:	3023883a 	mov	r17,r6
 2009650:	003f9806 	br	20094b4 <__muldf3+0x1c0>
 2009654:	403fe71e 	bne	r8,zero,20095f4 <__muldf3+0x300>
 2009658:	01004004 	movi	r4,256
 200965c:	4904703a 	and	r2,r9,r4
 2009660:	10c4b03a 	or	r2,r2,r3
 2009664:	103fe31e 	bne	r2,zero,20095f4 <__muldf3+0x300>
 2009668:	94c4b03a 	or	r2,r18,r19
 200966c:	103fe126 	beq	r2,zero,20095f4 <__muldf3+0x300>
 2009670:	49c5883a 	add	r2,r9,r7
 2009674:	1251803a 	cmpltu	r8,r2,r9
 2009678:	4291883a 	add	r8,r8,r10
 200967c:	013fc004 	movi	r4,-256
 2009680:	1112703a 	and	r9,r2,r4
 2009684:	4015883a 	mov	r10,r8
 2009688:	003fda06 	br	20095f4 <__muldf3+0x300>
 200968c:	6813883a 	mov	r9,r13
 2009690:	003fce06 	br	20095cc <__muldf3+0x2d8>
 2009694:	143f7c36 	bltu	r2,r16,2009488 <__muldf3+0x194>
 2009698:	003fdd06 	br	2009610 <__muldf3+0x31c>
 200969c:	12bf852e 	bgeu	r2,r10,20094b4 <__muldf3+0x1c0>
 20096a0:	003fe506 	br	2009638 <__muldf3+0x344>
 20096a4:	00800084 	movi	r2,2
 20096a8:	20bf351e 	bne	r4,r2,2009380 <__muldf3+0x8c>
 20096ac:	01008074 	movhi	r4,513
 20096b0:	213a3504 	addi	r4,r4,-5932
 20096b4:	003f3f06 	br	20093b4 <__muldf3+0xc0>

020096b8 <__divdf3>:
 20096b8:	deffed04 	addi	sp,sp,-76
 20096bc:	dcc01115 	stw	r19,68(sp)
 20096c0:	dcc00404 	addi	r19,sp,16
 20096c4:	2011883a 	mov	r8,r4
 20096c8:	2813883a 	mov	r9,r5
 20096cc:	dc000e15 	stw	r16,56(sp)
 20096d0:	d809883a 	mov	r4,sp
 20096d4:	980b883a 	mov	r5,r19
 20096d8:	dc000904 	addi	r16,sp,36
 20096dc:	dfc01215 	stw	ra,72(sp)
 20096e0:	da400115 	stw	r9,4(sp)
 20096e4:	d9c00315 	stw	r7,12(sp)
 20096e8:	da000015 	stw	r8,0(sp)
 20096ec:	d9800215 	stw	r6,8(sp)
 20096f0:	dc801015 	stw	r18,64(sp)
 20096f4:	dc400f15 	stw	r17,60(sp)
 20096f8:	200a6200 	call	200a620 <__unpack_d>
 20096fc:	d9000204 	addi	r4,sp,8
 2009700:	800b883a 	mov	r5,r16
 2009704:	200a6200 	call	200a620 <__unpack_d>
 2009708:	d9000417 	ldw	r4,16(sp)
 200970c:	00800044 	movi	r2,1
 2009710:	11000b2e 	bgeu	r2,r4,2009740 <__divdf3+0x88>
 2009714:	d9400917 	ldw	r5,36(sp)
 2009718:	1140762e 	bgeu	r2,r5,20098f4 <__divdf3+0x23c>
 200971c:	d8800517 	ldw	r2,20(sp)
 2009720:	d8c00a17 	ldw	r3,40(sp)
 2009724:	01800104 	movi	r6,4
 2009728:	10c4f03a 	xor	r2,r2,r3
 200972c:	d8800515 	stw	r2,20(sp)
 2009730:	21800226 	beq	r4,r6,200973c <__divdf3+0x84>
 2009734:	00800084 	movi	r2,2
 2009738:	2080141e 	bne	r4,r2,200978c <__divdf3+0xd4>
 200973c:	29000926 	beq	r5,r4,2009764 <__divdf3+0xac>
 2009740:	9809883a 	mov	r4,r19
 2009744:	200a30c0 	call	200a30c <__pack_d>
 2009748:	dfc01217 	ldw	ra,72(sp)
 200974c:	dcc01117 	ldw	r19,68(sp)
 2009750:	dc801017 	ldw	r18,64(sp)
 2009754:	dc400f17 	ldw	r17,60(sp)
 2009758:	dc000e17 	ldw	r16,56(sp)
 200975c:	dec01304 	addi	sp,sp,76
 2009760:	f800283a 	ret
 2009764:	01008074 	movhi	r4,513
 2009768:	213a3504 	addi	r4,r4,-5932
 200976c:	200a30c0 	call	200a30c <__pack_d>
 2009770:	dfc01217 	ldw	ra,72(sp)
 2009774:	dcc01117 	ldw	r19,68(sp)
 2009778:	dc801017 	ldw	r18,64(sp)
 200977c:	dc400f17 	ldw	r17,60(sp)
 2009780:	dc000e17 	ldw	r16,56(sp)
 2009784:	dec01304 	addi	sp,sp,76
 2009788:	f800283a 	ret
 200978c:	29805b26 	beq	r5,r6,20098fc <__divdf3+0x244>
 2009790:	28802d26 	beq	r5,r2,2009848 <__divdf3+0x190>
 2009794:	d8c00617 	ldw	r3,24(sp)
 2009798:	d8800b17 	ldw	r2,44(sp)
 200979c:	d9c00817 	ldw	r7,32(sp)
 20097a0:	dc400d17 	ldw	r17,52(sp)
 20097a4:	188bc83a 	sub	r5,r3,r2
 20097a8:	d9800717 	ldw	r6,28(sp)
 20097ac:	dc000c17 	ldw	r16,48(sp)
 20097b0:	d9400615 	stw	r5,24(sp)
 20097b4:	3c403836 	bltu	r7,r17,2009898 <__divdf3+0x1e0>
 20097b8:	89c03626 	beq	r17,r7,2009894 <__divdf3+0x1dc>
 20097bc:	0015883a 	mov	r10,zero
 20097c0:	001d883a 	mov	r14,zero
 20097c4:	02c40034 	movhi	r11,4096
 20097c8:	001f883a 	mov	r15,zero
 20097cc:	003f883a 	mov	ra,zero
 20097d0:	04800f44 	movi	r18,61
 20097d4:	00000f06 	br	2009814 <__divdf3+0x15c>
 20097d8:	601d883a 	mov	r14,r12
 20097dc:	681f883a 	mov	r15,r13
 20097e0:	400d883a 	mov	r6,r8
 20097e4:	100f883a 	mov	r7,r2
 20097e8:	3191883a 	add	r8,r6,r6
 20097ec:	5808d07a 	srli	r4,r11,1
 20097f0:	4185803a 	cmpltu	r2,r8,r6
 20097f4:	39d3883a 	add	r9,r7,r7
 20097f8:	28c6b03a 	or	r3,r5,r3
 20097fc:	1245883a 	add	r2,r2,r9
 2009800:	1815883a 	mov	r10,r3
 2009804:	2017883a 	mov	r11,r4
 2009808:	400d883a 	mov	r6,r8
 200980c:	100f883a 	mov	r7,r2
 2009810:	fc801726 	beq	ra,r18,2009870 <__divdf3+0x1b8>
 2009814:	580a97fa 	slli	r5,r11,31
 2009818:	5006d07a 	srli	r3,r10,1
 200981c:	ffc00044 	addi	ra,ra,1
 2009820:	3c7ff136 	bltu	r7,r17,20097e8 <__divdf3+0x130>
 2009824:	3411c83a 	sub	r8,r6,r16
 2009828:	3205803a 	cmpltu	r2,r6,r8
 200982c:	3c53c83a 	sub	r9,r7,r17
 2009830:	7298b03a 	or	r12,r14,r10
 2009834:	7adab03a 	or	r13,r15,r11
 2009838:	4885c83a 	sub	r2,r9,r2
 200983c:	89ffe61e 	bne	r17,r7,20097d8 <__divdf3+0x120>
 2009840:	343fe936 	bltu	r6,r16,20097e8 <__divdf3+0x130>
 2009844:	003fe406 	br	20097d8 <__divdf3+0x120>
 2009848:	9809883a 	mov	r4,r19
 200984c:	d9800415 	stw	r6,16(sp)
 2009850:	200a30c0 	call	200a30c <__pack_d>
 2009854:	dfc01217 	ldw	ra,72(sp)
 2009858:	dcc01117 	ldw	r19,68(sp)
 200985c:	dc801017 	ldw	r18,64(sp)
 2009860:	dc400f17 	ldw	r17,60(sp)
 2009864:	dc000e17 	ldw	r16,56(sp)
 2009868:	dec01304 	addi	sp,sp,76
 200986c:	f800283a 	ret
 2009870:	00803fc4 	movi	r2,255
 2009874:	7090703a 	and	r8,r14,r2
 2009878:	00802004 	movi	r2,128
 200987c:	0007883a 	mov	r3,zero
 2009880:	0013883a 	mov	r9,zero
 2009884:	40800d26 	beq	r8,r2,20098bc <__divdf3+0x204>
 2009888:	dbc00815 	stw	r15,32(sp)
 200988c:	db800715 	stw	r14,28(sp)
 2009890:	003fab06 	br	2009740 <__divdf3+0x88>
 2009894:	343fc92e 	bgeu	r6,r16,20097bc <__divdf3+0x104>
 2009898:	3185883a 	add	r2,r6,r6
 200989c:	1189803a 	cmpltu	r4,r2,r6
 20098a0:	39c7883a 	add	r3,r7,r7
 20098a4:	20c9883a 	add	r4,r4,r3
 20098a8:	297fffc4 	addi	r5,r5,-1
 20098ac:	100d883a 	mov	r6,r2
 20098b0:	200f883a 	mov	r7,r4
 20098b4:	d9400615 	stw	r5,24(sp)
 20098b8:	003fc006 	br	20097bc <__divdf3+0x104>
 20098bc:	483ff21e 	bne	r9,zero,2009888 <__divdf3+0x1d0>
 20098c0:	01004004 	movi	r4,256
 20098c4:	7104703a 	and	r2,r14,r4
 20098c8:	10c4b03a 	or	r2,r2,r3
 20098cc:	103fee1e 	bne	r2,zero,2009888 <__divdf3+0x1d0>
 20098d0:	31c4b03a 	or	r2,r6,r7
 20098d4:	103fec26 	beq	r2,zero,2009888 <__divdf3+0x1d0>
 20098d8:	7205883a 	add	r2,r14,r8
 20098dc:	1391803a 	cmpltu	r8,r2,r14
 20098e0:	43d1883a 	add	r8,r8,r15
 20098e4:	013fc004 	movi	r4,-256
 20098e8:	111c703a 	and	r14,r2,r4
 20098ec:	401f883a 	mov	r15,r8
 20098f0:	003fe506 	br	2009888 <__divdf3+0x1d0>
 20098f4:	8009883a 	mov	r4,r16
 20098f8:	003f9206 	br	2009744 <__divdf3+0x8c>
 20098fc:	9809883a 	mov	r4,r19
 2009900:	d8000715 	stw	zero,28(sp)
 2009904:	d8000815 	stw	zero,32(sp)
 2009908:	d8000615 	stw	zero,24(sp)
 200990c:	003f8d06 	br	2009744 <__divdf3+0x8c>

02009910 <__eqdf2>:
 2009910:	deffef04 	addi	sp,sp,-68
 2009914:	dc400f15 	stw	r17,60(sp)
 2009918:	dc400404 	addi	r17,sp,16
 200991c:	2005883a 	mov	r2,r4
 2009920:	2807883a 	mov	r3,r5
 2009924:	dc000e15 	stw	r16,56(sp)
 2009928:	d809883a 	mov	r4,sp
 200992c:	880b883a 	mov	r5,r17
 2009930:	dc000904 	addi	r16,sp,36
 2009934:	d8c00115 	stw	r3,4(sp)
 2009938:	d8800015 	stw	r2,0(sp)
 200993c:	d9800215 	stw	r6,8(sp)
 2009940:	dfc01015 	stw	ra,64(sp)
 2009944:	d9c00315 	stw	r7,12(sp)
 2009948:	200a6200 	call	200a620 <__unpack_d>
 200994c:	d9000204 	addi	r4,sp,8
 2009950:	800b883a 	mov	r5,r16
 2009954:	200a6200 	call	200a620 <__unpack_d>
 2009958:	d8800417 	ldw	r2,16(sp)
 200995c:	00c00044 	movi	r3,1
 2009960:	180d883a 	mov	r6,r3
 2009964:	1880062e 	bgeu	r3,r2,2009980 <__eqdf2+0x70>
 2009968:	d8800917 	ldw	r2,36(sp)
 200996c:	8809883a 	mov	r4,r17
 2009970:	800b883a 	mov	r5,r16
 2009974:	1880022e 	bgeu	r3,r2,2009980 <__eqdf2+0x70>
 2009978:	200a7580 	call	200a758 <__fpcmp_parts_d>
 200997c:	100d883a 	mov	r6,r2
 2009980:	3005883a 	mov	r2,r6
 2009984:	dfc01017 	ldw	ra,64(sp)
 2009988:	dc400f17 	ldw	r17,60(sp)
 200998c:	dc000e17 	ldw	r16,56(sp)
 2009990:	dec01104 	addi	sp,sp,68
 2009994:	f800283a 	ret

02009998 <__gtdf2>:
 2009998:	deffef04 	addi	sp,sp,-68
 200999c:	dc400f15 	stw	r17,60(sp)
 20099a0:	dc400404 	addi	r17,sp,16
 20099a4:	2005883a 	mov	r2,r4
 20099a8:	2807883a 	mov	r3,r5
 20099ac:	dc000e15 	stw	r16,56(sp)
 20099b0:	d809883a 	mov	r4,sp
 20099b4:	880b883a 	mov	r5,r17
 20099b8:	dc000904 	addi	r16,sp,36
 20099bc:	d8c00115 	stw	r3,4(sp)
 20099c0:	d8800015 	stw	r2,0(sp)
 20099c4:	d9800215 	stw	r6,8(sp)
 20099c8:	dfc01015 	stw	ra,64(sp)
 20099cc:	d9c00315 	stw	r7,12(sp)
 20099d0:	200a6200 	call	200a620 <__unpack_d>
 20099d4:	d9000204 	addi	r4,sp,8
 20099d8:	800b883a 	mov	r5,r16
 20099dc:	200a6200 	call	200a620 <__unpack_d>
 20099e0:	d8800417 	ldw	r2,16(sp)
 20099e4:	00c00044 	movi	r3,1
 20099e8:	01bfffc4 	movi	r6,-1
 20099ec:	1880062e 	bgeu	r3,r2,2009a08 <__gtdf2+0x70>
 20099f0:	d8800917 	ldw	r2,36(sp)
 20099f4:	8809883a 	mov	r4,r17
 20099f8:	800b883a 	mov	r5,r16
 20099fc:	1880022e 	bgeu	r3,r2,2009a08 <__gtdf2+0x70>
 2009a00:	200a7580 	call	200a758 <__fpcmp_parts_d>
 2009a04:	100d883a 	mov	r6,r2
 2009a08:	3005883a 	mov	r2,r6
 2009a0c:	dfc01017 	ldw	ra,64(sp)
 2009a10:	dc400f17 	ldw	r17,60(sp)
 2009a14:	dc000e17 	ldw	r16,56(sp)
 2009a18:	dec01104 	addi	sp,sp,68
 2009a1c:	f800283a 	ret

02009a20 <__gedf2>:
 2009a20:	deffef04 	addi	sp,sp,-68
 2009a24:	dc400f15 	stw	r17,60(sp)
 2009a28:	dc400404 	addi	r17,sp,16
 2009a2c:	2005883a 	mov	r2,r4
 2009a30:	2807883a 	mov	r3,r5
 2009a34:	dc000e15 	stw	r16,56(sp)
 2009a38:	d809883a 	mov	r4,sp
 2009a3c:	880b883a 	mov	r5,r17
 2009a40:	dc000904 	addi	r16,sp,36
 2009a44:	d8c00115 	stw	r3,4(sp)
 2009a48:	d8800015 	stw	r2,0(sp)
 2009a4c:	d9800215 	stw	r6,8(sp)
 2009a50:	dfc01015 	stw	ra,64(sp)
 2009a54:	d9c00315 	stw	r7,12(sp)
 2009a58:	200a6200 	call	200a620 <__unpack_d>
 2009a5c:	d9000204 	addi	r4,sp,8
 2009a60:	800b883a 	mov	r5,r16
 2009a64:	200a6200 	call	200a620 <__unpack_d>
 2009a68:	d8800417 	ldw	r2,16(sp)
 2009a6c:	00c00044 	movi	r3,1
 2009a70:	01bfffc4 	movi	r6,-1
 2009a74:	1880062e 	bgeu	r3,r2,2009a90 <__gedf2+0x70>
 2009a78:	d8800917 	ldw	r2,36(sp)
 2009a7c:	8809883a 	mov	r4,r17
 2009a80:	800b883a 	mov	r5,r16
 2009a84:	1880022e 	bgeu	r3,r2,2009a90 <__gedf2+0x70>
 2009a88:	200a7580 	call	200a758 <__fpcmp_parts_d>
 2009a8c:	100d883a 	mov	r6,r2
 2009a90:	3005883a 	mov	r2,r6
 2009a94:	dfc01017 	ldw	ra,64(sp)
 2009a98:	dc400f17 	ldw	r17,60(sp)
 2009a9c:	dc000e17 	ldw	r16,56(sp)
 2009aa0:	dec01104 	addi	sp,sp,68
 2009aa4:	f800283a 	ret

02009aa8 <__ltdf2>:
 2009aa8:	deffef04 	addi	sp,sp,-68
 2009aac:	dc400f15 	stw	r17,60(sp)
 2009ab0:	dc400404 	addi	r17,sp,16
 2009ab4:	2005883a 	mov	r2,r4
 2009ab8:	2807883a 	mov	r3,r5
 2009abc:	dc000e15 	stw	r16,56(sp)
 2009ac0:	d809883a 	mov	r4,sp
 2009ac4:	880b883a 	mov	r5,r17
 2009ac8:	dc000904 	addi	r16,sp,36
 2009acc:	d8c00115 	stw	r3,4(sp)
 2009ad0:	d8800015 	stw	r2,0(sp)
 2009ad4:	d9800215 	stw	r6,8(sp)
 2009ad8:	dfc01015 	stw	ra,64(sp)
 2009adc:	d9c00315 	stw	r7,12(sp)
 2009ae0:	200a6200 	call	200a620 <__unpack_d>
 2009ae4:	d9000204 	addi	r4,sp,8
 2009ae8:	800b883a 	mov	r5,r16
 2009aec:	200a6200 	call	200a620 <__unpack_d>
 2009af0:	d8800417 	ldw	r2,16(sp)
 2009af4:	00c00044 	movi	r3,1
 2009af8:	180d883a 	mov	r6,r3
 2009afc:	1880062e 	bgeu	r3,r2,2009b18 <__ltdf2+0x70>
 2009b00:	d8800917 	ldw	r2,36(sp)
 2009b04:	8809883a 	mov	r4,r17
 2009b08:	800b883a 	mov	r5,r16
 2009b0c:	1880022e 	bgeu	r3,r2,2009b18 <__ltdf2+0x70>
 2009b10:	200a7580 	call	200a758 <__fpcmp_parts_d>
 2009b14:	100d883a 	mov	r6,r2
 2009b18:	3005883a 	mov	r2,r6
 2009b1c:	dfc01017 	ldw	ra,64(sp)
 2009b20:	dc400f17 	ldw	r17,60(sp)
 2009b24:	dc000e17 	ldw	r16,56(sp)
 2009b28:	dec01104 	addi	sp,sp,68
 2009b2c:	f800283a 	ret

02009b30 <__floatsidf>:
 2009b30:	2006d7fa 	srli	r3,r4,31
 2009b34:	defff604 	addi	sp,sp,-40
 2009b38:	008000c4 	movi	r2,3
 2009b3c:	dfc00915 	stw	ra,36(sp)
 2009b40:	dcc00815 	stw	r19,32(sp)
 2009b44:	dc800715 	stw	r18,28(sp)
 2009b48:	dc400615 	stw	r17,24(sp)
 2009b4c:	dc000515 	stw	r16,20(sp)
 2009b50:	d8800015 	stw	r2,0(sp)
 2009b54:	d8c00115 	stw	r3,4(sp)
 2009b58:	20000f1e 	bne	r4,zero,2009b98 <__floatsidf+0x68>
 2009b5c:	00800084 	movi	r2,2
 2009b60:	d8800015 	stw	r2,0(sp)
 2009b64:	d809883a 	mov	r4,sp
 2009b68:	200a30c0 	call	200a30c <__pack_d>
 2009b6c:	1009883a 	mov	r4,r2
 2009b70:	180b883a 	mov	r5,r3
 2009b74:	2005883a 	mov	r2,r4
 2009b78:	2807883a 	mov	r3,r5
 2009b7c:	dfc00917 	ldw	ra,36(sp)
 2009b80:	dcc00817 	ldw	r19,32(sp)
 2009b84:	dc800717 	ldw	r18,28(sp)
 2009b88:	dc400617 	ldw	r17,24(sp)
 2009b8c:	dc000517 	ldw	r16,20(sp)
 2009b90:	dec00a04 	addi	sp,sp,40
 2009b94:	f800283a 	ret
 2009b98:	00800f04 	movi	r2,60
 2009b9c:	1807003a 	cmpeq	r3,r3,zero
 2009ba0:	d8800215 	stw	r2,8(sp)
 2009ba4:	18001126 	beq	r3,zero,2009bec <__floatsidf+0xbc>
 2009ba8:	0027883a 	mov	r19,zero
 2009bac:	2025883a 	mov	r18,r4
 2009bb0:	d9000315 	stw	r4,12(sp)
 2009bb4:	dcc00415 	stw	r19,16(sp)
 2009bb8:	2009f900 	call	2009f90 <__clzsi2>
 2009bbc:	11000744 	addi	r4,r2,29
 2009bc0:	013fe80e 	bge	zero,r4,2009b64 <__floatsidf+0x34>
 2009bc4:	10bfff44 	addi	r2,r2,-3
 2009bc8:	10000c16 	blt	r2,zero,2009bfc <__floatsidf+0xcc>
 2009bcc:	90a2983a 	sll	r17,r18,r2
 2009bd0:	0021883a 	mov	r16,zero
 2009bd4:	d8800217 	ldw	r2,8(sp)
 2009bd8:	dc400415 	stw	r17,16(sp)
 2009bdc:	dc000315 	stw	r16,12(sp)
 2009be0:	1105c83a 	sub	r2,r2,r4
 2009be4:	d8800215 	stw	r2,8(sp)
 2009be8:	003fde06 	br	2009b64 <__floatsidf+0x34>
 2009bec:	00a00034 	movhi	r2,32768
 2009bf0:	20800a26 	beq	r4,r2,2009c1c <__floatsidf+0xec>
 2009bf4:	0109c83a 	sub	r4,zero,r4
 2009bf8:	003feb06 	br	2009ba8 <__floatsidf+0x78>
 2009bfc:	9006d07a 	srli	r3,r18,1
 2009c00:	008007c4 	movi	r2,31
 2009c04:	1105c83a 	sub	r2,r2,r4
 2009c08:	1886d83a 	srl	r3,r3,r2
 2009c0c:	9922983a 	sll	r17,r19,r4
 2009c10:	9120983a 	sll	r16,r18,r4
 2009c14:	1c62b03a 	or	r17,r3,r17
 2009c18:	003fee06 	br	2009bd4 <__floatsidf+0xa4>
 2009c1c:	0009883a 	mov	r4,zero
 2009c20:	01707834 	movhi	r5,49632
 2009c24:	003fd306 	br	2009b74 <__floatsidf+0x44>

02009c28 <__fixdfsi>:
 2009c28:	defff804 	addi	sp,sp,-32
 2009c2c:	2005883a 	mov	r2,r4
 2009c30:	2807883a 	mov	r3,r5
 2009c34:	d809883a 	mov	r4,sp
 2009c38:	d9400204 	addi	r5,sp,8
 2009c3c:	d8c00115 	stw	r3,4(sp)
 2009c40:	d8800015 	stw	r2,0(sp)
 2009c44:	dfc00715 	stw	ra,28(sp)
 2009c48:	200a6200 	call	200a620 <__unpack_d>
 2009c4c:	d8c00217 	ldw	r3,8(sp)
 2009c50:	00800084 	movi	r2,2
 2009c54:	1880051e 	bne	r3,r2,2009c6c <__fixdfsi+0x44>
 2009c58:	0007883a 	mov	r3,zero
 2009c5c:	1805883a 	mov	r2,r3
 2009c60:	dfc00717 	ldw	ra,28(sp)
 2009c64:	dec00804 	addi	sp,sp,32
 2009c68:	f800283a 	ret
 2009c6c:	00800044 	movi	r2,1
 2009c70:	10fff92e 	bgeu	r2,r3,2009c58 <__fixdfsi+0x30>
 2009c74:	00800104 	movi	r2,4
 2009c78:	18800426 	beq	r3,r2,2009c8c <__fixdfsi+0x64>
 2009c7c:	d8c00417 	ldw	r3,16(sp)
 2009c80:	183ff516 	blt	r3,zero,2009c58 <__fixdfsi+0x30>
 2009c84:	00800784 	movi	r2,30
 2009c88:	10c0080e 	bge	r2,r3,2009cac <__fixdfsi+0x84>
 2009c8c:	d8800317 	ldw	r2,12(sp)
 2009c90:	1000121e 	bne	r2,zero,2009cdc <__fixdfsi+0xb4>
 2009c94:	00e00034 	movhi	r3,32768
 2009c98:	18ffffc4 	addi	r3,r3,-1
 2009c9c:	1805883a 	mov	r2,r3
 2009ca0:	dfc00717 	ldw	ra,28(sp)
 2009ca4:	dec00804 	addi	sp,sp,32
 2009ca8:	f800283a 	ret
 2009cac:	00800f04 	movi	r2,60
 2009cb0:	10d1c83a 	sub	r8,r2,r3
 2009cb4:	40bff804 	addi	r2,r8,-32
 2009cb8:	d9800517 	ldw	r6,20(sp)
 2009cbc:	d9c00617 	ldw	r7,24(sp)
 2009cc0:	10000816 	blt	r2,zero,2009ce4 <__fixdfsi+0xbc>
 2009cc4:	3888d83a 	srl	r4,r7,r2
 2009cc8:	d8800317 	ldw	r2,12(sp)
 2009ccc:	2007883a 	mov	r3,r4
 2009cd0:	103fe226 	beq	r2,zero,2009c5c <__fixdfsi+0x34>
 2009cd4:	0107c83a 	sub	r3,zero,r4
 2009cd8:	003fe006 	br	2009c5c <__fixdfsi+0x34>
 2009cdc:	00e00034 	movhi	r3,32768
 2009ce0:	003fde06 	br	2009c5c <__fixdfsi+0x34>
 2009ce4:	39c7883a 	add	r3,r7,r7
 2009ce8:	008007c4 	movi	r2,31
 2009cec:	1205c83a 	sub	r2,r2,r8
 2009cf0:	1886983a 	sll	r3,r3,r2
 2009cf4:	3208d83a 	srl	r4,r6,r8
 2009cf8:	1908b03a 	or	r4,r3,r4
 2009cfc:	003ff206 	br	2009cc8 <__fixdfsi+0xa0>

02009d00 <__make_dp>:
 2009d00:	defff904 	addi	sp,sp,-28
 2009d04:	d8c00717 	ldw	r3,28(sp)
 2009d08:	d9000015 	stw	r4,0(sp)
 2009d0c:	d809883a 	mov	r4,sp
 2009d10:	dfc00515 	stw	ra,20(sp)
 2009d14:	d9c00615 	stw	r7,24(sp)
 2009d18:	d9400115 	stw	r5,4(sp)
 2009d1c:	d9800215 	stw	r6,8(sp)
 2009d20:	d8c00415 	stw	r3,16(sp)
 2009d24:	d9c00315 	stw	r7,12(sp)
 2009d28:	200a30c0 	call	200a30c <__pack_d>
 2009d2c:	dfc00517 	ldw	ra,20(sp)
 2009d30:	dec00704 	addi	sp,sp,28
 2009d34:	f800283a 	ret

02009d38 <__truncdfsf2>:
 2009d38:	defff804 	addi	sp,sp,-32
 2009d3c:	2005883a 	mov	r2,r4
 2009d40:	2807883a 	mov	r3,r5
 2009d44:	d809883a 	mov	r4,sp
 2009d48:	d9400204 	addi	r5,sp,8
 2009d4c:	d8c00115 	stw	r3,4(sp)
 2009d50:	d8800015 	stw	r2,0(sp)
 2009d54:	dfc00715 	stw	ra,28(sp)
 2009d58:	200a6200 	call	200a620 <__unpack_d>
 2009d5c:	d9c00517 	ldw	r7,20(sp)
 2009d60:	da000617 	ldw	r8,24(sp)
 2009d64:	02d00034 	movhi	r11,16384
 2009d68:	5affffc4 	addi	r11,r11,-1
 2009d6c:	3812d7ba 	srli	r9,r7,30
 2009d70:	401a90ba 	slli	r13,r8,2
 2009d74:	3ac4703a 	and	r2,r7,r11
 2009d78:	0007883a 	mov	r3,zero
 2009d7c:	6a52b03a 	or	r9,r13,r9
 2009d80:	10c4b03a 	or	r2,r2,r3
 2009d84:	d9000217 	ldw	r4,8(sp)
 2009d88:	d9400317 	ldw	r5,12(sp)
 2009d8c:	d9800417 	ldw	r6,16(sp)
 2009d90:	480f883a 	mov	r7,r9
 2009d94:	10000126 	beq	r2,zero,2009d9c <__truncdfsf2+0x64>
 2009d98:	49c00054 	ori	r7,r9,1
 2009d9c:	200a2e00 	call	200a2e0 <__make_fp>
 2009da0:	dfc00717 	ldw	ra,28(sp)
 2009da4:	dec00804 	addi	sp,sp,32
 2009da8:	f800283a 	ret

02009dac <udivmodsi4>:
 2009dac:	29001b2e 	bgeu	r5,r4,2009e1c <udivmodsi4+0x70>
 2009db0:	28001a16 	blt	r5,zero,2009e1c <udivmodsi4+0x70>
 2009db4:	00800044 	movi	r2,1
 2009db8:	0007883a 	mov	r3,zero
 2009dbc:	01c007c4 	movi	r7,31
 2009dc0:	00000306 	br	2009dd0 <udivmodsi4+0x24>
 2009dc4:	19c01326 	beq	r3,r7,2009e14 <udivmodsi4+0x68>
 2009dc8:	18c00044 	addi	r3,r3,1
 2009dcc:	28000416 	blt	r5,zero,2009de0 <udivmodsi4+0x34>
 2009dd0:	294b883a 	add	r5,r5,r5
 2009dd4:	1085883a 	add	r2,r2,r2
 2009dd8:	293ffa36 	bltu	r5,r4,2009dc4 <udivmodsi4+0x18>
 2009ddc:	10000d26 	beq	r2,zero,2009e14 <udivmodsi4+0x68>
 2009de0:	0007883a 	mov	r3,zero
 2009de4:	21400236 	bltu	r4,r5,2009df0 <udivmodsi4+0x44>
 2009de8:	2149c83a 	sub	r4,r4,r5
 2009dec:	1886b03a 	or	r3,r3,r2
 2009df0:	1004d07a 	srli	r2,r2,1
 2009df4:	280ad07a 	srli	r5,r5,1
 2009df8:	103ffa1e 	bne	r2,zero,2009de4 <udivmodsi4+0x38>
 2009dfc:	30000226 	beq	r6,zero,2009e08 <udivmodsi4+0x5c>
 2009e00:	2005883a 	mov	r2,r4
 2009e04:	f800283a 	ret
 2009e08:	1809883a 	mov	r4,r3
 2009e0c:	2005883a 	mov	r2,r4
 2009e10:	f800283a 	ret
 2009e14:	0007883a 	mov	r3,zero
 2009e18:	003ff806 	br	2009dfc <udivmodsi4+0x50>
 2009e1c:	00800044 	movi	r2,1
 2009e20:	0007883a 	mov	r3,zero
 2009e24:	003fef06 	br	2009de4 <udivmodsi4+0x38>

02009e28 <__divsi3>:
 2009e28:	defffe04 	addi	sp,sp,-8
 2009e2c:	dc000015 	stw	r16,0(sp)
 2009e30:	dfc00115 	stw	ra,4(sp)
 2009e34:	0021883a 	mov	r16,zero
 2009e38:	20000c16 	blt	r4,zero,2009e6c <__divsi3+0x44>
 2009e3c:	000d883a 	mov	r6,zero
 2009e40:	28000e16 	blt	r5,zero,2009e7c <__divsi3+0x54>
 2009e44:	2009dac0 	call	2009dac <udivmodsi4>
 2009e48:	1007883a 	mov	r3,r2
 2009e4c:	8005003a 	cmpeq	r2,r16,zero
 2009e50:	1000011e 	bne	r2,zero,2009e58 <__divsi3+0x30>
 2009e54:	00c7c83a 	sub	r3,zero,r3
 2009e58:	1805883a 	mov	r2,r3
 2009e5c:	dfc00117 	ldw	ra,4(sp)
 2009e60:	dc000017 	ldw	r16,0(sp)
 2009e64:	dec00204 	addi	sp,sp,8
 2009e68:	f800283a 	ret
 2009e6c:	0109c83a 	sub	r4,zero,r4
 2009e70:	04000044 	movi	r16,1
 2009e74:	000d883a 	mov	r6,zero
 2009e78:	283ff20e 	bge	r5,zero,2009e44 <__divsi3+0x1c>
 2009e7c:	014bc83a 	sub	r5,zero,r5
 2009e80:	8021003a 	cmpeq	r16,r16,zero
 2009e84:	003fef06 	br	2009e44 <__divsi3+0x1c>

02009e88 <__modsi3>:
 2009e88:	deffff04 	addi	sp,sp,-4
 2009e8c:	dfc00015 	stw	ra,0(sp)
 2009e90:	01800044 	movi	r6,1
 2009e94:	2807883a 	mov	r3,r5
 2009e98:	20000416 	blt	r4,zero,2009eac <__modsi3+0x24>
 2009e9c:	28000c16 	blt	r5,zero,2009ed0 <__modsi3+0x48>
 2009ea0:	dfc00017 	ldw	ra,0(sp)
 2009ea4:	dec00104 	addi	sp,sp,4
 2009ea8:	2009dac1 	jmpi	2009dac <udivmodsi4>
 2009eac:	0109c83a 	sub	r4,zero,r4
 2009eb0:	28000b16 	blt	r5,zero,2009ee0 <__modsi3+0x58>
 2009eb4:	180b883a 	mov	r5,r3
 2009eb8:	01800044 	movi	r6,1
 2009ebc:	2009dac0 	call	2009dac <udivmodsi4>
 2009ec0:	0085c83a 	sub	r2,zero,r2
 2009ec4:	dfc00017 	ldw	ra,0(sp)
 2009ec8:	dec00104 	addi	sp,sp,4
 2009ecc:	f800283a 	ret
 2009ed0:	014bc83a 	sub	r5,zero,r5
 2009ed4:	dfc00017 	ldw	ra,0(sp)
 2009ed8:	dec00104 	addi	sp,sp,4
 2009edc:	2009dac1 	jmpi	2009dac <udivmodsi4>
 2009ee0:	0147c83a 	sub	r3,zero,r5
 2009ee4:	003ff306 	br	2009eb4 <__modsi3+0x2c>

02009ee8 <__udivsi3>:
 2009ee8:	000d883a 	mov	r6,zero
 2009eec:	2009dac1 	jmpi	2009dac <udivmodsi4>

02009ef0 <__umodsi3>:
 2009ef0:	01800044 	movi	r6,1
 2009ef4:	2009dac1 	jmpi	2009dac <udivmodsi4>

02009ef8 <__muldi3>:
 2009ef8:	2011883a 	mov	r8,r4
 2009efc:	427fffcc 	andi	r9,r8,65535
 2009f00:	4018d43a 	srli	r12,r8,16
 2009f04:	32bfffcc 	andi	r10,r6,65535
 2009f08:	3016d43a 	srli	r11,r6,16
 2009f0c:	4a85383a 	mul	r2,r9,r10
 2009f10:	6295383a 	mul	r10,r12,r10
 2009f14:	4ad3383a 	mul	r9,r9,r11
 2009f18:	113fffcc 	andi	r4,r2,65535
 2009f1c:	1004d43a 	srli	r2,r2,16
 2009f20:	4a93883a 	add	r9,r9,r10
 2009f24:	3807883a 	mov	r3,r7
 2009f28:	1245883a 	add	r2,r2,r9
 2009f2c:	280f883a 	mov	r7,r5
 2009f30:	180b883a 	mov	r5,r3
 2009f34:	1006943a 	slli	r3,r2,16
 2009f38:	defffd04 	addi	sp,sp,-12
 2009f3c:	dc800215 	stw	r18,8(sp)
 2009f40:	1907883a 	add	r3,r3,r4
 2009f44:	dc400115 	stw	r17,4(sp)
 2009f48:	dc000015 	stw	r16,0(sp)
 2009f4c:	4165383a 	mul	r18,r8,r5
 2009f50:	31e3383a 	mul	r17,r6,r7
 2009f54:	1012d43a 	srli	r9,r2,16
 2009f58:	62d9383a 	mul	r12,r12,r11
 2009f5c:	181f883a 	mov	r15,r3
 2009f60:	1280022e 	bgeu	r2,r10,2009f6c <__muldi3+0x74>
 2009f64:	00800074 	movhi	r2,1
 2009f68:	6099883a 	add	r12,r12,r2
 2009f6c:	624d883a 	add	r6,r12,r9
 2009f70:	9187883a 	add	r3,r18,r6
 2009f74:	88c7883a 	add	r3,r17,r3
 2009f78:	7805883a 	mov	r2,r15
 2009f7c:	dc800217 	ldw	r18,8(sp)
 2009f80:	dc400117 	ldw	r17,4(sp)
 2009f84:	dc000017 	ldw	r16,0(sp)
 2009f88:	dec00304 	addi	sp,sp,12
 2009f8c:	f800283a 	ret

02009f90 <__clzsi2>:
 2009f90:	00bfffd4 	movui	r2,65535
 2009f94:	11000e36 	bltu	r2,r4,2009fd0 <__clzsi2+0x40>
 2009f98:	00803fc4 	movi	r2,255
 2009f9c:	01400204 	movi	r5,8
 2009fa0:	0007883a 	mov	r3,zero
 2009fa4:	11001036 	bltu	r2,r4,2009fe8 <__clzsi2+0x58>
 2009fa8:	000b883a 	mov	r5,zero
 2009fac:	20c6d83a 	srl	r3,r4,r3
 2009fb0:	00808074 	movhi	r2,513
 2009fb4:	10ba3a04 	addi	r2,r2,-5912
 2009fb8:	1887883a 	add	r3,r3,r2
 2009fbc:	18800003 	ldbu	r2,0(r3)
 2009fc0:	00c00804 	movi	r3,32
 2009fc4:	2885883a 	add	r2,r5,r2
 2009fc8:	1885c83a 	sub	r2,r3,r2
 2009fcc:	f800283a 	ret
 2009fd0:	01400404 	movi	r5,16
 2009fd4:	00804034 	movhi	r2,256
 2009fd8:	10bfffc4 	addi	r2,r2,-1
 2009fdc:	2807883a 	mov	r3,r5
 2009fe0:	113ff22e 	bgeu	r2,r4,2009fac <__clzsi2+0x1c>
 2009fe4:	01400604 	movi	r5,24
 2009fe8:	2807883a 	mov	r3,r5
 2009fec:	20c6d83a 	srl	r3,r4,r3
 2009ff0:	00808074 	movhi	r2,513
 2009ff4:	10ba3a04 	addi	r2,r2,-5912
 2009ff8:	1887883a 	add	r3,r3,r2
 2009ffc:	18800003 	ldbu	r2,0(r3)
 200a000:	00c00804 	movi	r3,32
 200a004:	2885883a 	add	r2,r5,r2
 200a008:	1885c83a 	sub	r2,r3,r2
 200a00c:	f800283a 	ret

0200a010 <__pack_f>:
 200a010:	20c00017 	ldw	r3,0(r4)
 200a014:	01c00044 	movi	r7,1
 200a018:	21800317 	ldw	r6,12(r4)
 200a01c:	21400117 	ldw	r5,4(r4)
 200a020:	38c02d2e 	bgeu	r7,r3,200a0d8 <__pack_f+0xc8>
 200a024:	00800104 	movi	r2,4
 200a028:	18802826 	beq	r3,r2,200a0cc <__pack_f+0xbc>
 200a02c:	00800084 	movi	r2,2
 200a030:	18800126 	beq	r3,r2,200a038 <__pack_f+0x28>
 200a034:	3000101e 	bne	r6,zero,200a078 <__pack_f+0x68>
 200a038:	000d883a 	mov	r6,zero
 200a03c:	0007883a 	mov	r3,zero
 200a040:	19003fcc 	andi	r4,r3,255
 200a044:	200895fa 	slli	r4,r4,23
 200a048:	00c02034 	movhi	r3,128
 200a04c:	18ffffc4 	addi	r3,r3,-1
 200a050:	30c6703a 	and	r3,r6,r3
 200a054:	10a0002c 	andhi	r2,r2,32768
 200a058:	10c4b03a 	or	r2,r2,r3
 200a05c:	280a97fa 	slli	r5,r5,31
 200a060:	1104b03a 	or	r2,r2,r4
 200a064:	00e00034 	movhi	r3,32768
 200a068:	18ffffc4 	addi	r3,r3,-1
 200a06c:	10c4703a 	and	r2,r2,r3
 200a070:	1144b03a 	or	r2,r2,r5
 200a074:	f800283a 	ret
 200a078:	21000217 	ldw	r4,8(r4)
 200a07c:	00bfe084 	movi	r2,-126
 200a080:	20801b16 	blt	r4,r2,200a0f0 <__pack_f+0xe0>
 200a084:	00801fc4 	movi	r2,127
 200a088:	11001016 	blt	r2,r4,200a0cc <__pack_f+0xbc>
 200a08c:	308e703a 	and	r7,r6,r2
 200a090:	2087883a 	add	r3,r4,r2
 200a094:	00801004 	movi	r2,64
 200a098:	38800526 	beq	r7,r2,200a0b0 <__pack_f+0xa0>
 200a09c:	31800fc4 	addi	r6,r6,63
 200a0a0:	30000716 	blt	r6,zero,200a0c0 <__pack_f+0xb0>
 200a0a4:	300490ba 	slli	r2,r6,2
 200a0a8:	100cd27a 	srli	r6,r2,9
 200a0ac:	003fe406 	br	200a040 <__pack_f+0x30>
 200a0b0:	3080200c 	andi	r2,r6,128
 200a0b4:	103ffa26 	beq	r2,zero,200a0a0 <__pack_f+0x90>
 200a0b8:	31cd883a 	add	r6,r6,r7
 200a0bc:	003ff806 	br	200a0a0 <__pack_f+0x90>
 200a0c0:	300cd07a 	srli	r6,r6,1
 200a0c4:	18c00044 	addi	r3,r3,1
 200a0c8:	003ff606 	br	200a0a4 <__pack_f+0x94>
 200a0cc:	000d883a 	mov	r6,zero
 200a0d0:	00ffffc4 	movi	r3,-1
 200a0d4:	003fda06 	br	200a040 <__pack_f+0x30>
 200a0d8:	31800434 	orhi	r6,r6,16
 200a0dc:	00802034 	movhi	r2,128
 200a0e0:	10bfffc4 	addi	r2,r2,-1
 200a0e4:	308c703a 	and	r6,r6,r2
 200a0e8:	00ffffc4 	movi	r3,-1
 200a0ec:	003fd406 	br	200a040 <__pack_f+0x30>
 200a0f0:	1109c83a 	sub	r4,r2,r4
 200a0f4:	00800644 	movi	r2,25
 200a0f8:	11001216 	blt	r2,r4,200a144 <__pack_f+0x134>
 200a0fc:	3904983a 	sll	r2,r7,r4
 200a100:	3106d83a 	srl	r3,r6,r4
 200a104:	10bfffc4 	addi	r2,r2,-1
 200a108:	3084703a 	and	r2,r6,r2
 200a10c:	1004c03a 	cmpne	r2,r2,zero
 200a110:	1886b03a 	or	r3,r3,r2
 200a114:	19001fcc 	andi	r4,r3,127
 200a118:	00801004 	movi	r2,64
 200a11c:	20800c26 	beq	r4,r2,200a150 <__pack_f+0x140>
 200a120:	18c00fc4 	addi	r3,r3,63
 200a124:	00900034 	movhi	r2,16384
 200a128:	10bfffc4 	addi	r2,r2,-1
 200a12c:	180cd1fa 	srli	r6,r3,7
 200a130:	10c7803a 	cmpltu	r3,r2,r3
 200a134:	00802034 	movhi	r2,128
 200a138:	10bfffc4 	addi	r2,r2,-1
 200a13c:	308c703a 	and	r6,r6,r2
 200a140:	003fbf06 	br	200a040 <__pack_f+0x30>
 200a144:	0007883a 	mov	r3,zero
 200a148:	000d883a 	mov	r6,zero
 200a14c:	003ff906 	br	200a134 <__pack_f+0x124>
 200a150:	1880200c 	andi	r2,r3,128
 200a154:	10000126 	beq	r2,zero,200a15c <__pack_f+0x14c>
 200a158:	1907883a 	add	r3,r3,r4
 200a15c:	180cd1fa 	srli	r6,r3,7
 200a160:	00900034 	movhi	r2,16384
 200a164:	10bfffc4 	addi	r2,r2,-1
 200a168:	10c7803a 	cmpltu	r3,r2,r3
 200a16c:	003ff106 	br	200a134 <__pack_f+0x124>

0200a170 <__unpack_f>:
 200a170:	21800017 	ldw	r6,0(r4)
 200a174:	00c02034 	movhi	r3,128
 200a178:	18ffffc4 	addi	r3,r3,-1
 200a17c:	3004d5fa 	srli	r2,r6,23
 200a180:	3008d7fa 	srli	r4,r6,31
 200a184:	30ce703a 	and	r7,r6,r3
 200a188:	10c03fcc 	andi	r3,r2,255
 200a18c:	29000115 	stw	r4,4(r5)
 200a190:	1800131e 	bne	r3,zero,200a1e0 <__unpack_f+0x70>
 200a194:	38000f26 	beq	r7,zero,200a1d4 <__unpack_f+0x64>
 200a198:	380691fa 	slli	r3,r7,7
 200a19c:	01bfe084 	movi	r6,-126
 200a1a0:	008000c4 	movi	r2,3
 200a1a4:	01100034 	movhi	r4,16384
 200a1a8:	213fffc4 	addi	r4,r4,-1
 200a1ac:	28800015 	stw	r2,0(r5)
 200a1b0:	29800215 	stw	r6,8(r5)
 200a1b4:	20c00536 	bltu	r4,r3,200a1cc <__unpack_f+0x5c>
 200a1b8:	3005883a 	mov	r2,r6
 200a1bc:	18c7883a 	add	r3,r3,r3
 200a1c0:	10bfffc4 	addi	r2,r2,-1
 200a1c4:	20fffd2e 	bgeu	r4,r3,200a1bc <__unpack_f+0x4c>
 200a1c8:	28800215 	stw	r2,8(r5)
 200a1cc:	28c00315 	stw	r3,12(r5)
 200a1d0:	f800283a 	ret
 200a1d4:	00800084 	movi	r2,2
 200a1d8:	28800015 	stw	r2,0(r5)
 200a1dc:	f800283a 	ret
 200a1e0:	00803fc4 	movi	r2,255
 200a1e4:	18800826 	beq	r3,r2,200a208 <__unpack_f+0x98>
 200a1e8:	380491fa 	slli	r2,r7,7
 200a1ec:	18ffe044 	addi	r3,r3,-127
 200a1f0:	28c00215 	stw	r3,8(r5)
 200a1f4:	10900034 	orhi	r2,r2,16384
 200a1f8:	28800315 	stw	r2,12(r5)
 200a1fc:	008000c4 	movi	r2,3
 200a200:	28800015 	stw	r2,0(r5)
 200a204:	f800283a 	ret
 200a208:	3800031e 	bne	r7,zero,200a218 <__unpack_f+0xa8>
 200a20c:	00800104 	movi	r2,4
 200a210:	28800015 	stw	r2,0(r5)
 200a214:	f800283a 	ret
 200a218:	3080042c 	andhi	r2,r6,16
 200a21c:	10000426 	beq	r2,zero,200a230 <__unpack_f+0xc0>
 200a220:	00800044 	movi	r2,1
 200a224:	28800015 	stw	r2,0(r5)
 200a228:	29c00315 	stw	r7,12(r5)
 200a22c:	f800283a 	ret
 200a230:	28000015 	stw	zero,0(r5)
 200a234:	003ffc06 	br	200a228 <__unpack_f+0xb8>

0200a238 <__fpcmp_parts_f>:
 200a238:	21800017 	ldw	r6,0(r4)
 200a23c:	00c00044 	movi	r3,1
 200a240:	19800a2e 	bgeu	r3,r6,200a26c <__fpcmp_parts_f+0x34>
 200a244:	28800017 	ldw	r2,0(r5)
 200a248:	1880082e 	bgeu	r3,r2,200a26c <__fpcmp_parts_f+0x34>
 200a24c:	00c00104 	movi	r3,4
 200a250:	30c01e26 	beq	r6,r3,200a2cc <__fpcmp_parts_f+0x94>
 200a254:	10c01a26 	beq	r2,r3,200a2c0 <__fpcmp_parts_f+0x88>
 200a258:	00c00084 	movi	r3,2
 200a25c:	30c00526 	beq	r6,r3,200a274 <__fpcmp_parts_f+0x3c>
 200a260:	10c0071e 	bne	r2,r3,200a280 <__fpcmp_parts_f+0x48>
 200a264:	20800117 	ldw	r2,4(r4)
 200a268:	1000091e 	bne	r2,zero,200a290 <__fpcmp_parts_f+0x58>
 200a26c:	00800044 	movi	r2,1
 200a270:	f800283a 	ret
 200a274:	10c0121e 	bne	r2,r3,200a2c0 <__fpcmp_parts_f+0x88>
 200a278:	0005883a 	mov	r2,zero
 200a27c:	f800283a 	ret
 200a280:	20c00117 	ldw	r3,4(r4)
 200a284:	28800117 	ldw	r2,4(r5)
 200a288:	18800326 	beq	r3,r2,200a298 <__fpcmp_parts_f+0x60>
 200a28c:	183ff726 	beq	r3,zero,200a26c <__fpcmp_parts_f+0x34>
 200a290:	00bfffc4 	movi	r2,-1
 200a294:	f800283a 	ret
 200a298:	21800217 	ldw	r6,8(r4)
 200a29c:	28800217 	ldw	r2,8(r5)
 200a2a0:	11bffa16 	blt	r2,r6,200a28c <__fpcmp_parts_f+0x54>
 200a2a4:	30800416 	blt	r6,r2,200a2b8 <__fpcmp_parts_f+0x80>
 200a2a8:	21000317 	ldw	r4,12(r4)
 200a2ac:	29400317 	ldw	r5,12(r5)
 200a2b0:	293ff636 	bltu	r5,r4,200a28c <__fpcmp_parts_f+0x54>
 200a2b4:	217ff02e 	bgeu	r4,r5,200a278 <__fpcmp_parts_f+0x40>
 200a2b8:	183fec1e 	bne	r3,zero,200a26c <__fpcmp_parts_f+0x34>
 200a2bc:	003ff406 	br	200a290 <__fpcmp_parts_f+0x58>
 200a2c0:	28800117 	ldw	r2,4(r5)
 200a2c4:	103fe91e 	bne	r2,zero,200a26c <__fpcmp_parts_f+0x34>
 200a2c8:	003ff106 	br	200a290 <__fpcmp_parts_f+0x58>
 200a2cc:	11bfe51e 	bne	r2,r6,200a264 <__fpcmp_parts_f+0x2c>
 200a2d0:	28c00117 	ldw	r3,4(r5)
 200a2d4:	20800117 	ldw	r2,4(r4)
 200a2d8:	1885c83a 	sub	r2,r3,r2
 200a2dc:	f800283a 	ret

0200a2e0 <__make_fp>:
 200a2e0:	defffb04 	addi	sp,sp,-20
 200a2e4:	d9000015 	stw	r4,0(sp)
 200a2e8:	d809883a 	mov	r4,sp
 200a2ec:	dfc00415 	stw	ra,16(sp)
 200a2f0:	d9400115 	stw	r5,4(sp)
 200a2f4:	d9800215 	stw	r6,8(sp)
 200a2f8:	d9c00315 	stw	r7,12(sp)
 200a2fc:	200a0100 	call	200a010 <__pack_f>
 200a300:	dfc00417 	ldw	ra,16(sp)
 200a304:	dec00504 	addi	sp,sp,20
 200a308:	f800283a 	ret

0200a30c <__pack_d>:
 200a30c:	20c00017 	ldw	r3,0(r4)
 200a310:	defffd04 	addi	sp,sp,-12
 200a314:	dc000015 	stw	r16,0(sp)
 200a318:	dc800215 	stw	r18,8(sp)
 200a31c:	dc400115 	stw	r17,4(sp)
 200a320:	00800044 	movi	r2,1
 200a324:	22000317 	ldw	r8,12(r4)
 200a328:	001f883a 	mov	r15,zero
 200a32c:	22400417 	ldw	r9,16(r4)
 200a330:	24000117 	ldw	r16,4(r4)
 200a334:	10c0552e 	bgeu	r2,r3,200a48c <__pack_d+0x180>
 200a338:	00800104 	movi	r2,4
 200a33c:	18804f26 	beq	r3,r2,200a47c <__pack_d+0x170>
 200a340:	00800084 	movi	r2,2
 200a344:	18800226 	beq	r3,r2,200a350 <__pack_d+0x44>
 200a348:	4244b03a 	or	r2,r8,r9
 200a34c:	10001a1e 	bne	r2,zero,200a3b8 <__pack_d+0xac>
 200a350:	000d883a 	mov	r6,zero
 200a354:	000f883a 	mov	r7,zero
 200a358:	0011883a 	mov	r8,zero
 200a35c:	00800434 	movhi	r2,16
 200a360:	10bfffc4 	addi	r2,r2,-1
 200a364:	301d883a 	mov	r14,r6
 200a368:	3884703a 	and	r2,r7,r2
 200a36c:	400a953a 	slli	r5,r8,20
 200a370:	79bffc2c 	andhi	r6,r15,65520
 200a374:	308cb03a 	or	r6,r6,r2
 200a378:	00e00434 	movhi	r3,32784
 200a37c:	18ffffc4 	addi	r3,r3,-1
 200a380:	800497fa 	slli	r2,r16,31
 200a384:	30c6703a 	and	r3,r6,r3
 200a388:	1946b03a 	or	r3,r3,r5
 200a38c:	01600034 	movhi	r5,32768
 200a390:	297fffc4 	addi	r5,r5,-1
 200a394:	194a703a 	and	r5,r3,r5
 200a398:	288ab03a 	or	r5,r5,r2
 200a39c:	2807883a 	mov	r3,r5
 200a3a0:	7005883a 	mov	r2,r14
 200a3a4:	dc800217 	ldw	r18,8(sp)
 200a3a8:	dc400117 	ldw	r17,4(sp)
 200a3ac:	dc000017 	ldw	r16,0(sp)
 200a3b0:	dec00304 	addi	sp,sp,12
 200a3b4:	f800283a 	ret
 200a3b8:	21000217 	ldw	r4,8(r4)
 200a3bc:	00bf0084 	movi	r2,-1022
 200a3c0:	20803f16 	blt	r4,r2,200a4c0 <__pack_d+0x1b4>
 200a3c4:	0080ffc4 	movi	r2,1023
 200a3c8:	11002c16 	blt	r2,r4,200a47c <__pack_d+0x170>
 200a3cc:	00803fc4 	movi	r2,255
 200a3d0:	408c703a 	and	r6,r8,r2
 200a3d4:	00802004 	movi	r2,128
 200a3d8:	0007883a 	mov	r3,zero
 200a3dc:	000f883a 	mov	r7,zero
 200a3e0:	2280ffc4 	addi	r10,r4,1023
 200a3e4:	30801e26 	beq	r6,r2,200a460 <__pack_d+0x154>
 200a3e8:	00801fc4 	movi	r2,127
 200a3ec:	4089883a 	add	r4,r8,r2
 200a3f0:	220d803a 	cmpltu	r6,r4,r8
 200a3f4:	324d883a 	add	r6,r6,r9
 200a3f8:	2011883a 	mov	r8,r4
 200a3fc:	3013883a 	mov	r9,r6
 200a400:	00880034 	movhi	r2,8192
 200a404:	10bfffc4 	addi	r2,r2,-1
 200a408:	12400d36 	bltu	r2,r9,200a440 <__pack_d+0x134>
 200a40c:	4804963a 	slli	r2,r9,24
 200a410:	400cd23a 	srli	r6,r8,8
 200a414:	480ed23a 	srli	r7,r9,8
 200a418:	013fffc4 	movi	r4,-1
 200a41c:	118cb03a 	or	r6,r2,r6
 200a420:	01400434 	movhi	r5,16
 200a424:	297fffc4 	addi	r5,r5,-1
 200a428:	3104703a 	and	r2,r6,r4
 200a42c:	3946703a 	and	r3,r7,r5
 200a430:	5201ffcc 	andi	r8,r10,2047
 200a434:	100d883a 	mov	r6,r2
 200a438:	180f883a 	mov	r7,r3
 200a43c:	003fc706 	br	200a35c <__pack_d+0x50>
 200a440:	480897fa 	slli	r4,r9,31
 200a444:	4004d07a 	srli	r2,r8,1
 200a448:	4806d07a 	srli	r3,r9,1
 200a44c:	52800044 	addi	r10,r10,1
 200a450:	2084b03a 	or	r2,r4,r2
 200a454:	1011883a 	mov	r8,r2
 200a458:	1813883a 	mov	r9,r3
 200a45c:	003feb06 	br	200a40c <__pack_d+0x100>
 200a460:	383fe11e 	bne	r7,zero,200a3e8 <__pack_d+0xdc>
 200a464:	01004004 	movi	r4,256
 200a468:	4104703a 	and	r2,r8,r4
 200a46c:	10c4b03a 	or	r2,r2,r3
 200a470:	103fe326 	beq	r2,zero,200a400 <__pack_d+0xf4>
 200a474:	3005883a 	mov	r2,r6
 200a478:	003fdc06 	br	200a3ec <__pack_d+0xe0>
 200a47c:	000d883a 	mov	r6,zero
 200a480:	000f883a 	mov	r7,zero
 200a484:	0201ffc4 	movi	r8,2047
 200a488:	003fb406 	br	200a35c <__pack_d+0x50>
 200a48c:	0005883a 	mov	r2,zero
 200a490:	00c00234 	movhi	r3,8
 200a494:	408cb03a 	or	r6,r8,r2
 200a498:	48ceb03a 	or	r7,r9,r3
 200a49c:	013fffc4 	movi	r4,-1
 200a4a0:	01400434 	movhi	r5,16
 200a4a4:	297fffc4 	addi	r5,r5,-1
 200a4a8:	3104703a 	and	r2,r6,r4
 200a4ac:	3946703a 	and	r3,r7,r5
 200a4b0:	100d883a 	mov	r6,r2
 200a4b4:	180f883a 	mov	r7,r3
 200a4b8:	0201ffc4 	movi	r8,2047
 200a4bc:	003fa706 	br	200a35c <__pack_d+0x50>
 200a4c0:	1109c83a 	sub	r4,r2,r4
 200a4c4:	00800e04 	movi	r2,56
 200a4c8:	11004316 	blt	r2,r4,200a5d8 <__pack_d+0x2cc>
 200a4cc:	21fff804 	addi	r7,r4,-32
 200a4d0:	38004516 	blt	r7,zero,200a5e8 <__pack_d+0x2dc>
 200a4d4:	49d8d83a 	srl	r12,r9,r7
 200a4d8:	001b883a 	mov	r13,zero
 200a4dc:	0023883a 	mov	r17,zero
 200a4e0:	01400044 	movi	r5,1
 200a4e4:	0025883a 	mov	r18,zero
 200a4e8:	38004716 	blt	r7,zero,200a608 <__pack_d+0x2fc>
 200a4ec:	29d6983a 	sll	r11,r5,r7
 200a4f0:	0015883a 	mov	r10,zero
 200a4f4:	00bfffc4 	movi	r2,-1
 200a4f8:	5089883a 	add	r4,r10,r2
 200a4fc:	588b883a 	add	r5,r11,r2
 200a500:	228d803a 	cmpltu	r6,r4,r10
 200a504:	314b883a 	add	r5,r6,r5
 200a508:	4104703a 	and	r2,r8,r4
 200a50c:	4946703a 	and	r3,r9,r5
 200a510:	10c4b03a 	or	r2,r2,r3
 200a514:	10000226 	beq	r2,zero,200a520 <__pack_d+0x214>
 200a518:	04400044 	movi	r17,1
 200a51c:	0025883a 	mov	r18,zero
 200a520:	00803fc4 	movi	r2,255
 200a524:	644eb03a 	or	r7,r12,r17
 200a528:	3892703a 	and	r9,r7,r2
 200a52c:	00802004 	movi	r2,128
 200a530:	6c90b03a 	or	r8,r13,r18
 200a534:	0015883a 	mov	r10,zero
 200a538:	48801626 	beq	r9,r2,200a594 <__pack_d+0x288>
 200a53c:	01001fc4 	movi	r4,127
 200a540:	3905883a 	add	r2,r7,r4
 200a544:	11cd803a 	cmpltu	r6,r2,r7
 200a548:	320d883a 	add	r6,r6,r8
 200a54c:	100f883a 	mov	r7,r2
 200a550:	00840034 	movhi	r2,4096
 200a554:	10bfffc4 	addi	r2,r2,-1
 200a558:	3011883a 	mov	r8,r6
 200a55c:	0007883a 	mov	r3,zero
 200a560:	11801b36 	bltu	r2,r6,200a5d0 <__pack_d+0x2c4>
 200a564:	4004963a 	slli	r2,r8,24
 200a568:	3808d23a 	srli	r4,r7,8
 200a56c:	400ad23a 	srli	r5,r8,8
 200a570:	1813883a 	mov	r9,r3
 200a574:	1108b03a 	or	r4,r2,r4
 200a578:	00bfffc4 	movi	r2,-1
 200a57c:	00c00434 	movhi	r3,16
 200a580:	18ffffc4 	addi	r3,r3,-1
 200a584:	208c703a 	and	r6,r4,r2
 200a588:	28ce703a 	and	r7,r5,r3
 200a58c:	4a01ffcc 	andi	r8,r9,2047
 200a590:	003f7206 	br	200a35c <__pack_d+0x50>
 200a594:	503fe91e 	bne	r10,zero,200a53c <__pack_d+0x230>
 200a598:	01004004 	movi	r4,256
 200a59c:	3904703a 	and	r2,r7,r4
 200a5a0:	0007883a 	mov	r3,zero
 200a5a4:	10c4b03a 	or	r2,r2,r3
 200a5a8:	10000626 	beq	r2,zero,200a5c4 <__pack_d+0x2b8>
 200a5ac:	3a45883a 	add	r2,r7,r9
 200a5b0:	11cd803a 	cmpltu	r6,r2,r7
 200a5b4:	320d883a 	add	r6,r6,r8
 200a5b8:	100f883a 	mov	r7,r2
 200a5bc:	3011883a 	mov	r8,r6
 200a5c0:	0007883a 	mov	r3,zero
 200a5c4:	00840034 	movhi	r2,4096
 200a5c8:	10bfffc4 	addi	r2,r2,-1
 200a5cc:	123fe52e 	bgeu	r2,r8,200a564 <__pack_d+0x258>
 200a5d0:	00c00044 	movi	r3,1
 200a5d4:	003fe306 	br	200a564 <__pack_d+0x258>
 200a5d8:	0009883a 	mov	r4,zero
 200a5dc:	0013883a 	mov	r9,zero
 200a5e0:	000b883a 	mov	r5,zero
 200a5e4:	003fe406 	br	200a578 <__pack_d+0x26c>
 200a5e8:	4a47883a 	add	r3,r9,r9
 200a5ec:	008007c4 	movi	r2,31
 200a5f0:	1105c83a 	sub	r2,r2,r4
 200a5f4:	1886983a 	sll	r3,r3,r2
 200a5f8:	4118d83a 	srl	r12,r8,r4
 200a5fc:	491ad83a 	srl	r13,r9,r4
 200a600:	1b18b03a 	or	r12,r3,r12
 200a604:	003fb506 	br	200a4dc <__pack_d+0x1d0>
 200a608:	2806d07a 	srli	r3,r5,1
 200a60c:	008007c4 	movi	r2,31
 200a610:	1105c83a 	sub	r2,r2,r4
 200a614:	1896d83a 	srl	r11,r3,r2
 200a618:	2914983a 	sll	r10,r5,r4
 200a61c:	003fb506 	br	200a4f4 <__pack_d+0x1e8>

0200a620 <__unpack_d>:
 200a620:	20c00117 	ldw	r3,4(r4)
 200a624:	22400017 	ldw	r9,0(r4)
 200a628:	00800434 	movhi	r2,16
 200a62c:	10bfffc4 	addi	r2,r2,-1
 200a630:	1808d53a 	srli	r4,r3,20
 200a634:	180cd7fa 	srli	r6,r3,31
 200a638:	1894703a 	and	r10,r3,r2
 200a63c:	2201ffcc 	andi	r8,r4,2047
 200a640:	281b883a 	mov	r13,r5
 200a644:	4817883a 	mov	r11,r9
 200a648:	29800115 	stw	r6,4(r5)
 200a64c:	5019883a 	mov	r12,r10
 200a650:	40001e1e 	bne	r8,zero,200a6cc <__unpack_d+0xac>
 200a654:	4a84b03a 	or	r2,r9,r10
 200a658:	10001926 	beq	r2,zero,200a6c0 <__unpack_d+0xa0>
 200a65c:	4804d63a 	srli	r2,r9,24
 200a660:	500c923a 	slli	r6,r10,8
 200a664:	013f0084 	movi	r4,-1022
 200a668:	00c40034 	movhi	r3,4096
 200a66c:	18ffffc4 	addi	r3,r3,-1
 200a670:	118cb03a 	or	r6,r2,r6
 200a674:	008000c4 	movi	r2,3
 200a678:	480a923a 	slli	r5,r9,8
 200a67c:	68800015 	stw	r2,0(r13)
 200a680:	69000215 	stw	r4,8(r13)
 200a684:	19800b36 	bltu	r3,r6,200a6b4 <__unpack_d+0x94>
 200a688:	200f883a 	mov	r7,r4
 200a68c:	1811883a 	mov	r8,r3
 200a690:	2945883a 	add	r2,r5,r5
 200a694:	1149803a 	cmpltu	r4,r2,r5
 200a698:	3187883a 	add	r3,r6,r6
 200a69c:	20c9883a 	add	r4,r4,r3
 200a6a0:	100b883a 	mov	r5,r2
 200a6a4:	200d883a 	mov	r6,r4
 200a6a8:	39ffffc4 	addi	r7,r7,-1
 200a6ac:	413ff82e 	bgeu	r8,r4,200a690 <__unpack_d+0x70>
 200a6b0:	69c00215 	stw	r7,8(r13)
 200a6b4:	69800415 	stw	r6,16(r13)
 200a6b8:	69400315 	stw	r5,12(r13)
 200a6bc:	f800283a 	ret
 200a6c0:	00800084 	movi	r2,2
 200a6c4:	28800015 	stw	r2,0(r5)
 200a6c8:	f800283a 	ret
 200a6cc:	0081ffc4 	movi	r2,2047
 200a6d0:	40800f26 	beq	r8,r2,200a710 <__unpack_d+0xf0>
 200a6d4:	480cd63a 	srli	r6,r9,24
 200a6d8:	5006923a 	slli	r3,r10,8
 200a6dc:	4804923a 	slli	r2,r9,8
 200a6e0:	0009883a 	mov	r4,zero
 200a6e4:	30c6b03a 	or	r3,r6,r3
 200a6e8:	01440034 	movhi	r5,4096
 200a6ec:	110cb03a 	or	r6,r2,r4
 200a6f0:	423f0044 	addi	r8,r8,-1023
 200a6f4:	194eb03a 	or	r7,r3,r5
 200a6f8:	008000c4 	movi	r2,3
 200a6fc:	69c00415 	stw	r7,16(r13)
 200a700:	6a000215 	stw	r8,8(r13)
 200a704:	68800015 	stw	r2,0(r13)
 200a708:	69800315 	stw	r6,12(r13)
 200a70c:	f800283a 	ret
 200a710:	4a84b03a 	or	r2,r9,r10
 200a714:	1000031e 	bne	r2,zero,200a724 <__unpack_d+0x104>
 200a718:	00800104 	movi	r2,4
 200a71c:	28800015 	stw	r2,0(r5)
 200a720:	f800283a 	ret
 200a724:	0009883a 	mov	r4,zero
 200a728:	01400234 	movhi	r5,8
 200a72c:	4904703a 	and	r2,r9,r4
 200a730:	5146703a 	and	r3,r10,r5
 200a734:	10c4b03a 	or	r2,r2,r3
 200a738:	10000526 	beq	r2,zero,200a750 <__unpack_d+0x130>
 200a73c:	00800044 	movi	r2,1
 200a740:	68800015 	stw	r2,0(r13)
 200a744:	6b000415 	stw	r12,16(r13)
 200a748:	6ac00315 	stw	r11,12(r13)
 200a74c:	f800283a 	ret
 200a750:	68000015 	stw	zero,0(r13)
 200a754:	003ffb06 	br	200a744 <__unpack_d+0x124>

0200a758 <__fpcmp_parts_d>:
 200a758:	21800017 	ldw	r6,0(r4)
 200a75c:	00c00044 	movi	r3,1
 200a760:	19800a2e 	bgeu	r3,r6,200a78c <__fpcmp_parts_d+0x34>
 200a764:	28800017 	ldw	r2,0(r5)
 200a768:	1880082e 	bgeu	r3,r2,200a78c <__fpcmp_parts_d+0x34>
 200a76c:	00c00104 	movi	r3,4
 200a770:	30c02626 	beq	r6,r3,200a80c <__fpcmp_parts_d+0xb4>
 200a774:	10c02226 	beq	r2,r3,200a800 <__fpcmp_parts_d+0xa8>
 200a778:	00c00084 	movi	r3,2
 200a77c:	30c00526 	beq	r6,r3,200a794 <__fpcmp_parts_d+0x3c>
 200a780:	10c0071e 	bne	r2,r3,200a7a0 <__fpcmp_parts_d+0x48>
 200a784:	20800117 	ldw	r2,4(r4)
 200a788:	1000091e 	bne	r2,zero,200a7b0 <__fpcmp_parts_d+0x58>
 200a78c:	00800044 	movi	r2,1
 200a790:	f800283a 	ret
 200a794:	10c01a1e 	bne	r2,r3,200a800 <__fpcmp_parts_d+0xa8>
 200a798:	0005883a 	mov	r2,zero
 200a79c:	f800283a 	ret
 200a7a0:	22000117 	ldw	r8,4(r4)
 200a7a4:	28800117 	ldw	r2,4(r5)
 200a7a8:	40800326 	beq	r8,r2,200a7b8 <__fpcmp_parts_d+0x60>
 200a7ac:	403ff726 	beq	r8,zero,200a78c <__fpcmp_parts_d+0x34>
 200a7b0:	00bfffc4 	movi	r2,-1
 200a7b4:	f800283a 	ret
 200a7b8:	20c00217 	ldw	r3,8(r4)
 200a7bc:	28800217 	ldw	r2,8(r5)
 200a7c0:	10fffa16 	blt	r2,r3,200a7ac <__fpcmp_parts_d+0x54>
 200a7c4:	18800916 	blt	r3,r2,200a7ec <__fpcmp_parts_d+0x94>
 200a7c8:	21c00417 	ldw	r7,16(r4)
 200a7cc:	28c00417 	ldw	r3,16(r5)
 200a7d0:	21800317 	ldw	r6,12(r4)
 200a7d4:	28800317 	ldw	r2,12(r5)
 200a7d8:	19fff436 	bltu	r3,r7,200a7ac <__fpcmp_parts_d+0x54>
 200a7dc:	38c00526 	beq	r7,r3,200a7f4 <__fpcmp_parts_d+0x9c>
 200a7e0:	38c00236 	bltu	r7,r3,200a7ec <__fpcmp_parts_d+0x94>
 200a7e4:	19ffec1e 	bne	r3,r7,200a798 <__fpcmp_parts_d+0x40>
 200a7e8:	30bfeb2e 	bgeu	r6,r2,200a798 <__fpcmp_parts_d+0x40>
 200a7ec:	403fe71e 	bne	r8,zero,200a78c <__fpcmp_parts_d+0x34>
 200a7f0:	003fef06 	br	200a7b0 <__fpcmp_parts_d+0x58>
 200a7f4:	11bffa2e 	bgeu	r2,r6,200a7e0 <__fpcmp_parts_d+0x88>
 200a7f8:	403fe426 	beq	r8,zero,200a78c <__fpcmp_parts_d+0x34>
 200a7fc:	003fec06 	br	200a7b0 <__fpcmp_parts_d+0x58>
 200a800:	28800117 	ldw	r2,4(r5)
 200a804:	103fe11e 	bne	r2,zero,200a78c <__fpcmp_parts_d+0x34>
 200a808:	003fe906 	br	200a7b0 <__fpcmp_parts_d+0x58>
 200a80c:	11bfdd1e 	bne	r2,r6,200a784 <__fpcmp_parts_d+0x2c>
 200a810:	28c00117 	ldw	r3,4(r5)
 200a814:	20800117 	ldw	r2,4(r4)
 200a818:	1885c83a 	sub	r2,r3,r2
 200a81c:	f800283a 	ret

0200a820 <__errno>:
 200a820:	00c08074 	movhi	r3,513
 200a824:	18c0f204 	addi	r3,r3,968
 200a828:	18800017 	ldw	r2,0(r3)
 200a82c:	f800283a 	ret

0200a830 <alt_irq_register>:
 200a830:	deffef04 	addi	sp,sp,-68
 200a834:	df001015 	stw	fp,64(sp)
 200a838:	df001004 	addi	fp,sp,64
 200a83c:	e13ffc15 	stw	r4,-16(fp)
 200a840:	e17ffd15 	stw	r5,-12(fp)
 200a844:	e1bffe15 	stw	r6,-8(fp)
 200a848:	00bffa84 	movi	r2,-22
 200a84c:	e0bffb15 	stw	r2,-20(fp)
 200a850:	e0bffc17 	ldw	r2,-16(fp)
 200a854:	10800828 	cmpgeui	r2,r2,32
 200a858:	1000601e 	bne	r2,zero,200a9dc <alt_irq_register+0x1ac>
 200a85c:	0005303a 	rdctl	r2,status
 200a860:	e0bff915 	stw	r2,-28(fp)
 200a864:	e0fff917 	ldw	r3,-28(fp)
 200a868:	00bfff84 	movi	r2,-2
 200a86c:	1884703a 	and	r2,r3,r2
 200a870:	1001703a 	wrctl	status,r2
 200a874:	e0bff917 	ldw	r2,-28(fp)
 200a878:	e0bffa15 	stw	r2,-24(fp)
 200a87c:	e0bffc17 	ldw	r2,-16(fp)
 200a880:	00c08074 	movhi	r3,513
 200a884:	18c3a504 	addi	r3,r3,3732
 200a888:	100490fa 	slli	r2,r2,3
 200a88c:	10c7883a 	add	r3,r2,r3
 200a890:	e0bffe17 	ldw	r2,-8(fp)
 200a894:	18800015 	stw	r2,0(r3)
 200a898:	e0bffc17 	ldw	r2,-16(fp)
 200a89c:	00c08074 	movhi	r3,513
 200a8a0:	18c3a504 	addi	r3,r3,3732
 200a8a4:	100490fa 	slli	r2,r2,3
 200a8a8:	10c5883a 	add	r2,r2,r3
 200a8ac:	10c00104 	addi	r3,r2,4
 200a8b0:	e0bffd17 	ldw	r2,-12(fp)
 200a8b4:	18800015 	stw	r2,0(r3)
 200a8b8:	e0bffe17 	ldw	r2,-8(fp)
 200a8bc:	1005003a 	cmpeq	r2,r2,zero
 200a8c0:	1000201e 	bne	r2,zero,200a944 <alt_irq_register+0x114>
 200a8c4:	e0bffc17 	ldw	r2,-16(fp)
 200a8c8:	e0bff715 	stw	r2,-36(fp)
 200a8cc:	0005303a 	rdctl	r2,status
 200a8d0:	e0bff615 	stw	r2,-40(fp)
 200a8d4:	e0fff617 	ldw	r3,-40(fp)
 200a8d8:	00bfff84 	movi	r2,-2
 200a8dc:	1884703a 	and	r2,r3,r2
 200a8e0:	1001703a 	wrctl	status,r2
 200a8e4:	e0bff617 	ldw	r2,-40(fp)
 200a8e8:	e0bff815 	stw	r2,-32(fp)
 200a8ec:	e0fff717 	ldw	r3,-36(fp)
 200a8f0:	00800044 	movi	r2,1
 200a8f4:	10c4983a 	sll	r2,r2,r3
 200a8f8:	1007883a 	mov	r3,r2
 200a8fc:	00808074 	movhi	r2,513
 200a900:	10818a04 	addi	r2,r2,1576
 200a904:	10800017 	ldw	r2,0(r2)
 200a908:	1886b03a 	or	r3,r3,r2
 200a90c:	00808074 	movhi	r2,513
 200a910:	10818a04 	addi	r2,r2,1576
 200a914:	10c00015 	stw	r3,0(r2)
 200a918:	00808074 	movhi	r2,513
 200a91c:	10818a04 	addi	r2,r2,1576
 200a920:	10800017 	ldw	r2,0(r2)
 200a924:	100170fa 	wrctl	ienable,r2
 200a928:	e0bff817 	ldw	r2,-32(fp)
 200a92c:	e0bff515 	stw	r2,-44(fp)
 200a930:	e0bff517 	ldw	r2,-44(fp)
 200a934:	1001703a 	wrctl	status,r2
 200a938:	0005883a 	mov	r2,zero
 200a93c:	e0bfff15 	stw	r2,-4(fp)
 200a940:	00002006 	br	200a9c4 <alt_irq_register+0x194>
 200a944:	e0bffc17 	ldw	r2,-16(fp)
 200a948:	e0bff315 	stw	r2,-52(fp)
 200a94c:	0005303a 	rdctl	r2,status
 200a950:	e0bff215 	stw	r2,-56(fp)
 200a954:	e0fff217 	ldw	r3,-56(fp)
 200a958:	00bfff84 	movi	r2,-2
 200a95c:	1884703a 	and	r2,r3,r2
 200a960:	1001703a 	wrctl	status,r2
 200a964:	e0bff217 	ldw	r2,-56(fp)
 200a968:	e0bff415 	stw	r2,-48(fp)
 200a96c:	e0fff317 	ldw	r3,-52(fp)
 200a970:	00800044 	movi	r2,1
 200a974:	10c4983a 	sll	r2,r2,r3
 200a978:	0084303a 	nor	r2,zero,r2
 200a97c:	1007883a 	mov	r3,r2
 200a980:	00808074 	movhi	r2,513
 200a984:	10818a04 	addi	r2,r2,1576
 200a988:	10800017 	ldw	r2,0(r2)
 200a98c:	1886703a 	and	r3,r3,r2
 200a990:	00808074 	movhi	r2,513
 200a994:	10818a04 	addi	r2,r2,1576
 200a998:	10c00015 	stw	r3,0(r2)
 200a99c:	00808074 	movhi	r2,513
 200a9a0:	10818a04 	addi	r2,r2,1576
 200a9a4:	10800017 	ldw	r2,0(r2)
 200a9a8:	100170fa 	wrctl	ienable,r2
 200a9ac:	e0bff417 	ldw	r2,-48(fp)
 200a9b0:	e0bff115 	stw	r2,-60(fp)
 200a9b4:	e0bff117 	ldw	r2,-60(fp)
 200a9b8:	1001703a 	wrctl	status,r2
 200a9bc:	0005883a 	mov	r2,zero
 200a9c0:	e0bfff15 	stw	r2,-4(fp)
 200a9c4:	e0bfff17 	ldw	r2,-4(fp)
 200a9c8:	e0bffb15 	stw	r2,-20(fp)
 200a9cc:	e0bffa17 	ldw	r2,-24(fp)
 200a9d0:	e0bff015 	stw	r2,-64(fp)
 200a9d4:	e0bff017 	ldw	r2,-64(fp)
 200a9d8:	1001703a 	wrctl	status,r2
 200a9dc:	e0bffb17 	ldw	r2,-20(fp)
 200a9e0:	e037883a 	mov	sp,fp
 200a9e4:	df000017 	ldw	fp,0(sp)
 200a9e8:	dec00104 	addi	sp,sp,4
 200a9ec:	f800283a 	ret

0200a9f0 <alt_main>:
 200a9f0:	defffd04 	addi	sp,sp,-12
 200a9f4:	dfc00215 	stw	ra,8(sp)
 200a9f8:	df000115 	stw	fp,4(sp)
 200a9fc:	df000104 	addi	fp,sp,4
 200aa00:	0009883a 	mov	r4,zero
 200aa04:	200aa5c0 	call	200aa5c <alt_irq_init>
 200aa08:	200aa900 	call	200aa90 <alt_sys_init>
 200aa0c:	01008074 	movhi	r4,513
 200aa10:	213a7b04 	addi	r4,r4,-5652
 200aa14:	01408074 	movhi	r5,513
 200aa18:	297a7b04 	addi	r5,r5,-5652
 200aa1c:	01808074 	movhi	r6,513
 200aa20:	31ba7b04 	addi	r6,r6,-5652
 200aa24:	200d7780 	call	200d778 <alt_io_redirect>
 200aa28:	200d2500 	call	200d250 <_do_ctors>
 200aa2c:	01008074 	movhi	r4,513
 200aa30:	2134ad04 	addi	r4,r4,-11596
 200aa34:	200e17c0 	call	200e17c <atexit>
 200aa38:	d120a717 	ldw	r4,-32100(gp)
 200aa3c:	d160a817 	ldw	r5,-32096(gp)
 200aa40:	d1a0a917 	ldw	r6,-32092(gp)
 200aa44:	20035400 	call	2003540 <main>
 200aa48:	e0bfff15 	stw	r2,-4(fp)
 200aa4c:	01000044 	movi	r4,1
 200aa50:	200cfb40 	call	200cfb4 <close>
 200aa54:	e13fff17 	ldw	r4,-4(fp)
 200aa58:	200e1900 	call	200e190 <exit>

0200aa5c <alt_irq_init>:
 200aa5c:	defffd04 	addi	sp,sp,-12
 200aa60:	dfc00215 	stw	ra,8(sp)
 200aa64:	df000115 	stw	fp,4(sp)
 200aa68:	df000104 	addi	fp,sp,4
 200aa6c:	e13fff15 	stw	r4,-4(fp)
 200aa70:	200dcb80 	call	200dcb8 <altera_nios2_irq_init>
 200aa74:	00800044 	movi	r2,1
 200aa78:	1001703a 	wrctl	status,r2
 200aa7c:	e037883a 	mov	sp,fp
 200aa80:	dfc00117 	ldw	ra,4(sp)
 200aa84:	df000017 	ldw	fp,0(sp)
 200aa88:	dec00204 	addi	sp,sp,8
 200aa8c:	f800283a 	ret

0200aa90 <alt_sys_init>:
 200aa90:	defffe04 	addi	sp,sp,-8
 200aa94:	dfc00115 	stw	ra,4(sp)
 200aa98:	df000015 	stw	fp,0(sp)
 200aa9c:	d839883a 	mov	fp,sp
 200aaa0:	01010034 	movhi	r4,1024
 200aaa4:	21080004 	addi	r4,r4,8192
 200aaa8:	000b883a 	mov	r5,zero
 200aaac:	01800044 	movi	r6,1
 200aab0:	01c023c4 	movi	r7,143
 200aab4:	200bfc00 	call	200bfc0 <alt_avalon_timer_sc_init>
 200aab8:	01008074 	movhi	r4,513
 200aabc:	213bcf04 	addi	r4,r4,-4292
 200aac0:	200ab700 	call	200ab70 <alt_epcs_flash_init>
 200aac4:	01008074 	movhi	r4,513
 200aac8:	213c0a04 	addi	r4,r4,-4056
 200aacc:	000b883a 	mov	r5,zero
 200aad0:	000d883a 	mov	r6,zero
 200aad4:	200b5ec0 	call	200b5ec <altera_avalon_jtag_uart_init>
 200aad8:	01008074 	movhi	r4,513
 200aadc:	213c0004 	addi	r4,r4,-4096
 200aae0:	200ab380 	call	200ab38 <alt_dev_reg>
 200aae4:	01008074 	movhi	r4,513
 200aae8:	21002204 	addi	r4,r4,136
 200aaec:	000b883a 	mov	r5,zero
 200aaf0:	018000c4 	movi	r6,3
 200aaf4:	200c1480 	call	200c148 <altera_avalon_uart_init>
 200aaf8:	01008074 	movhi	r4,513
 200aafc:	21001804 	addi	r4,r4,96
 200ab00:	200ab380 	call	200ab38 <alt_dev_reg>
 200ab04:	01008074 	movhi	r4,513
 200ab08:	21005304 	addi	r4,r4,332
 200ab0c:	000b883a 	mov	r5,zero
 200ab10:	01800104 	movi	r6,4
 200ab14:	200c1480 	call	200c148 <altera_avalon_uart_init>
 200ab18:	01008074 	movhi	r4,513
 200ab1c:	21004904 	addi	r4,r4,292
 200ab20:	200ab380 	call	200ab38 <alt_dev_reg>
 200ab24:	e037883a 	mov	sp,fp
 200ab28:	dfc00117 	ldw	ra,4(sp)
 200ab2c:	df000017 	ldw	fp,0(sp)
 200ab30:	dec00204 	addi	sp,sp,8
 200ab34:	f800283a 	ret

0200ab38 <alt_dev_reg>:
 200ab38:	defffd04 	addi	sp,sp,-12
 200ab3c:	dfc00215 	stw	ra,8(sp)
 200ab40:	df000115 	stw	fp,4(sp)
 200ab44:	df000104 	addi	fp,sp,4
 200ab48:	e13fff15 	stw	r4,-4(fp)
 200ab4c:	e13fff17 	ldw	r4,-4(fp)
 200ab50:	01408074 	movhi	r5,513
 200ab54:	2940f704 	addi	r5,r5,988
 200ab58:	200d13c0 	call	200d13c <alt_dev_llist_insert>
 200ab5c:	e037883a 	mov	sp,fp
 200ab60:	dfc00117 	ldw	ra,4(sp)
 200ab64:	df000017 	ldw	fp,0(sp)
 200ab68:	dec00204 	addi	sp,sp,8
 200ab6c:	f800283a 	ret

0200ab70 <alt_epcs_flash_init>:
 200ab70:	defffc04 	addi	sp,sp,-16
 200ab74:	dfc00315 	stw	ra,12(sp)
 200ab78:	df000215 	stw	fp,8(sp)
 200ab7c:	df000204 	addi	fp,sp,8
 200ab80:	e13fff15 	stw	r4,-4(fp)
 200ab84:	e03ffe15 	stw	zero,-8(fp)
 200ab88:	e13fff17 	ldw	r4,-4(fp)
 200ab8c:	200abfc0 	call	200abfc <alt_epcs_flash_query>
 200ab90:	e0bffe15 	stw	r2,-8(fp)
 200ab94:	e0bffe17 	ldw	r2,-8(fp)
 200ab98:	1004c03a 	cmpne	r2,r2,zero
 200ab9c:	1000031e 	bne	r2,zero,200abac <alt_epcs_flash_init+0x3c>
 200aba0:	e13fff17 	ldw	r4,-4(fp)
 200aba4:	200abc40 	call	200abc4 <alt_flash_device_register>
 200aba8:	e0bffe15 	stw	r2,-8(fp)
 200abac:	e0bffe17 	ldw	r2,-8(fp)
 200abb0:	e037883a 	mov	sp,fp
 200abb4:	dfc00117 	ldw	ra,4(sp)
 200abb8:	df000017 	ldw	fp,0(sp)
 200abbc:	dec00204 	addi	sp,sp,8
 200abc0:	f800283a 	ret

0200abc4 <alt_flash_device_register>:
 200abc4:	defffd04 	addi	sp,sp,-12
 200abc8:	dfc00215 	stw	ra,8(sp)
 200abcc:	df000115 	stw	fp,4(sp)
 200abd0:	df000104 	addi	fp,sp,4
 200abd4:	e13fff15 	stw	r4,-4(fp)
 200abd8:	e13fff17 	ldw	r4,-4(fp)
 200abdc:	01408074 	movhi	r5,513
 200abe0:	2940fb04 	addi	r5,r5,1004
 200abe4:	200d13c0 	call	200d13c <alt_dev_llist_insert>
 200abe8:	e037883a 	mov	sp,fp
 200abec:	dfc00117 	ldw	ra,4(sp)
 200abf0:	df000017 	ldw	fp,0(sp)
 200abf4:	dec00204 	addi	sp,sp,8
 200abf8:	f800283a 	ret

0200abfc <alt_epcs_flash_query>:
 200abfc:	defffc04 	addi	sp,sp,-16
 200ac00:	dfc00315 	stw	ra,12(sp)
 200ac04:	df000215 	stw	fp,8(sp)
 200ac08:	df000204 	addi	fp,sp,8
 200ac0c:	e13fff15 	stw	r4,-4(fp)
 200ac10:	e03ffe15 	stw	zero,-8(fp)
 200ac14:	e0bfff17 	ldw	r2,-4(fp)
 200ac18:	11002d17 	ldw	r4,180(r2)
 200ac1c:	200cd8c0 	call	200cd8c <epcs_read_electronic_signature>
 200ac20:	10c03fcc 	andi	r3,r2,255
 200ac24:	e0bfff17 	ldw	r2,-4(fp)
 200ac28:	10c02f15 	stw	r3,188(r2)
 200ac2c:	e0bfff17 	ldw	r2,-4(fp)
 200ac30:	10802f17 	ldw	r2,188(r2)
 200ac34:	10800598 	cmpnei	r2,r2,22
 200ac38:	10000a1e 	bne	r2,zero,200ac64 <alt_epcs_flash_query+0x68>
 200ac3c:	e0ffff17 	ldw	r3,-4(fp)
 200ac40:	00802034 	movhi	r2,128
 200ac44:	18800e15 	stw	r2,56(r3)
 200ac48:	e0ffff17 	ldw	r3,-4(fp)
 200ac4c:	00802004 	movi	r2,128
 200ac50:	18800f15 	stw	r2,60(r3)
 200ac54:	e0ffff17 	ldw	r3,-4(fp)
 200ac58:	00800074 	movhi	r2,1
 200ac5c:	18801015 	stw	r2,64(r3)
 200ac60:	00004e06 	br	200ad9c <alt_epcs_flash_query+0x1a0>
 200ac64:	e0bfff17 	ldw	r2,-4(fp)
 200ac68:	10802f17 	ldw	r2,188(r2)
 200ac6c:	10800518 	cmpnei	r2,r2,20
 200ac70:	10000a1e 	bne	r2,zero,200ac9c <alt_epcs_flash_query+0xa0>
 200ac74:	e0ffff17 	ldw	r3,-4(fp)
 200ac78:	00800834 	movhi	r2,32
 200ac7c:	18800e15 	stw	r2,56(r3)
 200ac80:	e0ffff17 	ldw	r3,-4(fp)
 200ac84:	00800804 	movi	r2,32
 200ac88:	18800f15 	stw	r2,60(r3)
 200ac8c:	e0ffff17 	ldw	r3,-4(fp)
 200ac90:	00800074 	movhi	r2,1
 200ac94:	18801015 	stw	r2,64(r3)
 200ac98:	00004006 	br	200ad9c <alt_epcs_flash_query+0x1a0>
 200ac9c:	e0bfff17 	ldw	r2,-4(fp)
 200aca0:	10802f17 	ldw	r2,188(r2)
 200aca4:	108004d8 	cmpnei	r2,r2,19
 200aca8:	10000a1e 	bne	r2,zero,200acd4 <alt_epcs_flash_query+0xd8>
 200acac:	e0ffff17 	ldw	r3,-4(fp)
 200acb0:	00800434 	movhi	r2,16
 200acb4:	18800e15 	stw	r2,56(r3)
 200acb8:	e0ffff17 	ldw	r3,-4(fp)
 200acbc:	00800404 	movi	r2,16
 200acc0:	18800f15 	stw	r2,60(r3)
 200acc4:	e0ffff17 	ldw	r3,-4(fp)
 200acc8:	00800074 	movhi	r2,1
 200accc:	18801015 	stw	r2,64(r3)
 200acd0:	00003206 	br	200ad9c <alt_epcs_flash_query+0x1a0>
 200acd4:	e0bfff17 	ldw	r2,-4(fp)
 200acd8:	10802f17 	ldw	r2,188(r2)
 200acdc:	10800498 	cmpnei	r2,r2,18
 200ace0:	10000a1e 	bne	r2,zero,200ad0c <alt_epcs_flash_query+0x110>
 200ace4:	e0ffff17 	ldw	r3,-4(fp)
 200ace8:	00800234 	movhi	r2,8
 200acec:	18800e15 	stw	r2,56(r3)
 200acf0:	e0ffff17 	ldw	r3,-4(fp)
 200acf4:	00800204 	movi	r2,8
 200acf8:	18800f15 	stw	r2,60(r3)
 200acfc:	e0ffff17 	ldw	r3,-4(fp)
 200ad00:	00800074 	movhi	r2,1
 200ad04:	18801015 	stw	r2,64(r3)
 200ad08:	00002406 	br	200ad9c <alt_epcs_flash_query+0x1a0>
 200ad0c:	e0bfff17 	ldw	r2,-4(fp)
 200ad10:	10802f17 	ldw	r2,188(r2)
 200ad14:	10800418 	cmpnei	r2,r2,16
 200ad18:	10000a1e 	bne	r2,zero,200ad44 <alt_epcs_flash_query+0x148>
 200ad1c:	e0ffff17 	ldw	r3,-4(fp)
 200ad20:	008000b4 	movhi	r2,2
 200ad24:	18800e15 	stw	r2,56(r3)
 200ad28:	e0ffff17 	ldw	r3,-4(fp)
 200ad2c:	00800104 	movi	r2,4
 200ad30:	18800f15 	stw	r2,60(r3)
 200ad34:	e0ffff17 	ldw	r3,-4(fp)
 200ad38:	00a00014 	movui	r2,32768
 200ad3c:	18801015 	stw	r2,64(r3)
 200ad40:	00001606 	br	200ad9c <alt_epcs_flash_query+0x1a0>
 200ad44:	e0bfff17 	ldw	r2,-4(fp)
 200ad48:	11002d17 	ldw	r4,180(r2)
 200ad4c:	200cdf80 	call	200cdf8 <epcs_read_device_id>
 200ad50:	10c03fcc 	andi	r3,r2,255
 200ad54:	e0bfff17 	ldw	r2,-4(fp)
 200ad58:	10c02f15 	stw	r3,188(r2)
 200ad5c:	e0bfff17 	ldw	r2,-4(fp)
 200ad60:	10802f17 	ldw	r2,188(r2)
 200ad64:	10800618 	cmpnei	r2,r2,24
 200ad68:	10000a1e 	bne	r2,zero,200ad94 <alt_epcs_flash_query+0x198>
 200ad6c:	e0ffff17 	ldw	r3,-4(fp)
 200ad70:	00804034 	movhi	r2,256
 200ad74:	18800e15 	stw	r2,56(r3)
 200ad78:	e0ffff17 	ldw	r3,-4(fp)
 200ad7c:	00801004 	movi	r2,64
 200ad80:	18800f15 	stw	r2,60(r3)
 200ad84:	e0ffff17 	ldw	r3,-4(fp)
 200ad88:	00800134 	movhi	r2,4
 200ad8c:	18801015 	stw	r2,64(r3)
 200ad90:	00000206 	br	200ad9c <alt_epcs_flash_query+0x1a0>
 200ad94:	00bffb44 	movi	r2,-19
 200ad98:	e0bffe15 	stw	r2,-8(fp)
 200ad9c:	e0bfff17 	ldw	r2,-4(fp)
 200ada0:	10800e17 	ldw	r2,56(r2)
 200ada4:	1007883a 	mov	r3,r2
 200ada8:	e0bfff17 	ldw	r2,-4(fp)
 200adac:	10c02e15 	stw	r3,184(r2)
 200adb0:	e0ffff17 	ldw	r3,-4(fp)
 200adb4:	00800044 	movi	r2,1
 200adb8:	18800c15 	stw	r2,48(r3)
 200adbc:	e0bfff17 	ldw	r2,-4(fp)
 200adc0:	10000d15 	stw	zero,52(r2)
 200adc4:	e0ffff17 	ldw	r3,-4(fp)
 200adc8:	00804004 	movi	r2,256
 200adcc:	18803015 	stw	r2,192(r3)
 200add0:	e0bffe17 	ldw	r2,-8(fp)
 200add4:	e037883a 	mov	sp,fp
 200add8:	dfc00117 	ldw	ra,4(sp)
 200addc:	df000017 	ldw	fp,0(sp)
 200ade0:	dec00204 	addi	sp,sp,8
 200ade4:	f800283a 	ret

0200ade8 <alt_epcs_flash_memcmp>:
 200ade8:	deffeb04 	addi	sp,sp,-84
 200adec:	dfc01415 	stw	ra,80(sp)
 200adf0:	df001315 	stw	fp,76(sp)
 200adf4:	df001304 	addi	fp,sp,76
 200adf8:	e13ff915 	stw	r4,-28(fp)
 200adfc:	e17ffa15 	stw	r5,-24(fp)
 200ae00:	e1bffb15 	stw	r6,-20(fp)
 200ae04:	e1fffc15 	stw	r7,-16(fp)
 200ae08:	00800804 	movi	r2,32
 200ae0c:	e0bff015 	stw	r2,-64(fp)
 200ae10:	e03fef15 	stw	zero,-68(fp)
 200ae14:	00002c06 	br	200aec8 <alt_epcs_flash_memcmp+0xe0>
 200ae18:	e0bff017 	ldw	r2,-64(fp)
 200ae1c:	e0bfff15 	stw	r2,-4(fp)
 200ae20:	e0fffc17 	ldw	r3,-16(fp)
 200ae24:	e0fffe15 	stw	r3,-8(fp)
 200ae28:	e0bfff17 	ldw	r2,-4(fp)
 200ae2c:	e0fffe17 	ldw	r3,-8(fp)
 200ae30:	10c0022e 	bgeu	r2,r3,200ae3c <alt_epcs_flash_memcmp+0x54>
 200ae34:	e0bfff17 	ldw	r2,-4(fp)
 200ae38:	e0bffe15 	stw	r2,-8(fp)
 200ae3c:	e0fffe17 	ldw	r3,-8(fp)
 200ae40:	e0ffee15 	stw	r3,-72(fp)
 200ae44:	e0fffb17 	ldw	r3,-20(fp)
 200ae48:	e0bfef17 	ldw	r2,-68(fp)
 200ae4c:	188b883a 	add	r5,r3,r2
 200ae50:	e1bff104 	addi	r6,fp,-60
 200ae54:	e13ff917 	ldw	r4,-28(fp)
 200ae58:	e1ffee17 	ldw	r7,-72(fp)
 200ae5c:	200b4180 	call	200b418 <alt_epcs_flash_read>
 200ae60:	1004403a 	cmpge	r2,r2,zero
 200ae64:	1000031e 	bne	r2,zero,200ae74 <alt_epcs_flash_memcmp+0x8c>
 200ae68:	00bfffc4 	movi	r2,-1
 200ae6c:	e0bffd15 	stw	r2,-12(fp)
 200ae70:	00001906 	br	200aed8 <alt_epcs_flash_memcmp+0xf0>
 200ae74:	e0fffa17 	ldw	r3,-24(fp)
 200ae78:	e0bfef17 	ldw	r2,-68(fp)
 200ae7c:	1889883a 	add	r4,r3,r2
 200ae80:	e1bfee17 	ldw	r6,-72(fp)
 200ae84:	e17ff104 	addi	r5,fp,-60
 200ae88:	200e1c80 	call	200e1c8 <memcmp>
 200ae8c:	e0bfed15 	stw	r2,-76(fp)
 200ae90:	e0bfed17 	ldw	r2,-76(fp)
 200ae94:	1005003a 	cmpeq	r2,r2,zero
 200ae98:	1000031e 	bne	r2,zero,200aea8 <alt_epcs_flash_memcmp+0xc0>
 200ae9c:	e0ffed17 	ldw	r3,-76(fp)
 200aea0:	e0fffd15 	stw	r3,-12(fp)
 200aea4:	00000c06 	br	200aed8 <alt_epcs_flash_memcmp+0xf0>
 200aea8:	e0ffee17 	ldw	r3,-72(fp)
 200aeac:	e0bffc17 	ldw	r2,-16(fp)
 200aeb0:	10c5c83a 	sub	r2,r2,r3
 200aeb4:	e0bffc15 	stw	r2,-16(fp)
 200aeb8:	e0ffef17 	ldw	r3,-68(fp)
 200aebc:	e0bfee17 	ldw	r2,-72(fp)
 200aec0:	1885883a 	add	r2,r3,r2
 200aec4:	e0bfef15 	stw	r2,-68(fp)
 200aec8:	e0bffc17 	ldw	r2,-16(fp)
 200aecc:	1004c03a 	cmpne	r2,r2,zero
 200aed0:	103fd11e 	bne	r2,zero,200ae18 <alt_epcs_flash_memcmp+0x30>
 200aed4:	e03ffd15 	stw	zero,-12(fp)
 200aed8:	e0bffd17 	ldw	r2,-12(fp)
 200aedc:	e037883a 	mov	sp,fp
 200aee0:	dfc00117 	ldw	ra,4(sp)
 200aee4:	df000017 	ldw	fp,0(sp)
 200aee8:	dec00204 	addi	sp,sp,8
 200aeec:	f800283a 	ret

0200aef0 <alt_epcs_flash_write>:
 200aef0:	defff204 	addi	sp,sp,-56
 200aef4:	dfc00d15 	stw	ra,52(sp)
 200aef8:	df000c15 	stw	fp,48(sp)
 200aefc:	df000c04 	addi	fp,sp,48
 200af00:	e13ffa15 	stw	r4,-24(fp)
 200af04:	e17ffb15 	stw	r5,-20(fp)
 200af08:	e1bffc15 	stw	r6,-16(fp)
 200af0c:	e1fffd15 	stw	r7,-12(fp)
 200af10:	e03ff915 	stw	zero,-28(fp)
 200af14:	e03ff815 	stw	zero,-32(fp)
 200af18:	00008b06 	br	200b148 <alt_epcs_flash_write+0x258>
 200af1c:	e0bff817 	ldw	r2,-32(fp)
 200af20:	e0fffa17 	ldw	r3,-24(fp)
 200af24:	1004913a 	slli	r2,r2,4
 200af28:	10c5883a 	add	r2,r2,r3
 200af2c:	10800d04 	addi	r2,r2,52
 200af30:	10c00017 	ldw	r3,0(r2)
 200af34:	e0bffb17 	ldw	r2,-20(fp)
 200af38:	10c08016 	blt	r2,r3,200b13c <alt_epcs_flash_write+0x24c>
 200af3c:	e0bff817 	ldw	r2,-32(fp)
 200af40:	e0fffa17 	ldw	r3,-24(fp)
 200af44:	1004913a 	slli	r2,r2,4
 200af48:	10c5883a 	add	r2,r2,r3
 200af4c:	10800d04 	addi	r2,r2,52
 200af50:	11000017 	ldw	r4,0(r2)
 200af54:	e0bff817 	ldw	r2,-32(fp)
 200af58:	e0fffa17 	ldw	r3,-24(fp)
 200af5c:	1004913a 	slli	r2,r2,4
 200af60:	10c5883a 	add	r2,r2,r3
 200af64:	10800e04 	addi	r2,r2,56
 200af68:	10800017 	ldw	r2,0(r2)
 200af6c:	2087883a 	add	r3,r4,r2
 200af70:	e0bffb17 	ldw	r2,-20(fp)
 200af74:	10c0710e 	bge	r2,r3,200b13c <alt_epcs_flash_write+0x24c>
 200af78:	e0bff817 	ldw	r2,-32(fp)
 200af7c:	e0fffa17 	ldw	r3,-24(fp)
 200af80:	1004913a 	slli	r2,r2,4
 200af84:	10c5883a 	add	r2,r2,r3
 200af88:	10800d04 	addi	r2,r2,52
 200af8c:	10800017 	ldw	r2,0(r2)
 200af90:	e0bff515 	stw	r2,-44(fp)
 200af94:	e03ff715 	stw	zero,-36(fp)
 200af98:	00006006 	br	200b11c <alt_epcs_flash_write+0x22c>
 200af9c:	e0fffb17 	ldw	r3,-20(fp)
 200afa0:	e0bff517 	ldw	r2,-44(fp)
 200afa4:	18805116 	blt	r3,r2,200b0ec <alt_epcs_flash_write+0x1fc>
 200afa8:	e0bff817 	ldw	r2,-32(fp)
 200afac:	e0fffa17 	ldw	r3,-24(fp)
 200afb0:	1004913a 	slli	r2,r2,4
 200afb4:	10c5883a 	add	r2,r2,r3
 200afb8:	10801004 	addi	r2,r2,64
 200afbc:	10c00017 	ldw	r3,0(r2)
 200afc0:	e0bff517 	ldw	r2,-44(fp)
 200afc4:	1887883a 	add	r3,r3,r2
 200afc8:	e0bffb17 	ldw	r2,-20(fp)
 200afcc:	10c0470e 	bge	r2,r3,200b0ec <alt_epcs_flash_write+0x1fc>
 200afd0:	e0bff817 	ldw	r2,-32(fp)
 200afd4:	e0fffa17 	ldw	r3,-24(fp)
 200afd8:	1004913a 	slli	r2,r2,4
 200afdc:	10c5883a 	add	r2,r2,r3
 200afe0:	10801004 	addi	r2,r2,64
 200afe4:	10c00017 	ldw	r3,0(r2)
 200afe8:	e0bff517 	ldw	r2,-44(fp)
 200afec:	1887883a 	add	r3,r3,r2
 200aff0:	e0bffb17 	ldw	r2,-20(fp)
 200aff4:	1885c83a 	sub	r2,r3,r2
 200aff8:	e0bff615 	stw	r2,-40(fp)
 200affc:	e0bff617 	ldw	r2,-40(fp)
 200b000:	e0bfff15 	stw	r2,-4(fp)
 200b004:	e0fffd17 	ldw	r3,-12(fp)
 200b008:	e0fffe15 	stw	r3,-8(fp)
 200b00c:	e0bfff17 	ldw	r2,-4(fp)
 200b010:	e0fffe17 	ldw	r3,-8(fp)
 200b014:	10c0020e 	bge	r2,r3,200b020 <alt_epcs_flash_write+0x130>
 200b018:	e0bfff17 	ldw	r2,-4(fp)
 200b01c:	e0bffe15 	stw	r2,-8(fp)
 200b020:	e0fffe17 	ldw	r3,-8(fp)
 200b024:	e0fff615 	stw	r3,-40(fp)
 200b028:	e1fff617 	ldw	r7,-40(fp)
 200b02c:	e13ffa17 	ldw	r4,-24(fp)
 200b030:	e17ffc17 	ldw	r5,-16(fp)
 200b034:	e1bffb17 	ldw	r6,-20(fp)
 200b038:	200ade80 	call	200ade8 <alt_epcs_flash_memcmp>
 200b03c:	1005003a 	cmpeq	r2,r2,zero
 200b040:	1000131e 	bne	r2,zero,200b090 <alt_epcs_flash_write+0x1a0>
 200b044:	e0bffa17 	ldw	r2,-24(fp)
 200b048:	10800817 	ldw	r2,32(r2)
 200b04c:	e13ffa17 	ldw	r4,-24(fp)
 200b050:	e17ff517 	ldw	r5,-44(fp)
 200b054:	103ee83a 	callr	r2
 200b058:	e0bff915 	stw	r2,-28(fp)
 200b05c:	e0bff917 	ldw	r2,-28(fp)
 200b060:	1004c03a 	cmpne	r2,r2,zero
 200b064:	10000a1e 	bne	r2,zero,200b090 <alt_epcs_flash_write+0x1a0>
 200b068:	e0bffa17 	ldw	r2,-24(fp)
 200b06c:	10c00917 	ldw	r3,36(r2)
 200b070:	e0bff617 	ldw	r2,-40(fp)
 200b074:	d8800015 	stw	r2,0(sp)
 200b078:	e13ffa17 	ldw	r4,-24(fp)
 200b07c:	e17ff517 	ldw	r5,-44(fp)
 200b080:	e1bffb17 	ldw	r6,-20(fp)
 200b084:	e1fffc17 	ldw	r7,-16(fp)
 200b088:	183ee83a 	callr	r3
 200b08c:	e0bff915 	stw	r2,-28(fp)
 200b090:	e0fffd17 	ldw	r3,-12(fp)
 200b094:	e0bff617 	ldw	r2,-40(fp)
 200b098:	18802f26 	beq	r3,r2,200b158 <alt_epcs_flash_write+0x268>
 200b09c:	e0bff917 	ldw	r2,-28(fp)
 200b0a0:	1004c03a 	cmpne	r2,r2,zero
 200b0a4:	10002c1e 	bne	r2,zero,200b158 <alt_epcs_flash_write+0x268>
 200b0a8:	e0fffd17 	ldw	r3,-12(fp)
 200b0ac:	e0bff617 	ldw	r2,-40(fp)
 200b0b0:	1885c83a 	sub	r2,r3,r2
 200b0b4:	e0bffd15 	stw	r2,-12(fp)
 200b0b8:	e0bff817 	ldw	r2,-32(fp)
 200b0bc:	e0fffa17 	ldw	r3,-24(fp)
 200b0c0:	1004913a 	slli	r2,r2,4
 200b0c4:	10c5883a 	add	r2,r2,r3
 200b0c8:	10801004 	addi	r2,r2,64
 200b0cc:	10c00017 	ldw	r3,0(r2)
 200b0d0:	e0bff517 	ldw	r2,-44(fp)
 200b0d4:	1885883a 	add	r2,r3,r2
 200b0d8:	e0bffb15 	stw	r2,-20(fp)
 200b0dc:	e0fffc17 	ldw	r3,-16(fp)
 200b0e0:	e0bff617 	ldw	r2,-40(fp)
 200b0e4:	1885883a 	add	r2,r3,r2
 200b0e8:	e0bffc15 	stw	r2,-16(fp)
 200b0ec:	e0bff817 	ldw	r2,-32(fp)
 200b0f0:	e0fffa17 	ldw	r3,-24(fp)
 200b0f4:	1004913a 	slli	r2,r2,4
 200b0f8:	10c5883a 	add	r2,r2,r3
 200b0fc:	10801004 	addi	r2,r2,64
 200b100:	10c00017 	ldw	r3,0(r2)
 200b104:	e0bff517 	ldw	r2,-44(fp)
 200b108:	10c5883a 	add	r2,r2,r3
 200b10c:	e0bff515 	stw	r2,-44(fp)
 200b110:	e0bff717 	ldw	r2,-36(fp)
 200b114:	10800044 	addi	r2,r2,1
 200b118:	e0bff715 	stw	r2,-36(fp)
 200b11c:	e0bff817 	ldw	r2,-32(fp)
 200b120:	e0fffa17 	ldw	r3,-24(fp)
 200b124:	1004913a 	slli	r2,r2,4
 200b128:	10c5883a 	add	r2,r2,r3
 200b12c:	10800f04 	addi	r2,r2,60
 200b130:	10c00017 	ldw	r3,0(r2)
 200b134:	e0bff717 	ldw	r2,-36(fp)
 200b138:	10ff9816 	blt	r2,r3,200af9c <alt_epcs_flash_write+0xac>
 200b13c:	e0bff817 	ldw	r2,-32(fp)
 200b140:	10800044 	addi	r2,r2,1
 200b144:	e0bff815 	stw	r2,-32(fp)
 200b148:	e0bffa17 	ldw	r2,-24(fp)
 200b14c:	10c00c17 	ldw	r3,48(r2)
 200b150:	e0bff817 	ldw	r2,-32(fp)
 200b154:	10ff7116 	blt	r2,r3,200af1c <alt_epcs_flash_write+0x2c>
 200b158:	e0bff917 	ldw	r2,-28(fp)
 200b15c:	e037883a 	mov	sp,fp
 200b160:	dfc00117 	ldw	ra,4(sp)
 200b164:	df000017 	ldw	fp,0(sp)
 200b168:	dec00204 	addi	sp,sp,8
 200b16c:	f800283a 	ret

0200b170 <alt_epcs_flash_get_info>:
 200b170:	defffa04 	addi	sp,sp,-24
 200b174:	df000515 	stw	fp,20(sp)
 200b178:	df000504 	addi	fp,sp,20
 200b17c:	e13ffd15 	stw	r4,-12(fp)
 200b180:	e17ffe15 	stw	r5,-8(fp)
 200b184:	e1bfff15 	stw	r6,-4(fp)
 200b188:	e03ffc15 	stw	zero,-16(fp)
 200b18c:	e0bffd17 	ldw	r2,-12(fp)
 200b190:	e0bffb15 	stw	r2,-20(fp)
 200b194:	e0bffb17 	ldw	r2,-20(fp)
 200b198:	10c00c17 	ldw	r3,48(r2)
 200b19c:	e0bfff17 	ldw	r2,-4(fp)
 200b1a0:	10c00015 	stw	r3,0(r2)
 200b1a4:	e0bffb17 	ldw	r2,-20(fp)
 200b1a8:	10800c17 	ldw	r2,48(r2)
 200b1ac:	1004c03a 	cmpne	r2,r2,zero
 200b1b0:	1000031e 	bne	r2,zero,200b1c0 <alt_epcs_flash_get_info+0x50>
 200b1b4:	00bffec4 	movi	r2,-5
 200b1b8:	e0bffc15 	stw	r2,-16(fp)
 200b1bc:	00000b06 	br	200b1ec <alt_epcs_flash_get_info+0x7c>
 200b1c0:	e0bffb17 	ldw	r2,-20(fp)
 200b1c4:	10800c17 	ldw	r2,48(r2)
 200b1c8:	10800250 	cmplti	r2,r2,9
 200b1cc:	1000031e 	bne	r2,zero,200b1dc <alt_epcs_flash_get_info+0x6c>
 200b1d0:	00bffd04 	movi	r2,-12
 200b1d4:	e0bffc15 	stw	r2,-16(fp)
 200b1d8:	00000406 	br	200b1ec <alt_epcs_flash_get_info+0x7c>
 200b1dc:	e0bffb17 	ldw	r2,-20(fp)
 200b1e0:	10c00d04 	addi	r3,r2,52
 200b1e4:	e0bffe17 	ldw	r2,-8(fp)
 200b1e8:	10c00015 	stw	r3,0(r2)
 200b1ec:	e0bffc17 	ldw	r2,-16(fp)
 200b1f0:	e037883a 	mov	sp,fp
 200b1f4:	df000017 	ldw	fp,0(sp)
 200b1f8:	dec00104 	addi	sp,sp,4
 200b1fc:	f800283a 	ret

0200b200 <alt_epcs_flash_erase_block>:
 200b200:	defffa04 	addi	sp,sp,-24
 200b204:	dfc00515 	stw	ra,20(sp)
 200b208:	df000415 	stw	fp,16(sp)
 200b20c:	df000404 	addi	fp,sp,16
 200b210:	e13ffe15 	stw	r4,-8(fp)
 200b214:	e17fff15 	stw	r5,-4(fp)
 200b218:	e03ffd15 	stw	zero,-12(fp)
 200b21c:	e0bffe17 	ldw	r2,-8(fp)
 200b220:	e0bffc15 	stw	r2,-16(fp)
 200b224:	e13ffe17 	ldw	r4,-8(fp)
 200b228:	e17fff17 	ldw	r5,-4(fp)
 200b22c:	200b2740 	call	200b274 <alt_epcs_test_address>
 200b230:	e0bffd15 	stw	r2,-12(fp)
 200b234:	e0bffd17 	ldw	r2,-12(fp)
 200b238:	1004803a 	cmplt	r2,r2,zero
 200b23c:	1000071e 	bne	r2,zero,200b25c <alt_epcs_flash_erase_block+0x5c>
 200b240:	e0bffc17 	ldw	r2,-16(fp)
 200b244:	11002d17 	ldw	r4,180(r2)
 200b248:	200cc000 	call	200cc00 <epcs_write_enable>
 200b24c:	e0bffc17 	ldw	r2,-16(fp)
 200b250:	11002d17 	ldw	r4,180(r2)
 200b254:	e17fff17 	ldw	r5,-4(fp)
 200b258:	200ca600 	call	200ca60 <epcs_sector_erase>
 200b25c:	e0bffd17 	ldw	r2,-12(fp)
 200b260:	e037883a 	mov	sp,fp
 200b264:	dfc00117 	ldw	ra,4(sp)
 200b268:	df000017 	ldw	fp,0(sp)
 200b26c:	dec00204 	addi	sp,sp,8
 200b270:	f800283a 	ret

0200b274 <alt_epcs_test_address>:
 200b274:	defff904 	addi	sp,sp,-28
 200b278:	df000615 	stw	fp,24(sp)
 200b27c:	df000604 	addi	fp,sp,24
 200b280:	e13ffe15 	stw	r4,-8(fp)
 200b284:	e17fff15 	stw	r5,-4(fp)
 200b288:	e03ffd15 	stw	zero,-12(fp)
 200b28c:	e0bffe17 	ldw	r2,-8(fp)
 200b290:	e0bffc15 	stw	r2,-16(fp)
 200b294:	e0bffc17 	ldw	r2,-16(fp)
 200b298:	10800c17 	ldw	r2,48(r2)
 200b29c:	10bfffc4 	addi	r2,r2,-1
 200b2a0:	e0bffb15 	stw	r2,-20(fp)
 200b2a4:	e0bffb17 	ldw	r2,-20(fp)
 200b2a8:	e0fffc17 	ldw	r3,-16(fp)
 200b2ac:	1004913a 	slli	r2,r2,4
 200b2b0:	10c5883a 	add	r2,r2,r3
 200b2b4:	10800d04 	addi	r2,r2,52
 200b2b8:	11000017 	ldw	r4,0(r2)
 200b2bc:	e0bffb17 	ldw	r2,-20(fp)
 200b2c0:	e0fffc17 	ldw	r3,-16(fp)
 200b2c4:	1004913a 	slli	r2,r2,4
 200b2c8:	10c5883a 	add	r2,r2,r3
 200b2cc:	10800e04 	addi	r2,r2,56
 200b2d0:	10800017 	ldw	r2,0(r2)
 200b2d4:	2085883a 	add	r2,r4,r2
 200b2d8:	10bfffc4 	addi	r2,r2,-1
 200b2dc:	e0bffa15 	stw	r2,-24(fp)
 200b2e0:	e0ffff17 	ldw	r3,-4(fp)
 200b2e4:	e0bffa17 	ldw	r2,-24(fp)
 200b2e8:	10c0022e 	bgeu	r2,r3,200b2f4 <alt_epcs_test_address+0x80>
 200b2ec:	00bffec4 	movi	r2,-5
 200b2f0:	e0bffd15 	stw	r2,-12(fp)
 200b2f4:	e0bffd17 	ldw	r2,-12(fp)
 200b2f8:	e037883a 	mov	sp,fp
 200b2fc:	df000017 	ldw	fp,0(sp)
 200b300:	dec00104 	addi	sp,sp,4
 200b304:	f800283a 	ret

0200b308 <alt_epcs_flash_write_block>:
 200b308:	defff304 	addi	sp,sp,-52
 200b30c:	dfc00c15 	stw	ra,48(sp)
 200b310:	df000b15 	stw	fp,44(sp)
 200b314:	df000b04 	addi	fp,sp,44
 200b318:	e13ffa15 	stw	r4,-24(fp)
 200b31c:	e17ffb15 	stw	r5,-20(fp)
 200b320:	e1bffc15 	stw	r6,-16(fp)
 200b324:	e1fffd15 	stw	r7,-12(fp)
 200b328:	e0bffa17 	ldw	r2,-24(fp)
 200b32c:	e0bff815 	stw	r2,-32(fp)
 200b330:	e03ff715 	stw	zero,-36(fp)
 200b334:	e13ffa17 	ldw	r4,-24(fp)
 200b338:	e17ffc17 	ldw	r5,-16(fp)
 200b33c:	200b2740 	call	200b274 <alt_epcs_test_address>
 200b340:	e0bff915 	stw	r2,-28(fp)
 200b344:	e0bff917 	ldw	r2,-28(fp)
 200b348:	1004803a 	cmplt	r2,r2,zero
 200b34c:	10002c1e 	bne	r2,zero,200b400 <alt_epcs_flash_write_block+0xf8>
 200b350:	00002806 	br	200b3f4 <alt_epcs_flash_write_block+0xec>
 200b354:	e0bff817 	ldw	r2,-32(fp)
 200b358:	10c03017 	ldw	r3,192(r2)
 200b35c:	e0bffc17 	ldw	r2,-16(fp)
 200b360:	1887883a 	add	r3,r3,r2
 200b364:	e0bff817 	ldw	r2,-32(fp)
 200b368:	10803017 	ldw	r2,192(r2)
 200b36c:	0085c83a 	sub	r2,zero,r2
 200b370:	1884703a 	and	r2,r3,r2
 200b374:	e0bff515 	stw	r2,-44(fp)
 200b378:	e0fff517 	ldw	r3,-44(fp)
 200b37c:	e0bffc17 	ldw	r2,-16(fp)
 200b380:	1885c83a 	sub	r2,r3,r2
 200b384:	e0c00217 	ldw	r3,8(fp)
 200b388:	e0ffff15 	stw	r3,-4(fp)
 200b38c:	e0bffe15 	stw	r2,-8(fp)
 200b390:	e0bfff17 	ldw	r2,-4(fp)
 200b394:	e0fffe17 	ldw	r3,-8(fp)
 200b398:	10c0020e 	bge	r2,r3,200b3a4 <alt_epcs_flash_write_block+0x9c>
 200b39c:	e0bfff17 	ldw	r2,-4(fp)
 200b3a0:	e0bffe15 	stw	r2,-8(fp)
 200b3a4:	e0fffe17 	ldw	r3,-8(fp)
 200b3a8:	e0fff615 	stw	r3,-40(fp)
 200b3ac:	e0bff817 	ldw	r2,-32(fp)
 200b3b0:	11002d17 	ldw	r4,180(r2)
 200b3b4:	e0fffd17 	ldw	r3,-12(fp)
 200b3b8:	e0bff717 	ldw	r2,-36(fp)
 200b3bc:	188d883a 	add	r6,r3,r2
 200b3c0:	e17ffc17 	ldw	r5,-16(fp)
 200b3c4:	e1fff617 	ldw	r7,-40(fp)
 200b3c8:	200ccb40 	call	200ccb4 <epcs_write_buffer>
 200b3cc:	e0c00217 	ldw	r3,8(fp)
 200b3d0:	e0bff617 	ldw	r2,-40(fp)
 200b3d4:	1885c83a 	sub	r2,r3,r2
 200b3d8:	e0800215 	stw	r2,8(fp)
 200b3dc:	e0fff717 	ldw	r3,-36(fp)
 200b3e0:	e0bff617 	ldw	r2,-40(fp)
 200b3e4:	1885883a 	add	r2,r3,r2
 200b3e8:	e0bff715 	stw	r2,-36(fp)
 200b3ec:	e0bff517 	ldw	r2,-44(fp)
 200b3f0:	e0bffc15 	stw	r2,-16(fp)
 200b3f4:	e0800217 	ldw	r2,8(fp)
 200b3f8:	1004c03a 	cmpne	r2,r2,zero
 200b3fc:	103fd51e 	bne	r2,zero,200b354 <alt_epcs_flash_write_block+0x4c>
 200b400:	e0bff917 	ldw	r2,-28(fp)
 200b404:	e037883a 	mov	sp,fp
 200b408:	dfc00117 	ldw	ra,4(sp)
 200b40c:	df000017 	ldw	fp,0(sp)
 200b410:	dec00204 	addi	sp,sp,8
 200b414:	f800283a 	ret

0200b418 <alt_epcs_flash_read>:
 200b418:	defff804 	addi	sp,sp,-32
 200b41c:	dfc00715 	stw	ra,28(sp)
 200b420:	df000615 	stw	fp,24(sp)
 200b424:	df000604 	addi	fp,sp,24
 200b428:	e13ffc15 	stw	r4,-16(fp)
 200b42c:	e17ffd15 	stw	r5,-12(fp)
 200b430:	e1bffe15 	stw	r6,-8(fp)
 200b434:	e1ffff15 	stw	r7,-4(fp)
 200b438:	e03ffb15 	stw	zero,-20(fp)
 200b43c:	e0bffc17 	ldw	r2,-16(fp)
 200b440:	e0bffa15 	stw	r2,-24(fp)
 200b444:	e13ffc17 	ldw	r4,-16(fp)
 200b448:	e17ffd17 	ldw	r5,-12(fp)
 200b44c:	200b2740 	call	200b274 <alt_epcs_test_address>
 200b450:	e0bffb15 	stw	r2,-20(fp)
 200b454:	e0bffb17 	ldw	r2,-20(fp)
 200b458:	1004803a 	cmplt	r2,r2,zero
 200b45c:	10000b1e 	bne	r2,zero,200b48c <alt_epcs_flash_read+0x74>
 200b460:	e0bffa17 	ldw	r2,-24(fp)
 200b464:	11002d17 	ldw	r4,180(r2)
 200b468:	e1bffe17 	ldw	r6,-8(fp)
 200b46c:	e17ffd17 	ldw	r5,-12(fp)
 200b470:	e1ffff17 	ldw	r7,-4(fp)
 200b474:	200cb4c0 	call	200cb4c <epcs_read_buffer>
 200b478:	e0bffb15 	stw	r2,-20(fp)
 200b47c:	e0fffb17 	ldw	r3,-20(fp)
 200b480:	e0bfff17 	ldw	r2,-4(fp)
 200b484:	1880011e 	bne	r3,r2,200b48c <alt_epcs_flash_read+0x74>
 200b488:	e03ffb15 	stw	zero,-20(fp)
 200b48c:	e0bffb17 	ldw	r2,-20(fp)
 200b490:	e037883a 	mov	sp,fp
 200b494:	dfc00117 	ldw	ra,4(sp)
 200b498:	df000017 	ldw	fp,0(sp)
 200b49c:	dec00204 	addi	sp,sp,8
 200b4a0:	f800283a 	ret

0200b4a4 <altera_avalon_jtag_uart_read_fd>:
 200b4a4:	defffa04 	addi	sp,sp,-24
 200b4a8:	dfc00515 	stw	ra,20(sp)
 200b4ac:	df000415 	stw	fp,16(sp)
 200b4b0:	df000404 	addi	fp,sp,16
 200b4b4:	e13ffd15 	stw	r4,-12(fp)
 200b4b8:	e17ffe15 	stw	r5,-8(fp)
 200b4bc:	e1bfff15 	stw	r6,-4(fp)
 200b4c0:	e0bffd17 	ldw	r2,-12(fp)
 200b4c4:	10800017 	ldw	r2,0(r2)
 200b4c8:	e0bffc15 	stw	r2,-16(fp)
 200b4cc:	e0bffc17 	ldw	r2,-16(fp)
 200b4d0:	11000a04 	addi	r4,r2,40
 200b4d4:	e0bffd17 	ldw	r2,-12(fp)
 200b4d8:	11c00217 	ldw	r7,8(r2)
 200b4dc:	e17ffe17 	ldw	r5,-8(fp)
 200b4e0:	e1bfff17 	ldw	r6,-4(fp)
 200b4e4:	200baec0 	call	200baec <altera_avalon_jtag_uart_read>
 200b4e8:	e037883a 	mov	sp,fp
 200b4ec:	dfc00117 	ldw	ra,4(sp)
 200b4f0:	df000017 	ldw	fp,0(sp)
 200b4f4:	dec00204 	addi	sp,sp,8
 200b4f8:	f800283a 	ret

0200b4fc <altera_avalon_jtag_uart_write_fd>:
 200b4fc:	defffa04 	addi	sp,sp,-24
 200b500:	dfc00515 	stw	ra,20(sp)
 200b504:	df000415 	stw	fp,16(sp)
 200b508:	df000404 	addi	fp,sp,16
 200b50c:	e13ffd15 	stw	r4,-12(fp)
 200b510:	e17ffe15 	stw	r5,-8(fp)
 200b514:	e1bfff15 	stw	r6,-4(fp)
 200b518:	e0bffd17 	ldw	r2,-12(fp)
 200b51c:	10800017 	ldw	r2,0(r2)
 200b520:	e0bffc15 	stw	r2,-16(fp)
 200b524:	e0bffc17 	ldw	r2,-16(fp)
 200b528:	11000a04 	addi	r4,r2,40
 200b52c:	e0bffd17 	ldw	r2,-12(fp)
 200b530:	11c00217 	ldw	r7,8(r2)
 200b534:	e17ffe17 	ldw	r5,-8(fp)
 200b538:	e1bfff17 	ldw	r6,-4(fp)
 200b53c:	200bd100 	call	200bd10 <altera_avalon_jtag_uart_write>
 200b540:	e037883a 	mov	sp,fp
 200b544:	dfc00117 	ldw	ra,4(sp)
 200b548:	df000017 	ldw	fp,0(sp)
 200b54c:	dec00204 	addi	sp,sp,8
 200b550:	f800283a 	ret

0200b554 <altera_avalon_jtag_uart_close_fd>:
 200b554:	defffc04 	addi	sp,sp,-16
 200b558:	dfc00315 	stw	ra,12(sp)
 200b55c:	df000215 	stw	fp,8(sp)
 200b560:	df000204 	addi	fp,sp,8
 200b564:	e13fff15 	stw	r4,-4(fp)
 200b568:	e0bfff17 	ldw	r2,-4(fp)
 200b56c:	10800017 	ldw	r2,0(r2)
 200b570:	e0bffe15 	stw	r2,-8(fp)
 200b574:	e0bffe17 	ldw	r2,-8(fp)
 200b578:	11000a04 	addi	r4,r2,40
 200b57c:	e0bfff17 	ldw	r2,-4(fp)
 200b580:	11400217 	ldw	r5,8(r2)
 200b584:	200b9840 	call	200b984 <altera_avalon_jtag_uart_close>
 200b588:	e037883a 	mov	sp,fp
 200b58c:	dfc00117 	ldw	ra,4(sp)
 200b590:	df000017 	ldw	fp,0(sp)
 200b594:	dec00204 	addi	sp,sp,8
 200b598:	f800283a 	ret

0200b59c <altera_avalon_jtag_uart_ioctl_fd>:
 200b59c:	defffa04 	addi	sp,sp,-24
 200b5a0:	dfc00515 	stw	ra,20(sp)
 200b5a4:	df000415 	stw	fp,16(sp)
 200b5a8:	df000404 	addi	fp,sp,16
 200b5ac:	e13ffd15 	stw	r4,-12(fp)
 200b5b0:	e17ffe15 	stw	r5,-8(fp)
 200b5b4:	e1bfff15 	stw	r6,-4(fp)
 200b5b8:	e0bffd17 	ldw	r2,-12(fp)
 200b5bc:	10800017 	ldw	r2,0(r2)
 200b5c0:	e0bffc15 	stw	r2,-16(fp)
 200b5c4:	e0bffc17 	ldw	r2,-16(fp)
 200b5c8:	11000a04 	addi	r4,r2,40
 200b5cc:	e17ffe17 	ldw	r5,-8(fp)
 200b5d0:	e1bfff17 	ldw	r6,-4(fp)
 200b5d4:	200b9f80 	call	200b9f8 <altera_avalon_jtag_uart_ioctl>
 200b5d8:	e037883a 	mov	sp,fp
 200b5dc:	dfc00117 	ldw	ra,4(sp)
 200b5e0:	df000017 	ldw	fp,0(sp)
 200b5e4:	dec00204 	addi	sp,sp,8
 200b5e8:	f800283a 	ret

0200b5ec <altera_avalon_jtag_uart_init>:
 200b5ec:	defffa04 	addi	sp,sp,-24
 200b5f0:	dfc00515 	stw	ra,20(sp)
 200b5f4:	df000415 	stw	fp,16(sp)
 200b5f8:	df000404 	addi	fp,sp,16
 200b5fc:	e13ffd15 	stw	r4,-12(fp)
 200b600:	e17ffe15 	stw	r5,-8(fp)
 200b604:	e1bfff15 	stw	r6,-4(fp)
 200b608:	e0fffd17 	ldw	r3,-12(fp)
 200b60c:	00800044 	movi	r2,1
 200b610:	18800815 	stw	r2,32(r3)
 200b614:	e0bffd17 	ldw	r2,-12(fp)
 200b618:	10800017 	ldw	r2,0(r2)
 200b61c:	11000104 	addi	r4,r2,4
 200b620:	e0bffd17 	ldw	r2,-12(fp)
 200b624:	10800817 	ldw	r2,32(r2)
 200b628:	1007883a 	mov	r3,r2
 200b62c:	2005883a 	mov	r2,r4
 200b630:	10c00035 	stwio	r3,0(r2)
 200b634:	e13ffe17 	ldw	r4,-8(fp)
 200b638:	e17fff17 	ldw	r5,-4(fp)
 200b63c:	d8000015 	stw	zero,0(sp)
 200b640:	01808074 	movhi	r6,513
 200b644:	31adab04 	addi	r6,r6,-18772
 200b648:	e1fffd17 	ldw	r7,-12(fp)
 200b64c:	200d3e80 	call	200d3e8 <alt_ic_isr_register>
 200b650:	e0bffd17 	ldw	r2,-12(fp)
 200b654:	10000915 	stw	zero,36(r2)
 200b658:	e0bffd17 	ldw	r2,-12(fp)
 200b65c:	11000204 	addi	r4,r2,8
 200b660:	00808074 	movhi	r2,513
 200b664:	10818e04 	addi	r2,r2,1592
 200b668:	10800017 	ldw	r2,0(r2)
 200b66c:	100b883a 	mov	r5,r2
 200b670:	01808074 	movhi	r6,513
 200b674:	31ae3504 	addi	r6,r6,-18220
 200b678:	e1fffd17 	ldw	r7,-12(fp)
 200b67c:	200ce600 	call	200ce60 <alt_alarm_start>
 200b680:	1004403a 	cmpge	r2,r2,zero
 200b684:	1000041e 	bne	r2,zero,200b698 <altera_avalon_jtag_uart_init+0xac>
 200b688:	e0fffd17 	ldw	r3,-12(fp)
 200b68c:	00a00034 	movhi	r2,32768
 200b690:	10bfffc4 	addi	r2,r2,-1
 200b694:	18800115 	stw	r2,4(r3)
 200b698:	e037883a 	mov	sp,fp
 200b69c:	dfc00117 	ldw	ra,4(sp)
 200b6a0:	df000017 	ldw	fp,0(sp)
 200b6a4:	dec00204 	addi	sp,sp,8
 200b6a8:	f800283a 	ret

0200b6ac <altera_avalon_jtag_uart_irq>:
 200b6ac:	defff804 	addi	sp,sp,-32
 200b6b0:	df000715 	stw	fp,28(sp)
 200b6b4:	df000704 	addi	fp,sp,28
 200b6b8:	e13fff15 	stw	r4,-4(fp)
 200b6bc:	e0bfff17 	ldw	r2,-4(fp)
 200b6c0:	e0bffe15 	stw	r2,-8(fp)
 200b6c4:	e0bffe17 	ldw	r2,-8(fp)
 200b6c8:	10800017 	ldw	r2,0(r2)
 200b6cc:	e0bffd15 	stw	r2,-12(fp)
 200b6d0:	00000006 	br	200b6d4 <altera_avalon_jtag_uart_irq+0x28>
 200b6d4:	e0bffd17 	ldw	r2,-12(fp)
 200b6d8:	10800104 	addi	r2,r2,4
 200b6dc:	10800037 	ldwio	r2,0(r2)
 200b6e0:	e0bffc15 	stw	r2,-16(fp)
 200b6e4:	e0bffc17 	ldw	r2,-16(fp)
 200b6e8:	1080c00c 	andi	r2,r2,768
 200b6ec:	1005003a 	cmpeq	r2,r2,zero
 200b6f0:	1000741e 	bne	r2,zero,200b8c4 <altera_avalon_jtag_uart_irq+0x218>
 200b6f4:	e0bffc17 	ldw	r2,-16(fp)
 200b6f8:	1080400c 	andi	r2,r2,256
 200b6fc:	1005003a 	cmpeq	r2,r2,zero
 200b700:	1000351e 	bne	r2,zero,200b7d8 <altera_avalon_jtag_uart_irq+0x12c>
 200b704:	00800074 	movhi	r2,1
 200b708:	e0bffb15 	stw	r2,-20(fp)
 200b70c:	e0bffe17 	ldw	r2,-8(fp)
 200b710:	10800a17 	ldw	r2,40(r2)
 200b714:	10800044 	addi	r2,r2,1
 200b718:	1081ffcc 	andi	r2,r2,2047
 200b71c:	e0bffa15 	stw	r2,-24(fp)
 200b720:	e0bffe17 	ldw	r2,-8(fp)
 200b724:	10c00b17 	ldw	r3,44(r2)
 200b728:	e0bffa17 	ldw	r2,-24(fp)
 200b72c:	18801626 	beq	r3,r2,200b788 <altera_avalon_jtag_uart_irq+0xdc>
 200b730:	e0bffd17 	ldw	r2,-12(fp)
 200b734:	10800037 	ldwio	r2,0(r2)
 200b738:	e0bffb15 	stw	r2,-20(fp)
 200b73c:	e0bffb17 	ldw	r2,-20(fp)
 200b740:	10a0000c 	andi	r2,r2,32768
 200b744:	1005003a 	cmpeq	r2,r2,zero
 200b748:	10000f1e 	bne	r2,zero,200b788 <altera_avalon_jtag_uart_irq+0xdc>
 200b74c:	e0bffe17 	ldw	r2,-8(fp)
 200b750:	10c00a17 	ldw	r3,40(r2)
 200b754:	e0bffb17 	ldw	r2,-20(fp)
 200b758:	1009883a 	mov	r4,r2
 200b75c:	e0bffe17 	ldw	r2,-8(fp)
 200b760:	1885883a 	add	r2,r3,r2
 200b764:	10800e04 	addi	r2,r2,56
 200b768:	11000005 	stb	r4,0(r2)
 200b76c:	e0bffe17 	ldw	r2,-8(fp)
 200b770:	10800a17 	ldw	r2,40(r2)
 200b774:	10800044 	addi	r2,r2,1
 200b778:	10c1ffcc 	andi	r3,r2,2047
 200b77c:	e0bffe17 	ldw	r2,-8(fp)
 200b780:	10c00a15 	stw	r3,40(r2)
 200b784:	003fe106 	br	200b70c <altera_avalon_jtag_uart_irq+0x60>
 200b788:	e0bffb17 	ldw	r2,-20(fp)
 200b78c:	10bfffec 	andhi	r2,r2,65535
 200b790:	1005003a 	cmpeq	r2,r2,zero
 200b794:	1000101e 	bne	r2,zero,200b7d8 <altera_avalon_jtag_uart_irq+0x12c>
 200b798:	e0bffe17 	ldw	r2,-8(fp)
 200b79c:	10c00817 	ldw	r3,32(r2)
 200b7a0:	00bfff84 	movi	r2,-2
 200b7a4:	1886703a 	and	r3,r3,r2
 200b7a8:	e0bffe17 	ldw	r2,-8(fp)
 200b7ac:	10c00815 	stw	r3,32(r2)
 200b7b0:	e0bffd17 	ldw	r2,-12(fp)
 200b7b4:	11000104 	addi	r4,r2,4
 200b7b8:	e0bffe17 	ldw	r2,-8(fp)
 200b7bc:	10800817 	ldw	r2,32(r2)
 200b7c0:	1007883a 	mov	r3,r2
 200b7c4:	2005883a 	mov	r2,r4
 200b7c8:	10c00035 	stwio	r3,0(r2)
 200b7cc:	e0bffd17 	ldw	r2,-12(fp)
 200b7d0:	10800104 	addi	r2,r2,4
 200b7d4:	10800037 	ldwio	r2,0(r2)
 200b7d8:	e0bffc17 	ldw	r2,-16(fp)
 200b7dc:	1080800c 	andi	r2,r2,512
 200b7e0:	1005003a 	cmpeq	r2,r2,zero
 200b7e4:	103fbb1e 	bne	r2,zero,200b6d4 <altera_avalon_jtag_uart_irq+0x28>
 200b7e8:	e0bffc17 	ldw	r2,-16(fp)
 200b7ec:	10bfffec 	andhi	r2,r2,65535
 200b7f0:	1004d43a 	srli	r2,r2,16
 200b7f4:	e0bff915 	stw	r2,-28(fp)
 200b7f8:	00001506 	br	200b850 <altera_avalon_jtag_uart_irq+0x1a4>
 200b7fc:	e13ffd17 	ldw	r4,-12(fp)
 200b800:	e0bffe17 	ldw	r2,-8(fp)
 200b804:	10c00d17 	ldw	r3,52(r2)
 200b808:	e0bffe17 	ldw	r2,-8(fp)
 200b80c:	1885883a 	add	r2,r3,r2
 200b810:	10820e04 	addi	r2,r2,2104
 200b814:	10800003 	ldbu	r2,0(r2)
 200b818:	10c03fcc 	andi	r3,r2,255
 200b81c:	18c0201c 	xori	r3,r3,128
 200b820:	18ffe004 	addi	r3,r3,-128
 200b824:	2005883a 	mov	r2,r4
 200b828:	10c00035 	stwio	r3,0(r2)
 200b82c:	e0bffe17 	ldw	r2,-8(fp)
 200b830:	10800d17 	ldw	r2,52(r2)
 200b834:	10800044 	addi	r2,r2,1
 200b838:	10c1ffcc 	andi	r3,r2,2047
 200b83c:	e0bffe17 	ldw	r2,-8(fp)
 200b840:	10c00d15 	stw	r3,52(r2)
 200b844:	e0bff917 	ldw	r2,-28(fp)
 200b848:	10bfffc4 	addi	r2,r2,-1
 200b84c:	e0bff915 	stw	r2,-28(fp)
 200b850:	e0bff917 	ldw	r2,-28(fp)
 200b854:	1005003a 	cmpeq	r2,r2,zero
 200b858:	1000051e 	bne	r2,zero,200b870 <altera_avalon_jtag_uart_irq+0x1c4>
 200b85c:	e0bffe17 	ldw	r2,-8(fp)
 200b860:	10c00d17 	ldw	r3,52(r2)
 200b864:	e0bffe17 	ldw	r2,-8(fp)
 200b868:	10800c17 	ldw	r2,48(r2)
 200b86c:	18bfe31e 	bne	r3,r2,200b7fc <altera_avalon_jtag_uart_irq+0x150>
 200b870:	e0bff917 	ldw	r2,-28(fp)
 200b874:	1005003a 	cmpeq	r2,r2,zero
 200b878:	103f961e 	bne	r2,zero,200b6d4 <altera_avalon_jtag_uart_irq+0x28>
 200b87c:	e0bffe17 	ldw	r2,-8(fp)
 200b880:	10c00817 	ldw	r3,32(r2)
 200b884:	00bfff44 	movi	r2,-3
 200b888:	1886703a 	and	r3,r3,r2
 200b88c:	e0bffe17 	ldw	r2,-8(fp)
 200b890:	10c00815 	stw	r3,32(r2)
 200b894:	e0bffe17 	ldw	r2,-8(fp)
 200b898:	10800017 	ldw	r2,0(r2)
 200b89c:	11000104 	addi	r4,r2,4
 200b8a0:	e0bffe17 	ldw	r2,-8(fp)
 200b8a4:	10800817 	ldw	r2,32(r2)
 200b8a8:	1007883a 	mov	r3,r2
 200b8ac:	2005883a 	mov	r2,r4
 200b8b0:	10c00035 	stwio	r3,0(r2)
 200b8b4:	e0bffd17 	ldw	r2,-12(fp)
 200b8b8:	10800104 	addi	r2,r2,4
 200b8bc:	10800037 	ldwio	r2,0(r2)
 200b8c0:	003f8406 	br	200b6d4 <altera_avalon_jtag_uart_irq+0x28>
 200b8c4:	e037883a 	mov	sp,fp
 200b8c8:	df000017 	ldw	fp,0(sp)
 200b8cc:	dec00104 	addi	sp,sp,4
 200b8d0:	f800283a 	ret

0200b8d4 <altera_avalon_jtag_uart_timeout>:
 200b8d4:	defffc04 	addi	sp,sp,-16
 200b8d8:	df000315 	stw	fp,12(sp)
 200b8dc:	df000304 	addi	fp,sp,12
 200b8e0:	e13fff15 	stw	r4,-4(fp)
 200b8e4:	e0bfff17 	ldw	r2,-4(fp)
 200b8e8:	e0bffe15 	stw	r2,-8(fp)
 200b8ec:	e0bffe17 	ldw	r2,-8(fp)
 200b8f0:	10800017 	ldw	r2,0(r2)
 200b8f4:	10800104 	addi	r2,r2,4
 200b8f8:	10800037 	ldwio	r2,0(r2)
 200b8fc:	e0bffd15 	stw	r2,-12(fp)
 200b900:	e0bffd17 	ldw	r2,-12(fp)
 200b904:	1081000c 	andi	r2,r2,1024
 200b908:	1005003a 	cmpeq	r2,r2,zero
 200b90c:	10000c1e 	bne	r2,zero,200b940 <altera_avalon_jtag_uart_timeout+0x6c>
 200b910:	e0bffe17 	ldw	r2,-8(fp)
 200b914:	10800017 	ldw	r2,0(r2)
 200b918:	11000104 	addi	r4,r2,4
 200b91c:	e0bffe17 	ldw	r2,-8(fp)
 200b920:	10800817 	ldw	r2,32(r2)
 200b924:	10810014 	ori	r2,r2,1024
 200b928:	1007883a 	mov	r3,r2
 200b92c:	2005883a 	mov	r2,r4
 200b930:	10c00035 	stwio	r3,0(r2)
 200b934:	e0bffe17 	ldw	r2,-8(fp)
 200b938:	10000915 	stw	zero,36(r2)
 200b93c:	00000a06 	br	200b968 <altera_avalon_jtag_uart_timeout+0x94>
 200b940:	e0bffe17 	ldw	r2,-8(fp)
 200b944:	10c00917 	ldw	r3,36(r2)
 200b948:	00a00034 	movhi	r2,32768
 200b94c:	10bfff04 	addi	r2,r2,-4
 200b950:	10c00536 	bltu	r2,r3,200b968 <altera_avalon_jtag_uart_timeout+0x94>
 200b954:	e0bffe17 	ldw	r2,-8(fp)
 200b958:	10800917 	ldw	r2,36(r2)
 200b95c:	10c00044 	addi	r3,r2,1
 200b960:	e0bffe17 	ldw	r2,-8(fp)
 200b964:	10c00915 	stw	r3,36(r2)
 200b968:	00808074 	movhi	r2,513
 200b96c:	10818e04 	addi	r2,r2,1592
 200b970:	10800017 	ldw	r2,0(r2)
 200b974:	e037883a 	mov	sp,fp
 200b978:	df000017 	ldw	fp,0(sp)
 200b97c:	dec00104 	addi	sp,sp,4
 200b980:	f800283a 	ret

0200b984 <altera_avalon_jtag_uart_close>:
 200b984:	defffc04 	addi	sp,sp,-16
 200b988:	df000315 	stw	fp,12(sp)
 200b98c:	df000304 	addi	fp,sp,12
 200b990:	e13ffd15 	stw	r4,-12(fp)
 200b994:	e17ffe15 	stw	r5,-8(fp)
 200b998:	00000706 	br	200b9b8 <altera_avalon_jtag_uart_close+0x34>
 200b99c:	e0bffe17 	ldw	r2,-8(fp)
 200b9a0:	1090000c 	andi	r2,r2,16384
 200b9a4:	1005003a 	cmpeq	r2,r2,zero
 200b9a8:	1000031e 	bne	r2,zero,200b9b8 <altera_avalon_jtag_uart_close+0x34>
 200b9ac:	00bffd44 	movi	r2,-11
 200b9b0:	e0bfff15 	stw	r2,-4(fp)
 200b9b4:	00000b06 	br	200b9e4 <altera_avalon_jtag_uart_close+0x60>
 200b9b8:	e0bffd17 	ldw	r2,-12(fp)
 200b9bc:	10c00d17 	ldw	r3,52(r2)
 200b9c0:	e0bffd17 	ldw	r2,-12(fp)
 200b9c4:	10800c17 	ldw	r2,48(r2)
 200b9c8:	18800526 	beq	r3,r2,200b9e0 <altera_avalon_jtag_uart_close+0x5c>
 200b9cc:	e0bffd17 	ldw	r2,-12(fp)
 200b9d0:	10c00917 	ldw	r3,36(r2)
 200b9d4:	e0bffd17 	ldw	r2,-12(fp)
 200b9d8:	10800117 	ldw	r2,4(r2)
 200b9dc:	18bfef36 	bltu	r3,r2,200b99c <altera_avalon_jtag_uart_close+0x18>
 200b9e0:	e03fff15 	stw	zero,-4(fp)
 200b9e4:	e0bfff17 	ldw	r2,-4(fp)
 200b9e8:	e037883a 	mov	sp,fp
 200b9ec:	df000017 	ldw	fp,0(sp)
 200b9f0:	dec00104 	addi	sp,sp,4
 200b9f4:	f800283a 	ret

0200b9f8 <altera_avalon_jtag_uart_ioctl>:
 200b9f8:	defff804 	addi	sp,sp,-32
 200b9fc:	df000715 	stw	fp,28(sp)
 200ba00:	df000704 	addi	fp,sp,28
 200ba04:	e13ffb15 	stw	r4,-20(fp)
 200ba08:	e17ffc15 	stw	r5,-16(fp)
 200ba0c:	e1bffd15 	stw	r6,-12(fp)
 200ba10:	00bff9c4 	movi	r2,-25
 200ba14:	e0bffa15 	stw	r2,-24(fp)
 200ba18:	e0bffc17 	ldw	r2,-16(fp)
 200ba1c:	e0bfff15 	stw	r2,-4(fp)
 200ba20:	e0ffff17 	ldw	r3,-4(fp)
 200ba24:	189a8060 	cmpeqi	r2,r3,27137
 200ba28:	1000041e 	bne	r2,zero,200ba3c <altera_avalon_jtag_uart_ioctl+0x44>
 200ba2c:	e0ffff17 	ldw	r3,-4(fp)
 200ba30:	189a80a0 	cmpeqi	r2,r3,27138
 200ba34:	10001b1e 	bne	r2,zero,200baa4 <altera_avalon_jtag_uart_ioctl+0xac>
 200ba38:	00002706 	br	200bad8 <altera_avalon_jtag_uart_ioctl+0xe0>
 200ba3c:	e0bffb17 	ldw	r2,-20(fp)
 200ba40:	10c00117 	ldw	r3,4(r2)
 200ba44:	00a00034 	movhi	r2,32768
 200ba48:	10bfffc4 	addi	r2,r2,-1
 200ba4c:	18802226 	beq	r3,r2,200bad8 <altera_avalon_jtag_uart_ioctl+0xe0>
 200ba50:	e0bffd17 	ldw	r2,-12(fp)
 200ba54:	10800017 	ldw	r2,0(r2)
 200ba58:	e0bff915 	stw	r2,-28(fp)
 200ba5c:	e0bff917 	ldw	r2,-28(fp)
 200ba60:	10800090 	cmplti	r2,r2,2
 200ba64:	1000071e 	bne	r2,zero,200ba84 <altera_avalon_jtag_uart_ioctl+0x8c>
 200ba68:	e0fff917 	ldw	r3,-28(fp)
 200ba6c:	00a00034 	movhi	r2,32768
 200ba70:	10bfffc4 	addi	r2,r2,-1
 200ba74:	18800326 	beq	r3,r2,200ba84 <altera_avalon_jtag_uart_ioctl+0x8c>
 200ba78:	e0bff917 	ldw	r2,-28(fp)
 200ba7c:	e0bffe15 	stw	r2,-8(fp)
 200ba80:	00000306 	br	200ba90 <altera_avalon_jtag_uart_ioctl+0x98>
 200ba84:	00e00034 	movhi	r3,32768
 200ba88:	18ffff84 	addi	r3,r3,-2
 200ba8c:	e0fffe15 	stw	r3,-8(fp)
 200ba90:	e0bffb17 	ldw	r2,-20(fp)
 200ba94:	e0fffe17 	ldw	r3,-8(fp)
 200ba98:	10c00115 	stw	r3,4(r2)
 200ba9c:	e03ffa15 	stw	zero,-24(fp)
 200baa0:	00000d06 	br	200bad8 <altera_avalon_jtag_uart_ioctl+0xe0>
 200baa4:	e0bffb17 	ldw	r2,-20(fp)
 200baa8:	10c00117 	ldw	r3,4(r2)
 200baac:	00a00034 	movhi	r2,32768
 200bab0:	10bfffc4 	addi	r2,r2,-1
 200bab4:	18800826 	beq	r3,r2,200bad8 <altera_avalon_jtag_uart_ioctl+0xe0>
 200bab8:	e13ffd17 	ldw	r4,-12(fp)
 200babc:	e0bffb17 	ldw	r2,-20(fp)
 200bac0:	10c00917 	ldw	r3,36(r2)
 200bac4:	e0bffb17 	ldw	r2,-20(fp)
 200bac8:	10800117 	ldw	r2,4(r2)
 200bacc:	1885803a 	cmpltu	r2,r3,r2
 200bad0:	20800015 	stw	r2,0(r4)
 200bad4:	e03ffa15 	stw	zero,-24(fp)
 200bad8:	e0bffa17 	ldw	r2,-24(fp)
 200badc:	e037883a 	mov	sp,fp
 200bae0:	df000017 	ldw	fp,0(sp)
 200bae4:	dec00104 	addi	sp,sp,4
 200bae8:	f800283a 	ret

0200baec <altera_avalon_jtag_uart_read>:
 200baec:	defff204 	addi	sp,sp,-56
 200baf0:	dfc00d15 	stw	ra,52(sp)
 200baf4:	df000c15 	stw	fp,48(sp)
 200baf8:	df000c04 	addi	fp,sp,48
 200bafc:	e13ffb15 	stw	r4,-20(fp)
 200bb00:	e17ffc15 	stw	r5,-16(fp)
 200bb04:	e1bffd15 	stw	r6,-12(fp)
 200bb08:	e1fffe15 	stw	r7,-8(fp)
 200bb0c:	e0bffc17 	ldw	r2,-16(fp)
 200bb10:	e0bffa15 	stw	r2,-24(fp)
 200bb14:	00004806 	br	200bc38 <altera_avalon_jtag_uart_read+0x14c>
 200bb18:	e0bffb17 	ldw	r2,-20(fp)
 200bb1c:	10800a17 	ldw	r2,40(r2)
 200bb20:	e0bff715 	stw	r2,-36(fp)
 200bb24:	e0bffb17 	ldw	r2,-20(fp)
 200bb28:	10800b17 	ldw	r2,44(r2)
 200bb2c:	e0bff615 	stw	r2,-40(fp)
 200bb30:	e0fff717 	ldw	r3,-36(fp)
 200bb34:	e0bff617 	ldw	r2,-40(fp)
 200bb38:	18800536 	bltu	r3,r2,200bb50 <altera_avalon_jtag_uart_read+0x64>
 200bb3c:	e0bff717 	ldw	r2,-36(fp)
 200bb40:	e0fff617 	ldw	r3,-40(fp)
 200bb44:	10c5c83a 	sub	r2,r2,r3
 200bb48:	e0bff815 	stw	r2,-32(fp)
 200bb4c:	00000406 	br	200bb60 <altera_avalon_jtag_uart_read+0x74>
 200bb50:	00820004 	movi	r2,2048
 200bb54:	e0fff617 	ldw	r3,-40(fp)
 200bb58:	10c5c83a 	sub	r2,r2,r3
 200bb5c:	e0bff815 	stw	r2,-32(fp)
 200bb60:	e0bff817 	ldw	r2,-32(fp)
 200bb64:	1005003a 	cmpeq	r2,r2,zero
 200bb68:	10001f1e 	bne	r2,zero,200bbe8 <altera_avalon_jtag_uart_read+0xfc>
 200bb6c:	e0fffd17 	ldw	r3,-12(fp)
 200bb70:	e0bff817 	ldw	r2,-32(fp)
 200bb74:	1880022e 	bgeu	r3,r2,200bb80 <altera_avalon_jtag_uart_read+0x94>
 200bb78:	e0bffd17 	ldw	r2,-12(fp)
 200bb7c:	e0bff815 	stw	r2,-32(fp)
 200bb80:	e0bffb17 	ldw	r2,-20(fp)
 200bb84:	10c00e04 	addi	r3,r2,56
 200bb88:	e0bff617 	ldw	r2,-40(fp)
 200bb8c:	1887883a 	add	r3,r3,r2
 200bb90:	e0bffa17 	ldw	r2,-24(fp)
 200bb94:	1009883a 	mov	r4,r2
 200bb98:	180b883a 	mov	r5,r3
 200bb9c:	e1bff817 	ldw	r6,-32(fp)
 200bba0:	200e23c0 	call	200e23c <memcpy>
 200bba4:	e0fff817 	ldw	r3,-32(fp)
 200bba8:	e0bffa17 	ldw	r2,-24(fp)
 200bbac:	10c5883a 	add	r2,r2,r3
 200bbb0:	e0bffa15 	stw	r2,-24(fp)
 200bbb4:	e0fffd17 	ldw	r3,-12(fp)
 200bbb8:	e0bff817 	ldw	r2,-32(fp)
 200bbbc:	1885c83a 	sub	r2,r3,r2
 200bbc0:	e0bffd15 	stw	r2,-12(fp)
 200bbc4:	e0fff617 	ldw	r3,-40(fp)
 200bbc8:	e0bff817 	ldw	r2,-32(fp)
 200bbcc:	1885883a 	add	r2,r3,r2
 200bbd0:	10c1ffcc 	andi	r3,r2,2047
 200bbd4:	e0bffb17 	ldw	r2,-20(fp)
 200bbd8:	10c00b15 	stw	r3,44(r2)
 200bbdc:	e0bffd17 	ldw	r2,-12(fp)
 200bbe0:	10800048 	cmpgei	r2,r2,1
 200bbe4:	103fcc1e 	bne	r2,zero,200bb18 <altera_avalon_jtag_uart_read+0x2c>
 200bbe8:	e0fffa17 	ldw	r3,-24(fp)
 200bbec:	e0bffc17 	ldw	r2,-16(fp)
 200bbf0:	1880141e 	bne	r3,r2,200bc44 <altera_avalon_jtag_uart_read+0x158>
 200bbf4:	e0bffe17 	ldw	r2,-8(fp)
 200bbf8:	1090000c 	andi	r2,r2,16384
 200bbfc:	1004c03a 	cmpne	r2,r2,zero
 200bc00:	1000101e 	bne	r2,zero,200bc44 <altera_avalon_jtag_uart_read+0x158>
 200bc04:	e0bffb17 	ldw	r2,-20(fp)
 200bc08:	10c00a17 	ldw	r3,40(r2)
 200bc0c:	e0bff717 	ldw	r2,-36(fp)
 200bc10:	1880051e 	bne	r3,r2,200bc28 <altera_avalon_jtag_uart_read+0x13c>
 200bc14:	e0bffb17 	ldw	r2,-20(fp)
 200bc18:	10c00917 	ldw	r3,36(r2)
 200bc1c:	e0bffb17 	ldw	r2,-20(fp)
 200bc20:	10800117 	ldw	r2,4(r2)
 200bc24:	18bff736 	bltu	r3,r2,200bc04 <altera_avalon_jtag_uart_read+0x118>
 200bc28:	e0bffb17 	ldw	r2,-20(fp)
 200bc2c:	10c00a17 	ldw	r3,40(r2)
 200bc30:	e0bff717 	ldw	r2,-36(fp)
 200bc34:	18800326 	beq	r3,r2,200bc44 <altera_avalon_jtag_uart_read+0x158>
 200bc38:	e0bffd17 	ldw	r2,-12(fp)
 200bc3c:	10800048 	cmpgei	r2,r2,1
 200bc40:	103fb51e 	bne	r2,zero,200bb18 <altera_avalon_jtag_uart_read+0x2c>
 200bc44:	e0fffa17 	ldw	r3,-24(fp)
 200bc48:	e0bffc17 	ldw	r2,-16(fp)
 200bc4c:	18801926 	beq	r3,r2,200bcb4 <altera_avalon_jtag_uart_read+0x1c8>
 200bc50:	0005303a 	rdctl	r2,status
 200bc54:	e0bff515 	stw	r2,-44(fp)
 200bc58:	e0fff517 	ldw	r3,-44(fp)
 200bc5c:	00bfff84 	movi	r2,-2
 200bc60:	1884703a 	and	r2,r3,r2
 200bc64:	1001703a 	wrctl	status,r2
 200bc68:	e0bff517 	ldw	r2,-44(fp)
 200bc6c:	e0bff915 	stw	r2,-28(fp)
 200bc70:	e0bffb17 	ldw	r2,-20(fp)
 200bc74:	10800817 	ldw	r2,32(r2)
 200bc78:	10c00054 	ori	r3,r2,1
 200bc7c:	e0bffb17 	ldw	r2,-20(fp)
 200bc80:	10c00815 	stw	r3,32(r2)
 200bc84:	e0bffb17 	ldw	r2,-20(fp)
 200bc88:	10800017 	ldw	r2,0(r2)
 200bc8c:	11000104 	addi	r4,r2,4
 200bc90:	e0bffb17 	ldw	r2,-20(fp)
 200bc94:	10800817 	ldw	r2,32(r2)
 200bc98:	1007883a 	mov	r3,r2
 200bc9c:	2005883a 	mov	r2,r4
 200bca0:	10c00035 	stwio	r3,0(r2)
 200bca4:	e0bff917 	ldw	r2,-28(fp)
 200bca8:	e0bff415 	stw	r2,-48(fp)
 200bcac:	e0bff417 	ldw	r2,-48(fp)
 200bcb0:	1001703a 	wrctl	status,r2
 200bcb4:	e0fffa17 	ldw	r3,-24(fp)
 200bcb8:	e0bffc17 	ldw	r2,-16(fp)
 200bcbc:	18800526 	beq	r3,r2,200bcd4 <altera_avalon_jtag_uart_read+0x1e8>
 200bcc0:	e0fffa17 	ldw	r3,-24(fp)
 200bcc4:	e0bffc17 	ldw	r2,-16(fp)
 200bcc8:	1887c83a 	sub	r3,r3,r2
 200bccc:	e0ffff15 	stw	r3,-4(fp)
 200bcd0:	00000906 	br	200bcf8 <altera_avalon_jtag_uart_read+0x20c>
 200bcd4:	e0bffe17 	ldw	r2,-8(fp)
 200bcd8:	1090000c 	andi	r2,r2,16384
 200bcdc:	1005003a 	cmpeq	r2,r2,zero
 200bce0:	1000031e 	bne	r2,zero,200bcf0 <altera_avalon_jtag_uart_read+0x204>
 200bce4:	00bffd44 	movi	r2,-11
 200bce8:	e0bfff15 	stw	r2,-4(fp)
 200bcec:	00000206 	br	200bcf8 <altera_avalon_jtag_uart_read+0x20c>
 200bcf0:	00bffec4 	movi	r2,-5
 200bcf4:	e0bfff15 	stw	r2,-4(fp)
 200bcf8:	e0bfff17 	ldw	r2,-4(fp)
 200bcfc:	e037883a 	mov	sp,fp
 200bd00:	dfc00117 	ldw	ra,4(sp)
 200bd04:	df000017 	ldw	fp,0(sp)
 200bd08:	dec00204 	addi	sp,sp,8
 200bd0c:	f800283a 	ret

0200bd10 <altera_avalon_jtag_uart_write>:
 200bd10:	defff204 	addi	sp,sp,-56
 200bd14:	dfc00d15 	stw	ra,52(sp)
 200bd18:	df000c15 	stw	fp,48(sp)
 200bd1c:	df000c04 	addi	fp,sp,48
 200bd20:	e13ffb15 	stw	r4,-20(fp)
 200bd24:	e17ffc15 	stw	r5,-16(fp)
 200bd28:	e1bffd15 	stw	r6,-12(fp)
 200bd2c:	e1fffe15 	stw	r7,-8(fp)
 200bd30:	e03ff915 	stw	zero,-28(fp)
 200bd34:	e0bffc17 	ldw	r2,-16(fp)
 200bd38:	e0bff615 	stw	r2,-40(fp)
 200bd3c:	00003a06 	br	200be28 <altera_avalon_jtag_uart_write+0x118>
 200bd40:	e0bffb17 	ldw	r2,-20(fp)
 200bd44:	10800c17 	ldw	r2,48(r2)
 200bd48:	e0bffa15 	stw	r2,-24(fp)
 200bd4c:	e0bffb17 	ldw	r2,-20(fp)
 200bd50:	10800d17 	ldw	r2,52(r2)
 200bd54:	e0bff915 	stw	r2,-28(fp)
 200bd58:	e0fffa17 	ldw	r3,-24(fp)
 200bd5c:	e0bff917 	ldw	r2,-28(fp)
 200bd60:	1880062e 	bgeu	r3,r2,200bd7c <altera_avalon_jtag_uart_write+0x6c>
 200bd64:	e0fff917 	ldw	r3,-28(fp)
 200bd68:	e0bffa17 	ldw	r2,-24(fp)
 200bd6c:	1885c83a 	sub	r2,r3,r2
 200bd70:	10bfffc4 	addi	r2,r2,-1
 200bd74:	e0bff815 	stw	r2,-32(fp)
 200bd78:	00000c06 	br	200bdac <altera_avalon_jtag_uart_write+0x9c>
 200bd7c:	e0bff917 	ldw	r2,-28(fp)
 200bd80:	1005003a 	cmpeq	r2,r2,zero
 200bd84:	1000051e 	bne	r2,zero,200bd9c <altera_avalon_jtag_uart_write+0x8c>
 200bd88:	00820004 	movi	r2,2048
 200bd8c:	e0fffa17 	ldw	r3,-24(fp)
 200bd90:	10c5c83a 	sub	r2,r2,r3
 200bd94:	e0bff815 	stw	r2,-32(fp)
 200bd98:	00000406 	br	200bdac <altera_avalon_jtag_uart_write+0x9c>
 200bd9c:	0081ffc4 	movi	r2,2047
 200bda0:	e0fffa17 	ldw	r3,-24(fp)
 200bda4:	10c5c83a 	sub	r2,r2,r3
 200bda8:	e0bff815 	stw	r2,-32(fp)
 200bdac:	e0bff817 	ldw	r2,-32(fp)
 200bdb0:	1005003a 	cmpeq	r2,r2,zero
 200bdb4:	10001f1e 	bne	r2,zero,200be34 <altera_avalon_jtag_uart_write+0x124>
 200bdb8:	e0fffd17 	ldw	r3,-12(fp)
 200bdbc:	e0bff817 	ldw	r2,-32(fp)
 200bdc0:	1880022e 	bgeu	r3,r2,200bdcc <altera_avalon_jtag_uart_write+0xbc>
 200bdc4:	e0bffd17 	ldw	r2,-12(fp)
 200bdc8:	e0bff815 	stw	r2,-32(fp)
 200bdcc:	e0bffb17 	ldw	r2,-20(fp)
 200bdd0:	10c20e04 	addi	r3,r2,2104
 200bdd4:	e0bffa17 	ldw	r2,-24(fp)
 200bdd8:	1885883a 	add	r2,r3,r2
 200bddc:	e0fffc17 	ldw	r3,-16(fp)
 200bde0:	1009883a 	mov	r4,r2
 200bde4:	180b883a 	mov	r5,r3
 200bde8:	e1bff817 	ldw	r6,-32(fp)
 200bdec:	200e23c0 	call	200e23c <memcpy>
 200bdf0:	e0fff817 	ldw	r3,-32(fp)
 200bdf4:	e0bffc17 	ldw	r2,-16(fp)
 200bdf8:	10c5883a 	add	r2,r2,r3
 200bdfc:	e0bffc15 	stw	r2,-16(fp)
 200be00:	e0fffd17 	ldw	r3,-12(fp)
 200be04:	e0bff817 	ldw	r2,-32(fp)
 200be08:	1885c83a 	sub	r2,r3,r2
 200be0c:	e0bffd15 	stw	r2,-12(fp)
 200be10:	e0fffa17 	ldw	r3,-24(fp)
 200be14:	e0bff817 	ldw	r2,-32(fp)
 200be18:	1885883a 	add	r2,r3,r2
 200be1c:	10c1ffcc 	andi	r3,r2,2047
 200be20:	e0bffb17 	ldw	r2,-20(fp)
 200be24:	10c00c15 	stw	r3,48(r2)
 200be28:	e0bffd17 	ldw	r2,-12(fp)
 200be2c:	10800048 	cmpgei	r2,r2,1
 200be30:	103fc31e 	bne	r2,zero,200bd40 <altera_avalon_jtag_uart_write+0x30>
 200be34:	0005303a 	rdctl	r2,status
 200be38:	e0bff515 	stw	r2,-44(fp)
 200be3c:	e0fff517 	ldw	r3,-44(fp)
 200be40:	00bfff84 	movi	r2,-2
 200be44:	1884703a 	and	r2,r3,r2
 200be48:	1001703a 	wrctl	status,r2
 200be4c:	e0bff517 	ldw	r2,-44(fp)
 200be50:	e0bff715 	stw	r2,-36(fp)
 200be54:	e0bffb17 	ldw	r2,-20(fp)
 200be58:	10800817 	ldw	r2,32(r2)
 200be5c:	10c00094 	ori	r3,r2,2
 200be60:	e0bffb17 	ldw	r2,-20(fp)
 200be64:	10c00815 	stw	r3,32(r2)
 200be68:	e0bffb17 	ldw	r2,-20(fp)
 200be6c:	10800017 	ldw	r2,0(r2)
 200be70:	11000104 	addi	r4,r2,4
 200be74:	e0bffb17 	ldw	r2,-20(fp)
 200be78:	10800817 	ldw	r2,32(r2)
 200be7c:	1007883a 	mov	r3,r2
 200be80:	2005883a 	mov	r2,r4
 200be84:	10c00035 	stwio	r3,0(r2)
 200be88:	e0bff717 	ldw	r2,-36(fp)
 200be8c:	e0bff415 	stw	r2,-48(fp)
 200be90:	e0bff417 	ldw	r2,-48(fp)
 200be94:	1001703a 	wrctl	status,r2
 200be98:	e0bffd17 	ldw	r2,-12(fp)
 200be9c:	10800050 	cmplti	r2,r2,1
 200bea0:	1000111e 	bne	r2,zero,200bee8 <altera_avalon_jtag_uart_write+0x1d8>
 200bea4:	e0bffe17 	ldw	r2,-8(fp)
 200bea8:	1090000c 	andi	r2,r2,16384
 200beac:	1004c03a 	cmpne	r2,r2,zero
 200beb0:	1000101e 	bne	r2,zero,200bef4 <altera_avalon_jtag_uart_write+0x1e4>
 200beb4:	e0bffb17 	ldw	r2,-20(fp)
 200beb8:	10c00d17 	ldw	r3,52(r2)
 200bebc:	e0bff917 	ldw	r2,-28(fp)
 200bec0:	1880051e 	bne	r3,r2,200bed8 <altera_avalon_jtag_uart_write+0x1c8>
 200bec4:	e0bffb17 	ldw	r2,-20(fp)
 200bec8:	10c00917 	ldw	r3,36(r2)
 200becc:	e0bffb17 	ldw	r2,-20(fp)
 200bed0:	10800117 	ldw	r2,4(r2)
 200bed4:	18bff736 	bltu	r3,r2,200beb4 <altera_avalon_jtag_uart_write+0x1a4>
 200bed8:	e0bffb17 	ldw	r2,-20(fp)
 200bedc:	10c00d17 	ldw	r3,52(r2)
 200bee0:	e0bff917 	ldw	r2,-28(fp)
 200bee4:	18800326 	beq	r3,r2,200bef4 <altera_avalon_jtag_uart_write+0x1e4>
 200bee8:	e0bffd17 	ldw	r2,-12(fp)
 200beec:	10800048 	cmpgei	r2,r2,1
 200bef0:	103fcd1e 	bne	r2,zero,200be28 <altera_avalon_jtag_uart_write+0x118>
 200bef4:	e0fffc17 	ldw	r3,-16(fp)
 200bef8:	e0bff617 	ldw	r2,-40(fp)
 200befc:	18800526 	beq	r3,r2,200bf14 <altera_avalon_jtag_uart_write+0x204>
 200bf00:	e0fffc17 	ldw	r3,-16(fp)
 200bf04:	e0bff617 	ldw	r2,-40(fp)
 200bf08:	1887c83a 	sub	r3,r3,r2
 200bf0c:	e0ffff15 	stw	r3,-4(fp)
 200bf10:	00000906 	br	200bf38 <altera_avalon_jtag_uart_write+0x228>
 200bf14:	e0bffe17 	ldw	r2,-8(fp)
 200bf18:	1090000c 	andi	r2,r2,16384
 200bf1c:	1005003a 	cmpeq	r2,r2,zero
 200bf20:	1000031e 	bne	r2,zero,200bf30 <altera_avalon_jtag_uart_write+0x220>
 200bf24:	00bffd44 	movi	r2,-11
 200bf28:	e0bfff15 	stw	r2,-4(fp)
 200bf2c:	00000206 	br	200bf38 <altera_avalon_jtag_uart_write+0x228>
 200bf30:	00bffec4 	movi	r2,-5
 200bf34:	e0bfff15 	stw	r2,-4(fp)
 200bf38:	e0bfff17 	ldw	r2,-4(fp)
 200bf3c:	e037883a 	mov	sp,fp
 200bf40:	dfc00117 	ldw	ra,4(sp)
 200bf44:	df000017 	ldw	fp,0(sp)
 200bf48:	dec00204 	addi	sp,sp,8
 200bf4c:	f800283a 	ret

0200bf50 <alt_avalon_timer_sc_irq>:
 200bf50:	defffa04 	addi	sp,sp,-24
 200bf54:	dfc00515 	stw	ra,20(sp)
 200bf58:	df000415 	stw	fp,16(sp)
 200bf5c:	df000404 	addi	fp,sp,16
 200bf60:	e13fff15 	stw	r4,-4(fp)
 200bf64:	e0bfff17 	ldw	r2,-4(fp)
 200bf68:	10000035 	stwio	zero,0(r2)
 200bf6c:	e0bfff17 	ldw	r2,-4(fp)
 200bf70:	10800104 	addi	r2,r2,4
 200bf74:	10800037 	ldwio	r2,0(r2)
 200bf78:	0005303a 	rdctl	r2,status
 200bf7c:	e0bffd15 	stw	r2,-12(fp)
 200bf80:	e0fffd17 	ldw	r3,-12(fp)
 200bf84:	00bfff84 	movi	r2,-2
 200bf88:	1884703a 	and	r2,r3,r2
 200bf8c:	1001703a 	wrctl	status,r2
 200bf90:	e0bffd17 	ldw	r2,-12(fp)
 200bf94:	e0bffe15 	stw	r2,-8(fp)
 200bf98:	200dbac0 	call	200dbac <alt_tick>
 200bf9c:	e0bffe17 	ldw	r2,-8(fp)
 200bfa0:	e0bffc15 	stw	r2,-16(fp)
 200bfa4:	e0bffc17 	ldw	r2,-16(fp)
 200bfa8:	1001703a 	wrctl	status,r2
 200bfac:	e037883a 	mov	sp,fp
 200bfb0:	dfc00117 	ldw	ra,4(sp)
 200bfb4:	df000017 	ldw	fp,0(sp)
 200bfb8:	dec00204 	addi	sp,sp,8
 200bfbc:	f800283a 	ret

0200bfc0 <alt_avalon_timer_sc_init>:
 200bfc0:	defff804 	addi	sp,sp,-32
 200bfc4:	dfc00715 	stw	ra,28(sp)
 200bfc8:	df000615 	stw	fp,24(sp)
 200bfcc:	df000604 	addi	fp,sp,24
 200bfd0:	e13ffc15 	stw	r4,-16(fp)
 200bfd4:	e17ffd15 	stw	r5,-12(fp)
 200bfd8:	e1bffe15 	stw	r6,-8(fp)
 200bfdc:	e1ffff15 	stw	r7,-4(fp)
 200bfe0:	e0bfff17 	ldw	r2,-4(fp)
 200bfe4:	e0bffb15 	stw	r2,-20(fp)
 200bfe8:	00808074 	movhi	r2,513
 200bfec:	10818e04 	addi	r2,r2,1592
 200bff0:	10800017 	ldw	r2,0(r2)
 200bff4:	1004c03a 	cmpne	r2,r2,zero
 200bff8:	1000041e 	bne	r2,zero,200c00c <alt_avalon_timer_sc_init+0x4c>
 200bffc:	00c08074 	movhi	r3,513
 200c000:	18c18e04 	addi	r3,r3,1592
 200c004:	e0bffb17 	ldw	r2,-20(fp)
 200c008:	18800015 	stw	r2,0(r3)
 200c00c:	e0bffc17 	ldw	r2,-16(fp)
 200c010:	10800104 	addi	r2,r2,4
 200c014:	1007883a 	mov	r3,r2
 200c018:	008001c4 	movi	r2,7
 200c01c:	18800035 	stwio	r2,0(r3)
 200c020:	d8000015 	stw	zero,0(sp)
 200c024:	e13ffd17 	ldw	r4,-12(fp)
 200c028:	e17ffe17 	ldw	r5,-8(fp)
 200c02c:	01808074 	movhi	r6,513
 200c030:	31afd404 	addi	r6,r6,-16560
 200c034:	e1fffc17 	ldw	r7,-16(fp)
 200c038:	200d3e80 	call	200d3e8 <alt_ic_isr_register>
 200c03c:	e037883a 	mov	sp,fp
 200c040:	dfc00117 	ldw	ra,4(sp)
 200c044:	df000017 	ldw	fp,0(sp)
 200c048:	dec00204 	addi	sp,sp,8
 200c04c:	f800283a 	ret

0200c050 <altera_avalon_uart_read_fd>:
 200c050:	defffa04 	addi	sp,sp,-24
 200c054:	dfc00515 	stw	ra,20(sp)
 200c058:	df000415 	stw	fp,16(sp)
 200c05c:	df000404 	addi	fp,sp,16
 200c060:	e13ffd15 	stw	r4,-12(fp)
 200c064:	e17ffe15 	stw	r5,-8(fp)
 200c068:	e1bfff15 	stw	r6,-4(fp)
 200c06c:	e0bffd17 	ldw	r2,-12(fp)
 200c070:	10800017 	ldw	r2,0(r2)
 200c074:	e0bffc15 	stw	r2,-16(fp)
 200c078:	e0bffc17 	ldw	r2,-16(fp)
 200c07c:	11000a04 	addi	r4,r2,40
 200c080:	e0bffd17 	ldw	r2,-12(fp)
 200c084:	11c00217 	ldw	r7,8(r2)
 200c088:	e17ffe17 	ldw	r5,-8(fp)
 200c08c:	e1bfff17 	ldw	r6,-4(fp)
 200c090:	200c5480 	call	200c548 <altera_avalon_uart_read>
 200c094:	e037883a 	mov	sp,fp
 200c098:	dfc00117 	ldw	ra,4(sp)
 200c09c:	df000017 	ldw	fp,0(sp)
 200c0a0:	dec00204 	addi	sp,sp,8
 200c0a4:	f800283a 	ret

0200c0a8 <altera_avalon_uart_write_fd>:
 200c0a8:	defffa04 	addi	sp,sp,-24
 200c0ac:	dfc00515 	stw	ra,20(sp)
 200c0b0:	df000415 	stw	fp,16(sp)
 200c0b4:	df000404 	addi	fp,sp,16
 200c0b8:	e13ffd15 	stw	r4,-12(fp)
 200c0bc:	e17ffe15 	stw	r5,-8(fp)
 200c0c0:	e1bfff15 	stw	r6,-4(fp)
 200c0c4:	e0bffd17 	ldw	r2,-12(fp)
 200c0c8:	10800017 	ldw	r2,0(r2)
 200c0cc:	e0bffc15 	stw	r2,-16(fp)
 200c0d0:	e0bffc17 	ldw	r2,-16(fp)
 200c0d4:	11000a04 	addi	r4,r2,40
 200c0d8:	e0bffd17 	ldw	r2,-12(fp)
 200c0dc:	11c00217 	ldw	r7,8(r2)
 200c0e0:	e17ffe17 	ldw	r5,-8(fp)
 200c0e4:	e1bfff17 	ldw	r6,-4(fp)
 200c0e8:	200c7d80 	call	200c7d8 <altera_avalon_uart_write>
 200c0ec:	e037883a 	mov	sp,fp
 200c0f0:	dfc00117 	ldw	ra,4(sp)
 200c0f4:	df000017 	ldw	fp,0(sp)
 200c0f8:	dec00204 	addi	sp,sp,8
 200c0fc:	f800283a 	ret

0200c100 <altera_avalon_uart_close_fd>:
 200c100:	defffc04 	addi	sp,sp,-16
 200c104:	dfc00315 	stw	ra,12(sp)
 200c108:	df000215 	stw	fp,8(sp)
 200c10c:	df000204 	addi	fp,sp,8
 200c110:	e13fff15 	stw	r4,-4(fp)
 200c114:	e0bfff17 	ldw	r2,-4(fp)
 200c118:	10800017 	ldw	r2,0(r2)
 200c11c:	e0bffe15 	stw	r2,-8(fp)
 200c120:	e0bffe17 	ldw	r2,-8(fp)
 200c124:	11000a04 	addi	r4,r2,40
 200c128:	e0bfff17 	ldw	r2,-4(fp)
 200c12c:	11400217 	ldw	r5,8(r2)
 200c130:	200c4e80 	call	200c4e8 <altera_avalon_uart_close>
 200c134:	e037883a 	mov	sp,fp
 200c138:	dfc00117 	ldw	ra,4(sp)
 200c13c:	df000017 	ldw	fp,0(sp)
 200c140:	dec00204 	addi	sp,sp,8
 200c144:	f800283a 	ret

0200c148 <altera_avalon_uart_init>:
 200c148:	defff704 	addi	sp,sp,-36
 200c14c:	dfc00815 	stw	ra,32(sp)
 200c150:	df000715 	stw	fp,28(sp)
 200c154:	df000704 	addi	fp,sp,28
 200c158:	e13ffc15 	stw	r4,-16(fp)
 200c15c:	e17ffd15 	stw	r5,-12(fp)
 200c160:	e1bffe15 	stw	r6,-8(fp)
 200c164:	e0bffc17 	ldw	r2,-16(fp)
 200c168:	10800017 	ldw	r2,0(r2)
 200c16c:	e0bffb15 	stw	r2,-20(fp)
 200c170:	0005883a 	mov	r2,zero
 200c174:	1004c03a 	cmpne	r2,r2,zero
 200c178:	1000061e 	bne	r2,zero,200c194 <altera_avalon_uart_init+0x4c>
 200c17c:	0005883a 	mov	r2,zero
 200c180:	1004c03a 	cmpne	r2,r2,zero
 200c184:	1000031e 	bne	r2,zero,200c194 <altera_avalon_uart_init+0x4c>
 200c188:	0005883a 	mov	r2,zero
 200c18c:	1005003a 	cmpeq	r2,r2,zero
 200c190:	1000031e 	bne	r2,zero,200c1a0 <altera_avalon_uart_init+0x58>
 200c194:	00800044 	movi	r2,1
 200c198:	e0bfff15 	stw	r2,-4(fp)
 200c19c:	00000106 	br	200c1a4 <altera_avalon_uart_init+0x5c>
 200c1a0:	e03fff15 	stw	zero,-4(fp)
 200c1a4:	e0bfff17 	ldw	r2,-4(fp)
 200c1a8:	e0bffa15 	stw	r2,-24(fp)
 200c1ac:	e0bffa17 	ldw	r2,-24(fp)
 200c1b0:	1004c03a 	cmpne	r2,r2,zero
 200c1b4:	1000111e 	bne	r2,zero,200c1fc <altera_avalon_uart_init+0xb4>
 200c1b8:	e0fffc17 	ldw	r3,-16(fp)
 200c1bc:	00832004 	movi	r2,3200
 200c1c0:	18800115 	stw	r2,4(r3)
 200c1c4:	e0bffb17 	ldw	r2,-20(fp)
 200c1c8:	11000304 	addi	r4,r2,12
 200c1cc:	e0bffc17 	ldw	r2,-16(fp)
 200c1d0:	10800117 	ldw	r2,4(r2)
 200c1d4:	1007883a 	mov	r3,r2
 200c1d8:	2005883a 	mov	r2,r4
 200c1dc:	10c00035 	stwio	r3,0(r2)
 200c1e0:	d8000015 	stw	zero,0(sp)
 200c1e4:	e13ffd17 	ldw	r4,-12(fp)
 200c1e8:	e17ffe17 	ldw	r5,-8(fp)
 200c1ec:	01808074 	movhi	r6,513
 200c1f0:	31b08404 	addi	r6,r6,-15856
 200c1f4:	e1fffc17 	ldw	r7,-16(fp)
 200c1f8:	200d3e80 	call	200d3e8 <alt_ic_isr_register>
 200c1fc:	e037883a 	mov	sp,fp
 200c200:	dfc00117 	ldw	ra,4(sp)
 200c204:	df000017 	ldw	fp,0(sp)
 200c208:	dec00204 	addi	sp,sp,8
 200c20c:	f800283a 	ret

0200c210 <altera_avalon_uart_irq>:
 200c210:	defffa04 	addi	sp,sp,-24
 200c214:	dfc00515 	stw	ra,20(sp)
 200c218:	df000415 	stw	fp,16(sp)
 200c21c:	df000404 	addi	fp,sp,16
 200c220:	e13fff15 	stw	r4,-4(fp)
 200c224:	e0bfff17 	ldw	r2,-4(fp)
 200c228:	e0bffd15 	stw	r2,-12(fp)
 200c22c:	e0bffd17 	ldw	r2,-12(fp)
 200c230:	10800017 	ldw	r2,0(r2)
 200c234:	e0bffc15 	stw	r2,-16(fp)
 200c238:	e0bffc17 	ldw	r2,-16(fp)
 200c23c:	10800204 	addi	r2,r2,8
 200c240:	10800037 	ldwio	r2,0(r2)
 200c244:	e0bffe15 	stw	r2,-8(fp)
 200c248:	e0bffc17 	ldw	r2,-16(fp)
 200c24c:	10800204 	addi	r2,r2,8
 200c250:	10000035 	stwio	zero,0(r2)
 200c254:	e0bffc17 	ldw	r2,-16(fp)
 200c258:	10800204 	addi	r2,r2,8
 200c25c:	10800037 	ldwio	r2,0(r2)
 200c260:	e0bffe17 	ldw	r2,-8(fp)
 200c264:	1080200c 	andi	r2,r2,128
 200c268:	1005003a 	cmpeq	r2,r2,zero
 200c26c:	1000031e 	bne	r2,zero,200c27c <altera_avalon_uart_irq+0x6c>
 200c270:	e13ffd17 	ldw	r4,-12(fp)
 200c274:	e17ffe17 	ldw	r5,-8(fp)
 200c278:	200c2ac0 	call	200c2ac <altera_avalon_uart_rxirq>
 200c27c:	e0bffe17 	ldw	r2,-8(fp)
 200c280:	1081100c 	andi	r2,r2,1088
 200c284:	1005003a 	cmpeq	r2,r2,zero
 200c288:	1000031e 	bne	r2,zero,200c298 <altera_avalon_uart_irq+0x88>
 200c28c:	e13ffd17 	ldw	r4,-12(fp)
 200c290:	e17ffe17 	ldw	r5,-8(fp)
 200c294:	200c38c0 	call	200c38c <altera_avalon_uart_txirq>
 200c298:	e037883a 	mov	sp,fp
 200c29c:	dfc00117 	ldw	ra,4(sp)
 200c2a0:	df000017 	ldw	fp,0(sp)
 200c2a4:	dec00204 	addi	sp,sp,8
 200c2a8:	f800283a 	ret

0200c2ac <altera_avalon_uart_rxirq>:
 200c2ac:	defffc04 	addi	sp,sp,-16
 200c2b0:	df000315 	stw	fp,12(sp)
 200c2b4:	df000304 	addi	fp,sp,12
 200c2b8:	e13ffe15 	stw	r4,-8(fp)
 200c2bc:	e17fff15 	stw	r5,-4(fp)
 200c2c0:	e0bfff17 	ldw	r2,-4(fp)
 200c2c4:	108000cc 	andi	r2,r2,3
 200c2c8:	1004c03a 	cmpne	r2,r2,zero
 200c2cc:	10002b1e 	bne	r2,zero,200c37c <altera_avalon_uart_rxirq+0xd0>
 200c2d0:	e0bffe17 	ldw	r2,-8(fp)
 200c2d4:	10800317 	ldw	r2,12(r2)
 200c2d8:	e0bffe17 	ldw	r2,-8(fp)
 200c2dc:	10800317 	ldw	r2,12(r2)
 200c2e0:	10800044 	addi	r2,r2,1
 200c2e4:	10800fcc 	andi	r2,r2,63
 200c2e8:	e0bffd15 	stw	r2,-12(fp)
 200c2ec:	e0bffe17 	ldw	r2,-8(fp)
 200c2f0:	11000317 	ldw	r4,12(r2)
 200c2f4:	e0bffe17 	ldw	r2,-8(fp)
 200c2f8:	10800017 	ldw	r2,0(r2)
 200c2fc:	10800037 	ldwio	r2,0(r2)
 200c300:	1007883a 	mov	r3,r2
 200c304:	e0bffe17 	ldw	r2,-8(fp)
 200c308:	2085883a 	add	r2,r4,r2
 200c30c:	10800704 	addi	r2,r2,28
 200c310:	10c00005 	stb	r3,0(r2)
 200c314:	e0fffe17 	ldw	r3,-8(fp)
 200c318:	e0bffd17 	ldw	r2,-12(fp)
 200c31c:	18800315 	stw	r2,12(r3)
 200c320:	e0bffe17 	ldw	r2,-8(fp)
 200c324:	10800317 	ldw	r2,12(r2)
 200c328:	10800044 	addi	r2,r2,1
 200c32c:	10800fcc 	andi	r2,r2,63
 200c330:	e0bffd15 	stw	r2,-12(fp)
 200c334:	e0bffe17 	ldw	r2,-8(fp)
 200c338:	10c00217 	ldw	r3,8(r2)
 200c33c:	e0bffd17 	ldw	r2,-12(fp)
 200c340:	18800e1e 	bne	r3,r2,200c37c <altera_avalon_uart_rxirq+0xd0>
 200c344:	e0bffe17 	ldw	r2,-8(fp)
 200c348:	10c00117 	ldw	r3,4(r2)
 200c34c:	00bfdfc4 	movi	r2,-129
 200c350:	1886703a 	and	r3,r3,r2
 200c354:	e0bffe17 	ldw	r2,-8(fp)
 200c358:	10c00115 	stw	r3,4(r2)
 200c35c:	e0bffe17 	ldw	r2,-8(fp)
 200c360:	10800017 	ldw	r2,0(r2)
 200c364:	11000304 	addi	r4,r2,12
 200c368:	e0bffe17 	ldw	r2,-8(fp)
 200c36c:	10800117 	ldw	r2,4(r2)
 200c370:	1007883a 	mov	r3,r2
 200c374:	2005883a 	mov	r2,r4
 200c378:	10c00035 	stwio	r3,0(r2)
 200c37c:	e037883a 	mov	sp,fp
 200c380:	df000017 	ldw	fp,0(sp)
 200c384:	dec00104 	addi	sp,sp,4
 200c388:	f800283a 	ret

0200c38c <altera_avalon_uart_txirq>:
 200c38c:	defffd04 	addi	sp,sp,-12
 200c390:	df000215 	stw	fp,8(sp)
 200c394:	df000204 	addi	fp,sp,8
 200c398:	e13ffe15 	stw	r4,-8(fp)
 200c39c:	e17fff15 	stw	r5,-4(fp)
 200c3a0:	e0bffe17 	ldw	r2,-8(fp)
 200c3a4:	10c00417 	ldw	r3,16(r2)
 200c3a8:	e0bffe17 	ldw	r2,-8(fp)
 200c3ac:	10800517 	ldw	r2,20(r2)
 200c3b0:	18803626 	beq	r3,r2,200c48c <altera_avalon_uart_txirq+0x100>
 200c3b4:	e0bffe17 	ldw	r2,-8(fp)
 200c3b8:	10800617 	ldw	r2,24(r2)
 200c3bc:	1080008c 	andi	r2,r2,2
 200c3c0:	1005003a 	cmpeq	r2,r2,zero
 200c3c4:	1000041e 	bne	r2,zero,200c3d8 <altera_avalon_uart_txirq+0x4c>
 200c3c8:	e0bfff17 	ldw	r2,-4(fp)
 200c3cc:	1082000c 	andi	r2,r2,2048
 200c3d0:	1005003a 	cmpeq	r2,r2,zero
 200c3d4:	10001e1e 	bne	r2,zero,200c450 <altera_avalon_uart_txirq+0xc4>
 200c3d8:	e0bffe17 	ldw	r2,-8(fp)
 200c3dc:	10800417 	ldw	r2,16(r2)
 200c3e0:	e0bffe17 	ldw	r2,-8(fp)
 200c3e4:	10800017 	ldw	r2,0(r2)
 200c3e8:	11000104 	addi	r4,r2,4
 200c3ec:	e0bffe17 	ldw	r2,-8(fp)
 200c3f0:	10c00417 	ldw	r3,16(r2)
 200c3f4:	e0bffe17 	ldw	r2,-8(fp)
 200c3f8:	1885883a 	add	r2,r3,r2
 200c3fc:	10801704 	addi	r2,r2,92
 200c400:	10800003 	ldbu	r2,0(r2)
 200c404:	10c03fcc 	andi	r3,r2,255
 200c408:	2005883a 	mov	r2,r4
 200c40c:	10c00035 	stwio	r3,0(r2)
 200c410:	e0bffe17 	ldw	r2,-8(fp)
 200c414:	10800417 	ldw	r2,16(r2)
 200c418:	10c00044 	addi	r3,r2,1
 200c41c:	e0bffe17 	ldw	r2,-8(fp)
 200c420:	10c00415 	stw	r3,16(r2)
 200c424:	e0bffe17 	ldw	r2,-8(fp)
 200c428:	10800417 	ldw	r2,16(r2)
 200c42c:	10c00fcc 	andi	r3,r2,63
 200c430:	e0bffe17 	ldw	r2,-8(fp)
 200c434:	10c00415 	stw	r3,16(r2)
 200c438:	e0bffe17 	ldw	r2,-8(fp)
 200c43c:	10800117 	ldw	r2,4(r2)
 200c440:	10c01014 	ori	r3,r2,64
 200c444:	e0bffe17 	ldw	r2,-8(fp)
 200c448:	10c00115 	stw	r3,4(r2)
 200c44c:	00000f06 	br	200c48c <altera_avalon_uart_txirq+0x100>
 200c450:	e0bffe17 	ldw	r2,-8(fp)
 200c454:	10800017 	ldw	r2,0(r2)
 200c458:	10800204 	addi	r2,r2,8
 200c45c:	10800037 	ldwio	r2,0(r2)
 200c460:	e0bfff15 	stw	r2,-4(fp)
 200c464:	e0bfff17 	ldw	r2,-4(fp)
 200c468:	1082000c 	andi	r2,r2,2048
 200c46c:	1004c03a 	cmpne	r2,r2,zero
 200c470:	1000061e 	bne	r2,zero,200c48c <altera_avalon_uart_txirq+0x100>
 200c474:	e0bffe17 	ldw	r2,-8(fp)
 200c478:	10c00117 	ldw	r3,4(r2)
 200c47c:	00bfefc4 	movi	r2,-65
 200c480:	1886703a 	and	r3,r3,r2
 200c484:	e0bffe17 	ldw	r2,-8(fp)
 200c488:	10c00115 	stw	r3,4(r2)
 200c48c:	e0bffe17 	ldw	r2,-8(fp)
 200c490:	10c00417 	ldw	r3,16(r2)
 200c494:	e0bffe17 	ldw	r2,-8(fp)
 200c498:	10800517 	ldw	r2,20(r2)
 200c49c:	1880061e 	bne	r3,r2,200c4b8 <altera_avalon_uart_txirq+0x12c>
 200c4a0:	e0bffe17 	ldw	r2,-8(fp)
 200c4a4:	10c00117 	ldw	r3,4(r2)
 200c4a8:	00beefc4 	movi	r2,-1089
 200c4ac:	1886703a 	and	r3,r3,r2
 200c4b0:	e0bffe17 	ldw	r2,-8(fp)
 200c4b4:	10c00115 	stw	r3,4(r2)
 200c4b8:	e0bffe17 	ldw	r2,-8(fp)
 200c4bc:	10800017 	ldw	r2,0(r2)
 200c4c0:	11000304 	addi	r4,r2,12
 200c4c4:	e0bffe17 	ldw	r2,-8(fp)
 200c4c8:	10800117 	ldw	r2,4(r2)
 200c4cc:	1007883a 	mov	r3,r2
 200c4d0:	2005883a 	mov	r2,r4
 200c4d4:	10c00035 	stwio	r3,0(r2)
 200c4d8:	e037883a 	mov	sp,fp
 200c4dc:	df000017 	ldw	fp,0(sp)
 200c4e0:	dec00104 	addi	sp,sp,4
 200c4e4:	f800283a 	ret

0200c4e8 <altera_avalon_uart_close>:
 200c4e8:	defffc04 	addi	sp,sp,-16
 200c4ec:	df000315 	stw	fp,12(sp)
 200c4f0:	df000304 	addi	fp,sp,12
 200c4f4:	e13ffd15 	stw	r4,-12(fp)
 200c4f8:	e17ffe15 	stw	r5,-8(fp)
 200c4fc:	00000706 	br	200c51c <altera_avalon_uart_close+0x34>
 200c500:	e0bffe17 	ldw	r2,-8(fp)
 200c504:	1090000c 	andi	r2,r2,16384
 200c508:	1005003a 	cmpeq	r2,r2,zero
 200c50c:	1000031e 	bne	r2,zero,200c51c <altera_avalon_uart_close+0x34>
 200c510:	00bffd44 	movi	r2,-11
 200c514:	e0bfff15 	stw	r2,-4(fp)
 200c518:	00000606 	br	200c534 <altera_avalon_uart_close+0x4c>
 200c51c:	e0bffd17 	ldw	r2,-12(fp)
 200c520:	10c00417 	ldw	r3,16(r2)
 200c524:	e0bffd17 	ldw	r2,-12(fp)
 200c528:	10800517 	ldw	r2,20(r2)
 200c52c:	18bff41e 	bne	r3,r2,200c500 <altera_avalon_uart_close+0x18>
 200c530:	e03fff15 	stw	zero,-4(fp)
 200c534:	e0bfff17 	ldw	r2,-4(fp)
 200c538:	e037883a 	mov	sp,fp
 200c53c:	df000017 	ldw	fp,0(sp)
 200c540:	dec00104 	addi	sp,sp,4
 200c544:	f800283a 	ret

0200c548 <altera_avalon_uart_read>:
 200c548:	defff004 	addi	sp,sp,-64
 200c54c:	dfc00f15 	stw	ra,60(sp)
 200c550:	df000e15 	stw	fp,56(sp)
 200c554:	df000e04 	addi	fp,sp,56
 200c558:	e13ffb15 	stw	r4,-20(fp)
 200c55c:	e17ffc15 	stw	r5,-16(fp)
 200c560:	e1bffd15 	stw	r6,-12(fp)
 200c564:	e1fffe15 	stw	r7,-8(fp)
 200c568:	e03ff705 	stb	zero,-36(fp)
 200c56c:	e03ff615 	stw	zero,-40(fp)
 200c570:	e0bffe17 	ldw	r2,-8(fp)
 200c574:	1090000c 	andi	r2,r2,16384
 200c578:	1005003a 	cmpeq	r2,r2,zero
 200c57c:	e0bff915 	stw	r2,-28(fp)
 200c580:	e0bffb17 	ldw	r2,-20(fp)
 200c584:	10800217 	ldw	r2,8(r2)
 200c588:	10800044 	addi	r2,r2,1
 200c58c:	10800fcc 	andi	r2,r2,63
 200c590:	e0bff815 	stw	r2,-32(fp)
 200c594:	00001906 	br	200c5fc <altera_avalon_uart_read+0xb4>
 200c598:	e0bff617 	ldw	r2,-40(fp)
 200c59c:	10800044 	addi	r2,r2,1
 200c5a0:	e0bff615 	stw	r2,-40(fp)
 200c5a4:	e0bffb17 	ldw	r2,-20(fp)
 200c5a8:	10c00217 	ldw	r3,8(r2)
 200c5ac:	e0bffb17 	ldw	r2,-20(fp)
 200c5b0:	1885883a 	add	r2,r3,r2
 200c5b4:	10800704 	addi	r2,r2,28
 200c5b8:	10800003 	ldbu	r2,0(r2)
 200c5bc:	1007883a 	mov	r3,r2
 200c5c0:	e0bffc17 	ldw	r2,-16(fp)
 200c5c4:	10c00005 	stb	r3,0(r2)
 200c5c8:	e0bffc17 	ldw	r2,-16(fp)
 200c5cc:	10800044 	addi	r2,r2,1
 200c5d0:	e0bffc15 	stw	r2,-16(fp)
 200c5d4:	e0bffb17 	ldw	r2,-20(fp)
 200c5d8:	10800217 	ldw	r2,8(r2)
 200c5dc:	10c00044 	addi	r3,r2,1
 200c5e0:	e0bffb17 	ldw	r2,-20(fp)
 200c5e4:	10c00215 	stw	r3,8(r2)
 200c5e8:	e0bffb17 	ldw	r2,-20(fp)
 200c5ec:	10800217 	ldw	r2,8(r2)
 200c5f0:	10c00fcc 	andi	r3,r2,63
 200c5f4:	e0bffb17 	ldw	r2,-20(fp)
 200c5f8:	10c00215 	stw	r3,8(r2)
 200c5fc:	e0fff617 	ldw	r3,-40(fp)
 200c600:	e0bffd17 	ldw	r2,-12(fp)
 200c604:	1880050e 	bge	r3,r2,200c61c <altera_avalon_uart_read+0xd4>
 200c608:	e0bffb17 	ldw	r2,-20(fp)
 200c60c:	10c00217 	ldw	r3,8(r2)
 200c610:	e0bffb17 	ldw	r2,-20(fp)
 200c614:	10800317 	ldw	r2,12(r2)
 200c618:	18bfdf1e 	bne	r3,r2,200c598 <altera_avalon_uart_read+0x50>
 200c61c:	e0bff617 	ldw	r2,-40(fp)
 200c620:	1004c03a 	cmpne	r2,r2,zero
 200c624:	1000271e 	bne	r2,zero,200c6c4 <altera_avalon_uart_read+0x17c>
 200c628:	e0bffb17 	ldw	r2,-20(fp)
 200c62c:	10c00217 	ldw	r3,8(r2)
 200c630:	e0bffb17 	ldw	r2,-20(fp)
 200c634:	10800317 	ldw	r2,12(r2)
 200c638:	1880221e 	bne	r3,r2,200c6c4 <altera_avalon_uart_read+0x17c>
 200c63c:	e0bff917 	ldw	r2,-28(fp)
 200c640:	1004c03a 	cmpne	r2,r2,zero
 200c644:	1000061e 	bne	r2,zero,200c660 <altera_avalon_uart_read+0x118>
 200c648:	200c7780 	call	200c778 <alt_get_errno>
 200c64c:	00c002c4 	movi	r3,11
 200c650:	10c00015 	stw	r3,0(r2)
 200c654:	00800044 	movi	r2,1
 200c658:	e0bff705 	stb	r2,-36(fp)
 200c65c:	00001f06 	br	200c6dc <altera_avalon_uart_read+0x194>
 200c660:	0005303a 	rdctl	r2,status
 200c664:	e0bff515 	stw	r2,-44(fp)
 200c668:	e0fff517 	ldw	r3,-44(fp)
 200c66c:	00bfff84 	movi	r2,-2
 200c670:	1884703a 	and	r2,r3,r2
 200c674:	1001703a 	wrctl	status,r2
 200c678:	e0bff517 	ldw	r2,-44(fp)
 200c67c:	e0bffa15 	stw	r2,-24(fp)
 200c680:	e0bffb17 	ldw	r2,-20(fp)
 200c684:	10800117 	ldw	r2,4(r2)
 200c688:	10c02014 	ori	r3,r2,128
 200c68c:	e0bffb17 	ldw	r2,-20(fp)
 200c690:	10c00115 	stw	r3,4(r2)
 200c694:	e0bffb17 	ldw	r2,-20(fp)
 200c698:	10800017 	ldw	r2,0(r2)
 200c69c:	11000304 	addi	r4,r2,12
 200c6a0:	e0bffb17 	ldw	r2,-20(fp)
 200c6a4:	10800117 	ldw	r2,4(r2)
 200c6a8:	1007883a 	mov	r3,r2
 200c6ac:	2005883a 	mov	r2,r4
 200c6b0:	10c00035 	stwio	r3,0(r2)
 200c6b4:	e0bffa17 	ldw	r2,-24(fp)
 200c6b8:	e0bff415 	stw	r2,-48(fp)
 200c6bc:	e0bff417 	ldw	r2,-48(fp)
 200c6c0:	1001703a 	wrctl	status,r2
 200c6c4:	e0bff617 	ldw	r2,-40(fp)
 200c6c8:	1004c03a 	cmpne	r2,r2,zero
 200c6cc:	1000031e 	bne	r2,zero,200c6dc <altera_avalon_uart_read+0x194>
 200c6d0:	e0bffd17 	ldw	r2,-12(fp)
 200c6d4:	1004c03a 	cmpne	r2,r2,zero
 200c6d8:	103fc81e 	bne	r2,zero,200c5fc <altera_avalon_uart_read+0xb4>
 200c6dc:	0005303a 	rdctl	r2,status
 200c6e0:	e0bff315 	stw	r2,-52(fp)
 200c6e4:	e0fff317 	ldw	r3,-52(fp)
 200c6e8:	00bfff84 	movi	r2,-2
 200c6ec:	1884703a 	and	r2,r3,r2
 200c6f0:	1001703a 	wrctl	status,r2
 200c6f4:	e0bff317 	ldw	r2,-52(fp)
 200c6f8:	e0bffa15 	stw	r2,-24(fp)
 200c6fc:	e0bffb17 	ldw	r2,-20(fp)
 200c700:	10800117 	ldw	r2,4(r2)
 200c704:	10c02014 	ori	r3,r2,128
 200c708:	e0bffb17 	ldw	r2,-20(fp)
 200c70c:	10c00115 	stw	r3,4(r2)
 200c710:	e0bffb17 	ldw	r2,-20(fp)
 200c714:	10800017 	ldw	r2,0(r2)
 200c718:	11000304 	addi	r4,r2,12
 200c71c:	e0bffb17 	ldw	r2,-20(fp)
 200c720:	10800117 	ldw	r2,4(r2)
 200c724:	1007883a 	mov	r3,r2
 200c728:	2005883a 	mov	r2,r4
 200c72c:	10c00035 	stwio	r3,0(r2)
 200c730:	e0bffa17 	ldw	r2,-24(fp)
 200c734:	e0bff215 	stw	r2,-56(fp)
 200c738:	e0bff217 	ldw	r2,-56(fp)
 200c73c:	1001703a 	wrctl	status,r2
 200c740:	e0bff703 	ldbu	r2,-36(fp)
 200c744:	1005003a 	cmpeq	r2,r2,zero
 200c748:	1000031e 	bne	r2,zero,200c758 <altera_avalon_uart_read+0x210>
 200c74c:	00bffd04 	movi	r2,-12
 200c750:	e0bfff15 	stw	r2,-4(fp)
 200c754:	00000206 	br	200c760 <altera_avalon_uart_read+0x218>
 200c758:	e0bff617 	ldw	r2,-40(fp)
 200c75c:	e0bfff15 	stw	r2,-4(fp)
 200c760:	e0bfff17 	ldw	r2,-4(fp)
 200c764:	e037883a 	mov	sp,fp
 200c768:	dfc00117 	ldw	ra,4(sp)
 200c76c:	df000017 	ldw	fp,0(sp)
 200c770:	dec00204 	addi	sp,sp,8
 200c774:	f800283a 	ret

0200c778 <alt_get_errno>:
 200c778:	defffd04 	addi	sp,sp,-12
 200c77c:	dfc00215 	stw	ra,8(sp)
 200c780:	df000115 	stw	fp,4(sp)
 200c784:	df000104 	addi	fp,sp,4
 200c788:	00808074 	movhi	r2,513
 200c78c:	1080fa04 	addi	r2,r2,1000
 200c790:	10800017 	ldw	r2,0(r2)
 200c794:	1005003a 	cmpeq	r2,r2,zero
 200c798:	1000061e 	bne	r2,zero,200c7b4 <alt_get_errno+0x3c>
 200c79c:	00808074 	movhi	r2,513
 200c7a0:	1080fa04 	addi	r2,r2,1000
 200c7a4:	10800017 	ldw	r2,0(r2)
 200c7a8:	103ee83a 	callr	r2
 200c7ac:	e0bfff15 	stw	r2,-4(fp)
 200c7b0:	00000306 	br	200c7c0 <alt_get_errno+0x48>
 200c7b4:	00808074 	movhi	r2,513
 200c7b8:	10819004 	addi	r2,r2,1600
 200c7bc:	e0bfff15 	stw	r2,-4(fp)
 200c7c0:	e0bfff17 	ldw	r2,-4(fp)
 200c7c4:	e037883a 	mov	sp,fp
 200c7c8:	dfc00117 	ldw	ra,4(sp)
 200c7cc:	df000017 	ldw	fp,0(sp)
 200c7d0:	dec00204 	addi	sp,sp,8
 200c7d4:	f800283a 	ret

0200c7d8 <altera_avalon_uart_write>:
 200c7d8:	defff204 	addi	sp,sp,-56
 200c7dc:	dfc00d15 	stw	ra,52(sp)
 200c7e0:	df000c15 	stw	fp,48(sp)
 200c7e4:	df000c04 	addi	fp,sp,48
 200c7e8:	e13ffc15 	stw	r4,-16(fp)
 200c7ec:	e17ffd15 	stw	r5,-12(fp)
 200c7f0:	e1bffe15 	stw	r6,-8(fp)
 200c7f4:	e1ffff15 	stw	r7,-4(fp)
 200c7f8:	e0bffe17 	ldw	r2,-8(fp)
 200c7fc:	e0bff815 	stw	r2,-32(fp)
 200c800:	e0bfff17 	ldw	r2,-4(fp)
 200c804:	1090000c 	andi	r2,r2,16384
 200c808:	e0bffa15 	stw	r2,-24(fp)
 200c80c:	00004006 	br	200c910 <altera_avalon_uart_write+0x138>
 200c810:	e0bffc17 	ldw	r2,-16(fp)
 200c814:	10800517 	ldw	r2,20(r2)
 200c818:	10800044 	addi	r2,r2,1
 200c81c:	10800fcc 	andi	r2,r2,63
 200c820:	e0bff915 	stw	r2,-28(fp)
 200c824:	e0bffc17 	ldw	r2,-16(fp)
 200c828:	10c00417 	ldw	r3,16(r2)
 200c82c:	e0bff917 	ldw	r2,-28(fp)
 200c830:	1880251e 	bne	r3,r2,200c8c8 <altera_avalon_uart_write+0xf0>
 200c834:	e0bffa17 	ldw	r2,-24(fp)
 200c838:	1005003a 	cmpeq	r2,r2,zero
 200c83c:	1000051e 	bne	r2,zero,200c854 <altera_avalon_uart_write+0x7c>
 200c840:	200c9a00 	call	200c9a0 <alt_get_errno>
 200c844:	1007883a 	mov	r3,r2
 200c848:	008002c4 	movi	r2,11
 200c84c:	18800015 	stw	r2,0(r3)
 200c850:	00003206 	br	200c91c <altera_avalon_uart_write+0x144>
 200c854:	0005303a 	rdctl	r2,status
 200c858:	e0bff715 	stw	r2,-36(fp)
 200c85c:	e0fff717 	ldw	r3,-36(fp)
 200c860:	00bfff84 	movi	r2,-2
 200c864:	1884703a 	and	r2,r3,r2
 200c868:	1001703a 	wrctl	status,r2
 200c86c:	e0bff717 	ldw	r2,-36(fp)
 200c870:	e0bffb15 	stw	r2,-20(fp)
 200c874:	e0bffc17 	ldw	r2,-16(fp)
 200c878:	10800117 	ldw	r2,4(r2)
 200c87c:	10c11014 	ori	r3,r2,1088
 200c880:	e0bffc17 	ldw	r2,-16(fp)
 200c884:	10c00115 	stw	r3,4(r2)
 200c888:	e0bffc17 	ldw	r2,-16(fp)
 200c88c:	10800017 	ldw	r2,0(r2)
 200c890:	11000304 	addi	r4,r2,12
 200c894:	e0bffc17 	ldw	r2,-16(fp)
 200c898:	10800117 	ldw	r2,4(r2)
 200c89c:	1007883a 	mov	r3,r2
 200c8a0:	2005883a 	mov	r2,r4
 200c8a4:	10c00035 	stwio	r3,0(r2)
 200c8a8:	e0bffb17 	ldw	r2,-20(fp)
 200c8ac:	e0bff615 	stw	r2,-40(fp)
 200c8b0:	e0bff617 	ldw	r2,-40(fp)
 200c8b4:	1001703a 	wrctl	status,r2
 200c8b8:	e0bffc17 	ldw	r2,-16(fp)
 200c8bc:	10c00417 	ldw	r3,16(r2)
 200c8c0:	e0bff917 	ldw	r2,-28(fp)
 200c8c4:	18bffc26 	beq	r3,r2,200c8b8 <altera_avalon_uart_write+0xe0>
 200c8c8:	e0bff817 	ldw	r2,-32(fp)
 200c8cc:	10bfffc4 	addi	r2,r2,-1
 200c8d0:	e0bff815 	stw	r2,-32(fp)
 200c8d4:	e0bffc17 	ldw	r2,-16(fp)
 200c8d8:	10c00517 	ldw	r3,20(r2)
 200c8dc:	e0bffd17 	ldw	r2,-12(fp)
 200c8e0:	10800003 	ldbu	r2,0(r2)
 200c8e4:	1009883a 	mov	r4,r2
 200c8e8:	e0bffc17 	ldw	r2,-16(fp)
 200c8ec:	1885883a 	add	r2,r3,r2
 200c8f0:	10801704 	addi	r2,r2,92
 200c8f4:	11000005 	stb	r4,0(r2)
 200c8f8:	e0bffd17 	ldw	r2,-12(fp)
 200c8fc:	10800044 	addi	r2,r2,1
 200c900:	e0bffd15 	stw	r2,-12(fp)
 200c904:	e0fffc17 	ldw	r3,-16(fp)
 200c908:	e0bff917 	ldw	r2,-28(fp)
 200c90c:	18800515 	stw	r2,20(r3)
 200c910:	e0bff817 	ldw	r2,-32(fp)
 200c914:	1004c03a 	cmpne	r2,r2,zero
 200c918:	103fbd1e 	bne	r2,zero,200c810 <altera_avalon_uart_write+0x38>
 200c91c:	0005303a 	rdctl	r2,status
 200c920:	e0bff515 	stw	r2,-44(fp)
 200c924:	e0fff517 	ldw	r3,-44(fp)
 200c928:	00bfff84 	movi	r2,-2
 200c92c:	1884703a 	and	r2,r3,r2
 200c930:	1001703a 	wrctl	status,r2
 200c934:	e0bff517 	ldw	r2,-44(fp)
 200c938:	e0bffb15 	stw	r2,-20(fp)
 200c93c:	e0bffc17 	ldw	r2,-16(fp)
 200c940:	10800117 	ldw	r2,4(r2)
 200c944:	10c11014 	ori	r3,r2,1088
 200c948:	e0bffc17 	ldw	r2,-16(fp)
 200c94c:	10c00115 	stw	r3,4(r2)
 200c950:	e0bffc17 	ldw	r2,-16(fp)
 200c954:	10800017 	ldw	r2,0(r2)
 200c958:	11000304 	addi	r4,r2,12
 200c95c:	e0bffc17 	ldw	r2,-16(fp)
 200c960:	10800117 	ldw	r2,4(r2)
 200c964:	1007883a 	mov	r3,r2
 200c968:	2005883a 	mov	r2,r4
 200c96c:	10c00035 	stwio	r3,0(r2)
 200c970:	e0bffb17 	ldw	r2,-20(fp)
 200c974:	e0bff415 	stw	r2,-48(fp)
 200c978:	e0bff417 	ldw	r2,-48(fp)
 200c97c:	1001703a 	wrctl	status,r2
 200c980:	e0fffe17 	ldw	r3,-8(fp)
 200c984:	e0bff817 	ldw	r2,-32(fp)
 200c988:	1885c83a 	sub	r2,r3,r2
 200c98c:	e037883a 	mov	sp,fp
 200c990:	dfc00117 	ldw	ra,4(sp)
 200c994:	df000017 	ldw	fp,0(sp)
 200c998:	dec00204 	addi	sp,sp,8
 200c99c:	f800283a 	ret

0200c9a0 <alt_get_errno>:
 200c9a0:	defffd04 	addi	sp,sp,-12
 200c9a4:	dfc00215 	stw	ra,8(sp)
 200c9a8:	df000115 	stw	fp,4(sp)
 200c9ac:	df000104 	addi	fp,sp,4
 200c9b0:	00808074 	movhi	r2,513
 200c9b4:	1080fa04 	addi	r2,r2,1000
 200c9b8:	10800017 	ldw	r2,0(r2)
 200c9bc:	1005003a 	cmpeq	r2,r2,zero
 200c9c0:	1000061e 	bne	r2,zero,200c9dc <alt_get_errno+0x3c>
 200c9c4:	00808074 	movhi	r2,513
 200c9c8:	1080fa04 	addi	r2,r2,1000
 200c9cc:	10800017 	ldw	r2,0(r2)
 200c9d0:	103ee83a 	callr	r2
 200c9d4:	e0bfff15 	stw	r2,-4(fp)
 200c9d8:	00000306 	br	200c9e8 <alt_get_errno+0x48>
 200c9dc:	00808074 	movhi	r2,513
 200c9e0:	10819004 	addi	r2,r2,1600
 200c9e4:	e0bfff15 	stw	r2,-4(fp)
 200c9e8:	e0bfff17 	ldw	r2,-4(fp)
 200c9ec:	e037883a 	mov	sp,fp
 200c9f0:	dfc00117 	ldw	ra,4(sp)
 200c9f4:	df000017 	ldw	fp,0(sp)
 200c9f8:	dec00204 	addi	sp,sp,8
 200c9fc:	f800283a 	ret

0200ca00 <epcs_read_status_register>:
 200ca00:	defff904 	addi	sp,sp,-28
 200ca04:	dfc00615 	stw	ra,24(sp)
 200ca08:	df000515 	stw	fp,20(sp)
 200ca0c:	df000504 	addi	fp,sp,20
 200ca10:	e13fff15 	stw	r4,-4(fp)
 200ca14:	00800144 	movi	r2,5
 200ca18:	e0bffe05 	stb	r2,-8(fp)
 200ca1c:	00800044 	movi	r2,1
 200ca20:	d8800015 	stw	r2,0(sp)
 200ca24:	e0bffe44 	addi	r2,fp,-7
 200ca28:	d8800115 	stw	r2,4(sp)
 200ca2c:	d8000215 	stw	zero,8(sp)
 200ca30:	e13fff17 	ldw	r4,-4(fp)
 200ca34:	000b883a 	mov	r5,zero
 200ca38:	01800044 	movi	r6,1
 200ca3c:	e1fffe04 	addi	r7,fp,-8
 200ca40:	200dcd80 	call	200dcd8 <alt_avalon_spi_command>
 200ca44:	e0bffe43 	ldbu	r2,-7(fp)
 200ca48:	10803fcc 	andi	r2,r2,255
 200ca4c:	e037883a 	mov	sp,fp
 200ca50:	dfc00117 	ldw	ra,4(sp)
 200ca54:	df000017 	ldw	fp,0(sp)
 200ca58:	dec00204 	addi	sp,sp,8
 200ca5c:	f800283a 	ret

0200ca60 <epcs_sector_erase>:
 200ca60:	defff804 	addi	sp,sp,-32
 200ca64:	dfc00715 	stw	ra,28(sp)
 200ca68:	df000615 	stw	fp,24(sp)
 200ca6c:	df000604 	addi	fp,sp,24
 200ca70:	e13ffe15 	stw	r4,-8(fp)
 200ca74:	e17fff15 	stw	r5,-4(fp)
 200ca78:	00bff604 	movi	r2,-40
 200ca7c:	e0bffd05 	stb	r2,-12(fp)
 200ca80:	e0bfff17 	ldw	r2,-4(fp)
 200ca84:	1004d43a 	srli	r2,r2,16
 200ca88:	e0bffd45 	stb	r2,-11(fp)
 200ca8c:	e0bfff17 	ldw	r2,-4(fp)
 200ca90:	1004d23a 	srli	r2,r2,8
 200ca94:	e0bffd85 	stb	r2,-10(fp)
 200ca98:	e0bfff17 	ldw	r2,-4(fp)
 200ca9c:	e0bffdc5 	stb	r2,-9(fp)
 200caa0:	d8000015 	stw	zero,0(sp)
 200caa4:	d8000115 	stw	zero,4(sp)
 200caa8:	d8000215 	stw	zero,8(sp)
 200caac:	e13ffe17 	ldw	r4,-8(fp)
 200cab0:	000b883a 	mov	r5,zero
 200cab4:	01800104 	movi	r6,4
 200cab8:	e1fffd04 	addi	r7,fp,-12
 200cabc:	200dcd80 	call	200dcd8 <alt_avalon_spi_command>
 200cac0:	e13ffe17 	ldw	r4,-8(fp)
 200cac4:	200cadc0 	call	200cadc <epcs_await_wip_released>
 200cac8:	e037883a 	mov	sp,fp
 200cacc:	dfc00117 	ldw	ra,4(sp)
 200cad0:	df000017 	ldw	fp,0(sp)
 200cad4:	dec00204 	addi	sp,sp,8
 200cad8:	f800283a 	ret

0200cadc <epcs_await_wip_released>:
 200cadc:	defffd04 	addi	sp,sp,-12
 200cae0:	dfc00215 	stw	ra,8(sp)
 200cae4:	df000115 	stw	fp,4(sp)
 200cae8:	df000104 	addi	fp,sp,4
 200caec:	e13fff15 	stw	r4,-4(fp)
 200caf0:	e13fff17 	ldw	r4,-4(fp)
 200caf4:	200cb140 	call	200cb14 <epcs_test_wip>
 200caf8:	1004c03a 	cmpne	r2,r2,zero
 200cafc:	103ffc1e 	bne	r2,zero,200caf0 <epcs_await_wip_released+0x14>
 200cb00:	e037883a 	mov	sp,fp
 200cb04:	dfc00117 	ldw	ra,4(sp)
 200cb08:	df000017 	ldw	fp,0(sp)
 200cb0c:	dec00204 	addi	sp,sp,8
 200cb10:	f800283a 	ret

0200cb14 <epcs_test_wip>:
 200cb14:	defffd04 	addi	sp,sp,-12
 200cb18:	dfc00215 	stw	ra,8(sp)
 200cb1c:	df000115 	stw	fp,4(sp)
 200cb20:	df000104 	addi	fp,sp,4
 200cb24:	e13fff15 	stw	r4,-4(fp)
 200cb28:	e13fff17 	ldw	r4,-4(fp)
 200cb2c:	200ca000 	call	200ca00 <epcs_read_status_register>
 200cb30:	10803fcc 	andi	r2,r2,255
 200cb34:	1080004c 	andi	r2,r2,1
 200cb38:	e037883a 	mov	sp,fp
 200cb3c:	dfc00117 	ldw	ra,4(sp)
 200cb40:	df000017 	ldw	fp,0(sp)
 200cb44:	dec00204 	addi	sp,sp,8
 200cb48:	f800283a 	ret

0200cb4c <epcs_read_buffer>:
 200cb4c:	defff604 	addi	sp,sp,-40
 200cb50:	dfc00915 	stw	ra,36(sp)
 200cb54:	df000815 	stw	fp,32(sp)
 200cb58:	df000804 	addi	fp,sp,32
 200cb5c:	e13ffc15 	stw	r4,-16(fp)
 200cb60:	e17ffd15 	stw	r5,-12(fp)
 200cb64:	e1bffe15 	stw	r6,-8(fp)
 200cb68:	e1ffff15 	stw	r7,-4(fp)
 200cb6c:	008000c4 	movi	r2,3
 200cb70:	e0bffb05 	stb	r2,-20(fp)
 200cb74:	e0bffd17 	ldw	r2,-12(fp)
 200cb78:	1005d43a 	srai	r2,r2,16
 200cb7c:	1007883a 	mov	r3,r2
 200cb80:	00bfffc4 	movi	r2,-1
 200cb84:	1884703a 	and	r2,r3,r2
 200cb88:	e0bffb45 	stb	r2,-19(fp)
 200cb8c:	e0bffd17 	ldw	r2,-12(fp)
 200cb90:	1005d23a 	srai	r2,r2,8
 200cb94:	1007883a 	mov	r3,r2
 200cb98:	00bfffc4 	movi	r2,-1
 200cb9c:	1884703a 	and	r2,r3,r2
 200cba0:	e0bffb85 	stb	r2,-18(fp)
 200cba4:	e0bffd17 	ldw	r2,-12(fp)
 200cba8:	1007883a 	mov	r3,r2
 200cbac:	00bfffc4 	movi	r2,-1
 200cbb0:	1884703a 	and	r2,r3,r2
 200cbb4:	e0bffbc5 	stb	r2,-17(fp)
 200cbb8:	e13ffc17 	ldw	r4,-16(fp)
 200cbbc:	200cadc0 	call	200cadc <epcs_await_wip_released>
 200cbc0:	e0bfff17 	ldw	r2,-4(fp)
 200cbc4:	d8800015 	stw	r2,0(sp)
 200cbc8:	e0bffe17 	ldw	r2,-8(fp)
 200cbcc:	d8800115 	stw	r2,4(sp)
 200cbd0:	d8000215 	stw	zero,8(sp)
 200cbd4:	e13ffc17 	ldw	r4,-16(fp)
 200cbd8:	000b883a 	mov	r5,zero
 200cbdc:	01800104 	movi	r6,4
 200cbe0:	e1fffb04 	addi	r7,fp,-20
 200cbe4:	200dcd80 	call	200dcd8 <alt_avalon_spi_command>
 200cbe8:	e0bfff17 	ldw	r2,-4(fp)
 200cbec:	e037883a 	mov	sp,fp
 200cbf0:	dfc00117 	ldw	ra,4(sp)
 200cbf4:	df000017 	ldw	fp,0(sp)
 200cbf8:	dec00204 	addi	sp,sp,8
 200cbfc:	f800283a 	ret

0200cc00 <epcs_write_enable>:
 200cc00:	defff904 	addi	sp,sp,-28
 200cc04:	dfc00615 	stw	ra,24(sp)
 200cc08:	df000515 	stw	fp,20(sp)
 200cc0c:	df000504 	addi	fp,sp,20
 200cc10:	e13fff15 	stw	r4,-4(fp)
 200cc14:	00800184 	movi	r2,6
 200cc18:	e0bffe05 	stb	r2,-8(fp)
 200cc1c:	d8000015 	stw	zero,0(sp)
 200cc20:	d8000115 	stw	zero,4(sp)
 200cc24:	d8000215 	stw	zero,8(sp)
 200cc28:	e13fff17 	ldw	r4,-4(fp)
 200cc2c:	000b883a 	mov	r5,zero
 200cc30:	01800044 	movi	r6,1
 200cc34:	e1fffe04 	addi	r7,fp,-8
 200cc38:	200dcd80 	call	200dcd8 <alt_avalon_spi_command>
 200cc3c:	e037883a 	mov	sp,fp
 200cc40:	dfc00117 	ldw	ra,4(sp)
 200cc44:	df000017 	ldw	fp,0(sp)
 200cc48:	dec00204 	addi	sp,sp,8
 200cc4c:	f800283a 	ret

0200cc50 <epcs_write_status_register>:
 200cc50:	defff804 	addi	sp,sp,-32
 200cc54:	dfc00715 	stw	ra,28(sp)
 200cc58:	df000615 	stw	fp,24(sp)
 200cc5c:	df000604 	addi	fp,sp,24
 200cc60:	e13ffe15 	stw	r4,-8(fp)
 200cc64:	e17fff05 	stb	r5,-4(fp)
 200cc68:	00800044 	movi	r2,1
 200cc6c:	e0bffd05 	stb	r2,-12(fp)
 200cc70:	e0bfff03 	ldbu	r2,-4(fp)
 200cc74:	e0bffd45 	stb	r2,-11(fp)
 200cc78:	d8000015 	stw	zero,0(sp)
 200cc7c:	d8000115 	stw	zero,4(sp)
 200cc80:	d8000215 	stw	zero,8(sp)
 200cc84:	e13ffe17 	ldw	r4,-8(fp)
 200cc88:	000b883a 	mov	r5,zero
 200cc8c:	01800084 	movi	r6,2
 200cc90:	e1fffd04 	addi	r7,fp,-12
 200cc94:	200dcd80 	call	200dcd8 <alt_avalon_spi_command>
 200cc98:	e13ffe17 	ldw	r4,-8(fp)
 200cc9c:	200cadc0 	call	200cadc <epcs_await_wip_released>
 200cca0:	e037883a 	mov	sp,fp
 200cca4:	dfc00117 	ldw	ra,4(sp)
 200cca8:	df000017 	ldw	fp,0(sp)
 200ccac:	dec00204 	addi	sp,sp,8
 200ccb0:	f800283a 	ret

0200ccb4 <epcs_write_buffer>:
 200ccb4:	defff604 	addi	sp,sp,-40
 200ccb8:	dfc00915 	stw	ra,36(sp)
 200ccbc:	df000815 	stw	fp,32(sp)
 200ccc0:	df000804 	addi	fp,sp,32
 200ccc4:	e13ffc15 	stw	r4,-16(fp)
 200ccc8:	e17ffd15 	stw	r5,-12(fp)
 200cccc:	e1bffe15 	stw	r6,-8(fp)
 200ccd0:	e1ffff15 	stw	r7,-4(fp)
 200ccd4:	00800084 	movi	r2,2
 200ccd8:	e0bffb05 	stb	r2,-20(fp)
 200ccdc:	e0bffd17 	ldw	r2,-12(fp)
 200cce0:	1005d43a 	srai	r2,r2,16
 200cce4:	1007883a 	mov	r3,r2
 200cce8:	00bfffc4 	movi	r2,-1
 200ccec:	1884703a 	and	r2,r3,r2
 200ccf0:	e0bffb45 	stb	r2,-19(fp)
 200ccf4:	e0bffd17 	ldw	r2,-12(fp)
 200ccf8:	1005d23a 	srai	r2,r2,8
 200ccfc:	1007883a 	mov	r3,r2
 200cd00:	00bfffc4 	movi	r2,-1
 200cd04:	1884703a 	and	r2,r3,r2
 200cd08:	e0bffb85 	stb	r2,-18(fp)
 200cd0c:	e0bffd17 	ldw	r2,-12(fp)
 200cd10:	1007883a 	mov	r3,r2
 200cd14:	00bfffc4 	movi	r2,-1
 200cd18:	1884703a 	and	r2,r3,r2
 200cd1c:	e0bffbc5 	stb	r2,-17(fp)
 200cd20:	e13ffc17 	ldw	r4,-16(fp)
 200cd24:	200cc000 	call	200cc00 <epcs_write_enable>
 200cd28:	d8000015 	stw	zero,0(sp)
 200cd2c:	d8000115 	stw	zero,4(sp)
 200cd30:	00800044 	movi	r2,1
 200cd34:	d8800215 	stw	r2,8(sp)
 200cd38:	e13ffc17 	ldw	r4,-16(fp)
 200cd3c:	000b883a 	mov	r5,zero
 200cd40:	01800104 	movi	r6,4
 200cd44:	e1fffb04 	addi	r7,fp,-20
 200cd48:	200dcd80 	call	200dcd8 <alt_avalon_spi_command>
 200cd4c:	e1bfff17 	ldw	r6,-4(fp)
 200cd50:	d8000015 	stw	zero,0(sp)
 200cd54:	d8000115 	stw	zero,4(sp)
 200cd58:	d8000215 	stw	zero,8(sp)
 200cd5c:	e13ffc17 	ldw	r4,-16(fp)
 200cd60:	000b883a 	mov	r5,zero
 200cd64:	e1fffe17 	ldw	r7,-8(fp)
 200cd68:	200dcd80 	call	200dcd8 <alt_avalon_spi_command>
 200cd6c:	e13ffc17 	ldw	r4,-16(fp)
 200cd70:	200cadc0 	call	200cadc <epcs_await_wip_released>
 200cd74:	e0bfff17 	ldw	r2,-4(fp)
 200cd78:	e037883a 	mov	sp,fp
 200cd7c:	dfc00117 	ldw	ra,4(sp)
 200cd80:	df000017 	ldw	fp,0(sp)
 200cd84:	dec00204 	addi	sp,sp,8
 200cd88:	f800283a 	ret

0200cd8c <epcs_read_electronic_signature>:
 200cd8c:	defff804 	addi	sp,sp,-32
 200cd90:	dfc00715 	stw	ra,28(sp)
 200cd94:	df000615 	stw	fp,24(sp)
 200cd98:	df000604 	addi	fp,sp,24
 200cd9c:	e13fff15 	stw	r4,-4(fp)
 200cda0:	00bfeac4 	movi	r2,-85
 200cda4:	e0bffd05 	stb	r2,-12(fp)
 200cda8:	e03ffd45 	stb	zero,-11(fp)
 200cdac:	e03ffd85 	stb	zero,-10(fp)
 200cdb0:	e03ffdc5 	stb	zero,-9(fp)
 200cdb4:	00800044 	movi	r2,1
 200cdb8:	d8800015 	stw	r2,0(sp)
 200cdbc:	e0bffe04 	addi	r2,fp,-8
 200cdc0:	d8800115 	stw	r2,4(sp)
 200cdc4:	d8000215 	stw	zero,8(sp)
 200cdc8:	e13fff17 	ldw	r4,-4(fp)
 200cdcc:	000b883a 	mov	r5,zero
 200cdd0:	01800104 	movi	r6,4
 200cdd4:	e1fffd04 	addi	r7,fp,-12
 200cdd8:	200dcd80 	call	200dcd8 <alt_avalon_spi_command>
 200cddc:	e0bffe03 	ldbu	r2,-8(fp)
 200cde0:	10803fcc 	andi	r2,r2,255
 200cde4:	e037883a 	mov	sp,fp
 200cde8:	dfc00117 	ldw	ra,4(sp)
 200cdec:	df000017 	ldw	fp,0(sp)
 200cdf0:	dec00204 	addi	sp,sp,8
 200cdf4:	f800283a 	ret

0200cdf8 <epcs_read_device_id>:
 200cdf8:	defff904 	addi	sp,sp,-28
 200cdfc:	dfc00615 	stw	ra,24(sp)
 200ce00:	df000515 	stw	fp,20(sp)
 200ce04:	df000504 	addi	fp,sp,20
 200ce08:	e13fff15 	stw	r4,-4(fp)
 200ce0c:	00bfe7c4 	movi	r2,-97
 200ce10:	e0bffe05 	stb	r2,-8(fp)
 200ce14:	e03ffe45 	stb	zero,-7(fp)
 200ce18:	e03ffe85 	stb	zero,-6(fp)
 200ce1c:	00800044 	movi	r2,1
 200ce20:	d8800015 	stw	r2,0(sp)
 200ce24:	e0bffec4 	addi	r2,fp,-5
 200ce28:	d8800115 	stw	r2,4(sp)
 200ce2c:	d8000215 	stw	zero,8(sp)
 200ce30:	e13fff17 	ldw	r4,-4(fp)
 200ce34:	000b883a 	mov	r5,zero
 200ce38:	018000c4 	movi	r6,3
 200ce3c:	e1fffe04 	addi	r7,fp,-8
 200ce40:	200dcd80 	call	200dcd8 <alt_avalon_spi_command>
 200ce44:	e0bffec3 	ldbu	r2,-5(fp)
 200ce48:	10803fcc 	andi	r2,r2,255
 200ce4c:	e037883a 	mov	sp,fp
 200ce50:	dfc00117 	ldw	ra,4(sp)
 200ce54:	df000017 	ldw	fp,0(sp)
 200ce58:	dec00204 	addi	sp,sp,8
 200ce5c:	f800283a 	ret

0200ce60 <alt_alarm_start>:
 200ce60:	defff404 	addi	sp,sp,-48
 200ce64:	df000b15 	stw	fp,44(sp)
 200ce68:	df000b04 	addi	fp,sp,44
 200ce6c:	e13ffb15 	stw	r4,-20(fp)
 200ce70:	e17ffc15 	stw	r5,-16(fp)
 200ce74:	e1bffd15 	stw	r6,-12(fp)
 200ce78:	e1fffe15 	stw	r7,-8(fp)
 200ce7c:	e03ff915 	stw	zero,-28(fp)
 200ce80:	00808074 	movhi	r2,513
 200ce84:	10818e04 	addi	r2,r2,1592
 200ce88:	10800017 	ldw	r2,0(r2)
 200ce8c:	1005003a 	cmpeq	r2,r2,zero
 200ce90:	1000411e 	bne	r2,zero,200cf98 <alt_alarm_start+0x138>
 200ce94:	e0bffb17 	ldw	r2,-20(fp)
 200ce98:	1005003a 	cmpeq	r2,r2,zero
 200ce9c:	10003b1e 	bne	r2,zero,200cf8c <alt_alarm_start+0x12c>
 200cea0:	e0fffb17 	ldw	r3,-20(fp)
 200cea4:	e0bffd17 	ldw	r2,-12(fp)
 200cea8:	18800315 	stw	r2,12(r3)
 200ceac:	e0fffb17 	ldw	r3,-20(fp)
 200ceb0:	e0bffe17 	ldw	r2,-8(fp)
 200ceb4:	18800515 	stw	r2,20(r3)
 200ceb8:	0005303a 	rdctl	r2,status
 200cebc:	e0bff815 	stw	r2,-32(fp)
 200cec0:	e0fff817 	ldw	r3,-32(fp)
 200cec4:	00bfff84 	movi	r2,-2
 200cec8:	1884703a 	and	r2,r3,r2
 200cecc:	1001703a 	wrctl	status,r2
 200ced0:	e0bff817 	ldw	r2,-32(fp)
 200ced4:	e0bffa15 	stw	r2,-24(fp)
 200ced8:	00808074 	movhi	r2,513
 200cedc:	10818f04 	addi	r2,r2,1596
 200cee0:	10800017 	ldw	r2,0(r2)
 200cee4:	e0bff915 	stw	r2,-28(fp)
 200cee8:	e0fffc17 	ldw	r3,-16(fp)
 200ceec:	e0bff917 	ldw	r2,-28(fp)
 200cef0:	1885883a 	add	r2,r3,r2
 200cef4:	10c00044 	addi	r3,r2,1
 200cef8:	e0bffb17 	ldw	r2,-20(fp)
 200cefc:	10c00215 	stw	r3,8(r2)
 200cf00:	e0bffb17 	ldw	r2,-20(fp)
 200cf04:	10c00217 	ldw	r3,8(r2)
 200cf08:	e0bff917 	ldw	r2,-28(fp)
 200cf0c:	1880042e 	bgeu	r3,r2,200cf20 <alt_alarm_start+0xc0>
 200cf10:	e0fffb17 	ldw	r3,-20(fp)
 200cf14:	00800044 	movi	r2,1
 200cf18:	18800405 	stb	r2,16(r3)
 200cf1c:	00000206 	br	200cf28 <alt_alarm_start+0xc8>
 200cf20:	e0bffb17 	ldw	r2,-20(fp)
 200cf24:	10000405 	stb	zero,16(r2)
 200cf28:	e0fffb17 	ldw	r3,-20(fp)
 200cf2c:	00808074 	movhi	r2,513
 200cf30:	1080fd04 	addi	r2,r2,1012
 200cf34:	e0bff615 	stw	r2,-40(fp)
 200cf38:	e0fff715 	stw	r3,-36(fp)
 200cf3c:	e0fff717 	ldw	r3,-36(fp)
 200cf40:	e0bff617 	ldw	r2,-40(fp)
 200cf44:	18800115 	stw	r2,4(r3)
 200cf48:	e0bff617 	ldw	r2,-40(fp)
 200cf4c:	10c00017 	ldw	r3,0(r2)
 200cf50:	e0bff717 	ldw	r2,-36(fp)
 200cf54:	10c00015 	stw	r3,0(r2)
 200cf58:	e0bff617 	ldw	r2,-40(fp)
 200cf5c:	10c00017 	ldw	r3,0(r2)
 200cf60:	e0bff717 	ldw	r2,-36(fp)
 200cf64:	18800115 	stw	r2,4(r3)
 200cf68:	e0fff617 	ldw	r3,-40(fp)
 200cf6c:	e0bff717 	ldw	r2,-36(fp)
 200cf70:	18800015 	stw	r2,0(r3)
 200cf74:	e0bffa17 	ldw	r2,-24(fp)
 200cf78:	e0bff515 	stw	r2,-44(fp)
 200cf7c:	e0bff517 	ldw	r2,-44(fp)
 200cf80:	1001703a 	wrctl	status,r2
 200cf84:	e03fff15 	stw	zero,-4(fp)
 200cf88:	00000506 	br	200cfa0 <alt_alarm_start+0x140>
 200cf8c:	00bffa84 	movi	r2,-22
 200cf90:	e0bfff15 	stw	r2,-4(fp)
 200cf94:	00000206 	br	200cfa0 <alt_alarm_start+0x140>
 200cf98:	00bfde84 	movi	r2,-134
 200cf9c:	e0bfff15 	stw	r2,-4(fp)
 200cfa0:	e0bfff17 	ldw	r2,-4(fp)
 200cfa4:	e037883a 	mov	sp,fp
 200cfa8:	df000017 	ldw	fp,0(sp)
 200cfac:	dec00104 	addi	sp,sp,4
 200cfb0:	f800283a 	ret

0200cfb4 <close>:
 200cfb4:	defff804 	addi	sp,sp,-32
 200cfb8:	dfc00715 	stw	ra,28(sp)
 200cfbc:	df000615 	stw	fp,24(sp)
 200cfc0:	df000604 	addi	fp,sp,24
 200cfc4:	e13ffc15 	stw	r4,-16(fp)
 200cfc8:	e0bffc17 	ldw	r2,-16(fp)
 200cfcc:	1004803a 	cmplt	r2,r2,zero
 200cfd0:	1000081e 	bne	r2,zero,200cff4 <close+0x40>
 200cfd4:	e0bffc17 	ldw	r2,-16(fp)
 200cfd8:	10800324 	muli	r2,r2,12
 200cfdc:	1007883a 	mov	r3,r2
 200cfe0:	00808074 	movhi	r2,513
 200cfe4:	10808404 	addi	r2,r2,528
 200cfe8:	1887883a 	add	r3,r3,r2
 200cfec:	e0ffff15 	stw	r3,-4(fp)
 200cff0:	00000106 	br	200cff8 <close+0x44>
 200cff4:	e03fff15 	stw	zero,-4(fp)
 200cff8:	e0bfff17 	ldw	r2,-4(fp)
 200cffc:	e0bffb15 	stw	r2,-20(fp)
 200d000:	e0bffb17 	ldw	r2,-20(fp)
 200d004:	1005003a 	cmpeq	r2,r2,zero
 200d008:	10001d1e 	bne	r2,zero,200d080 <close+0xcc>
 200d00c:	e0bffb17 	ldw	r2,-20(fp)
 200d010:	10800017 	ldw	r2,0(r2)
 200d014:	10800417 	ldw	r2,16(r2)
 200d018:	1005003a 	cmpeq	r2,r2,zero
 200d01c:	1000071e 	bne	r2,zero,200d03c <close+0x88>
 200d020:	e0bffb17 	ldw	r2,-20(fp)
 200d024:	10800017 	ldw	r2,0(r2)
 200d028:	10800417 	ldw	r2,16(r2)
 200d02c:	e13ffb17 	ldw	r4,-20(fp)
 200d030:	103ee83a 	callr	r2
 200d034:	e0bffe15 	stw	r2,-8(fp)
 200d038:	00000106 	br	200d040 <close+0x8c>
 200d03c:	e03ffe15 	stw	zero,-8(fp)
 200d040:	e0bffe17 	ldw	r2,-8(fp)
 200d044:	e0bffa15 	stw	r2,-24(fp)
 200d048:	e13ffc17 	ldw	r4,-16(fp)
 200d04c:	200dab40 	call	200dab4 <alt_release_fd>
 200d050:	e0bffa17 	ldw	r2,-24(fp)
 200d054:	1004403a 	cmpge	r2,r2,zero
 200d058:	1000071e 	bne	r2,zero,200d078 <close+0xc4>
 200d05c:	200d0b00 	call	200d0b0 <alt_get_errno>
 200d060:	e0fffa17 	ldw	r3,-24(fp)
 200d064:	00c7c83a 	sub	r3,zero,r3
 200d068:	10c00015 	stw	r3,0(r2)
 200d06c:	00bfffc4 	movi	r2,-1
 200d070:	e0bffd15 	stw	r2,-12(fp)
 200d074:	00000806 	br	200d098 <close+0xe4>
 200d078:	e03ffd15 	stw	zero,-12(fp)
 200d07c:	00000606 	br	200d098 <close+0xe4>
 200d080:	200d0b00 	call	200d0b0 <alt_get_errno>
 200d084:	1007883a 	mov	r3,r2
 200d088:	00801444 	movi	r2,81
 200d08c:	18800015 	stw	r2,0(r3)
 200d090:	00bfffc4 	movi	r2,-1
 200d094:	e0bffd15 	stw	r2,-12(fp)
 200d098:	e0bffd17 	ldw	r2,-12(fp)
 200d09c:	e037883a 	mov	sp,fp
 200d0a0:	dfc00117 	ldw	ra,4(sp)
 200d0a4:	df000017 	ldw	fp,0(sp)
 200d0a8:	dec00204 	addi	sp,sp,8
 200d0ac:	f800283a 	ret

0200d0b0 <alt_get_errno>:
 200d0b0:	defffd04 	addi	sp,sp,-12
 200d0b4:	dfc00215 	stw	ra,8(sp)
 200d0b8:	df000115 	stw	fp,4(sp)
 200d0bc:	df000104 	addi	fp,sp,4
 200d0c0:	00808074 	movhi	r2,513
 200d0c4:	1080fa04 	addi	r2,r2,1000
 200d0c8:	10800017 	ldw	r2,0(r2)
 200d0cc:	1005003a 	cmpeq	r2,r2,zero
 200d0d0:	1000061e 	bne	r2,zero,200d0ec <alt_get_errno+0x3c>
 200d0d4:	00808074 	movhi	r2,513
 200d0d8:	1080fa04 	addi	r2,r2,1000
 200d0dc:	10800017 	ldw	r2,0(r2)
 200d0e0:	103ee83a 	callr	r2
 200d0e4:	e0bfff15 	stw	r2,-4(fp)
 200d0e8:	00000306 	br	200d0f8 <alt_get_errno+0x48>
 200d0ec:	00808074 	movhi	r2,513
 200d0f0:	10819004 	addi	r2,r2,1600
 200d0f4:	e0bfff15 	stw	r2,-4(fp)
 200d0f8:	e0bfff17 	ldw	r2,-4(fp)
 200d0fc:	e037883a 	mov	sp,fp
 200d100:	dfc00117 	ldw	ra,4(sp)
 200d104:	df000017 	ldw	fp,0(sp)
 200d108:	dec00204 	addi	sp,sp,8
 200d10c:	f800283a 	ret

0200d110 <alt_dev_null_write>:
 200d110:	defffc04 	addi	sp,sp,-16
 200d114:	df000315 	stw	fp,12(sp)
 200d118:	df000304 	addi	fp,sp,12
 200d11c:	e13ffd15 	stw	r4,-12(fp)
 200d120:	e17ffe15 	stw	r5,-8(fp)
 200d124:	e1bfff15 	stw	r6,-4(fp)
 200d128:	e0bfff17 	ldw	r2,-4(fp)
 200d12c:	e037883a 	mov	sp,fp
 200d130:	df000017 	ldw	fp,0(sp)
 200d134:	dec00104 	addi	sp,sp,4
 200d138:	f800283a 	ret

0200d13c <alt_dev_llist_insert>:
 200d13c:	defff904 	addi	sp,sp,-28
 200d140:	dfc00615 	stw	ra,24(sp)
 200d144:	df000515 	stw	fp,20(sp)
 200d148:	df000504 	addi	fp,sp,20
 200d14c:	e13ffd15 	stw	r4,-12(fp)
 200d150:	e17ffe15 	stw	r5,-8(fp)
 200d154:	e0bffd17 	ldw	r2,-12(fp)
 200d158:	1005003a 	cmpeq	r2,r2,zero
 200d15c:	1000041e 	bne	r2,zero,200d170 <alt_dev_llist_insert+0x34>
 200d160:	e0bffd17 	ldw	r2,-12(fp)
 200d164:	10800217 	ldw	r2,8(r2)
 200d168:	1004c03a 	cmpne	r2,r2,zero
 200d16c:	1000071e 	bne	r2,zero,200d18c <alt_dev_llist_insert+0x50>
 200d170:	200d1f00 	call	200d1f0 <alt_get_errno>
 200d174:	1007883a 	mov	r3,r2
 200d178:	00800584 	movi	r2,22
 200d17c:	18800015 	stw	r2,0(r3)
 200d180:	00bffa84 	movi	r2,-22
 200d184:	e0bfff15 	stw	r2,-4(fp)
 200d188:	00001306 	br	200d1d8 <alt_dev_llist_insert+0x9c>
 200d18c:	e0fffd17 	ldw	r3,-12(fp)
 200d190:	e0bffe17 	ldw	r2,-8(fp)
 200d194:	e0bffb15 	stw	r2,-20(fp)
 200d198:	e0fffc15 	stw	r3,-16(fp)
 200d19c:	e0fffc17 	ldw	r3,-16(fp)
 200d1a0:	e0bffb17 	ldw	r2,-20(fp)
 200d1a4:	18800115 	stw	r2,4(r3)
 200d1a8:	e0bffb17 	ldw	r2,-20(fp)
 200d1ac:	10c00017 	ldw	r3,0(r2)
 200d1b0:	e0bffc17 	ldw	r2,-16(fp)
 200d1b4:	10c00015 	stw	r3,0(r2)
 200d1b8:	e0bffb17 	ldw	r2,-20(fp)
 200d1bc:	10c00017 	ldw	r3,0(r2)
 200d1c0:	e0bffc17 	ldw	r2,-16(fp)
 200d1c4:	18800115 	stw	r2,4(r3)
 200d1c8:	e0fffb17 	ldw	r3,-20(fp)
 200d1cc:	e0bffc17 	ldw	r2,-16(fp)
 200d1d0:	18800015 	stw	r2,0(r3)
 200d1d4:	e03fff15 	stw	zero,-4(fp)
 200d1d8:	e0bfff17 	ldw	r2,-4(fp)
 200d1dc:	e037883a 	mov	sp,fp
 200d1e0:	dfc00117 	ldw	ra,4(sp)
 200d1e4:	df000017 	ldw	fp,0(sp)
 200d1e8:	dec00204 	addi	sp,sp,8
 200d1ec:	f800283a 	ret

0200d1f0 <alt_get_errno>:
 200d1f0:	defffd04 	addi	sp,sp,-12
 200d1f4:	dfc00215 	stw	ra,8(sp)
 200d1f8:	df000115 	stw	fp,4(sp)
 200d1fc:	df000104 	addi	fp,sp,4
 200d200:	00808074 	movhi	r2,513
 200d204:	1080fa04 	addi	r2,r2,1000
 200d208:	10800017 	ldw	r2,0(r2)
 200d20c:	1005003a 	cmpeq	r2,r2,zero
 200d210:	1000061e 	bne	r2,zero,200d22c <alt_get_errno+0x3c>
 200d214:	00808074 	movhi	r2,513
 200d218:	1080fa04 	addi	r2,r2,1000
 200d21c:	10800017 	ldw	r2,0(r2)
 200d220:	103ee83a 	callr	r2
 200d224:	e0bfff15 	stw	r2,-4(fp)
 200d228:	00000306 	br	200d238 <alt_get_errno+0x48>
 200d22c:	00808074 	movhi	r2,513
 200d230:	10819004 	addi	r2,r2,1600
 200d234:	e0bfff15 	stw	r2,-4(fp)
 200d238:	e0bfff17 	ldw	r2,-4(fp)
 200d23c:	e037883a 	mov	sp,fp
 200d240:	dfc00117 	ldw	ra,4(sp)
 200d244:	df000017 	ldw	fp,0(sp)
 200d248:	dec00204 	addi	sp,sp,8
 200d24c:	f800283a 	ret

0200d250 <_do_ctors>:
 200d250:	defffd04 	addi	sp,sp,-12
 200d254:	dfc00215 	stw	ra,8(sp)
 200d258:	df000115 	stw	fp,4(sp)
 200d25c:	df000104 	addi	fp,sp,4
 200d260:	00bfff04 	movi	r2,-4
 200d264:	00c08074 	movhi	r3,513
 200d268:	18f9a704 	addi	r3,r3,-6500
 200d26c:	1885883a 	add	r2,r3,r2
 200d270:	e0bfff15 	stw	r2,-4(fp)
 200d274:	00000606 	br	200d290 <_do_ctors+0x40>
 200d278:	e0bfff17 	ldw	r2,-4(fp)
 200d27c:	10800017 	ldw	r2,0(r2)
 200d280:	103ee83a 	callr	r2
 200d284:	e0bfff17 	ldw	r2,-4(fp)
 200d288:	10bfff04 	addi	r2,r2,-4
 200d28c:	e0bfff15 	stw	r2,-4(fp)
 200d290:	e0ffff17 	ldw	r3,-4(fp)
 200d294:	00808074 	movhi	r2,513
 200d298:	10b9a604 	addi	r2,r2,-6504
 200d29c:	18bff62e 	bgeu	r3,r2,200d278 <_do_ctors+0x28>
 200d2a0:	e037883a 	mov	sp,fp
 200d2a4:	dfc00117 	ldw	ra,4(sp)
 200d2a8:	df000017 	ldw	fp,0(sp)
 200d2ac:	dec00204 	addi	sp,sp,8
 200d2b0:	f800283a 	ret

0200d2b4 <_do_dtors>:
 200d2b4:	defffd04 	addi	sp,sp,-12
 200d2b8:	dfc00215 	stw	ra,8(sp)
 200d2bc:	df000115 	stw	fp,4(sp)
 200d2c0:	df000104 	addi	fp,sp,4
 200d2c4:	00bfff04 	movi	r2,-4
 200d2c8:	00c08074 	movhi	r3,513
 200d2cc:	18f9a704 	addi	r3,r3,-6500
 200d2d0:	1885883a 	add	r2,r3,r2
 200d2d4:	e0bfff15 	stw	r2,-4(fp)
 200d2d8:	00000606 	br	200d2f4 <_do_dtors+0x40>
 200d2dc:	e0bfff17 	ldw	r2,-4(fp)
 200d2e0:	10800017 	ldw	r2,0(r2)
 200d2e4:	103ee83a 	callr	r2
 200d2e8:	e0bfff17 	ldw	r2,-4(fp)
 200d2ec:	10bfff04 	addi	r2,r2,-4
 200d2f0:	e0bfff15 	stw	r2,-4(fp)
 200d2f4:	e0ffff17 	ldw	r3,-4(fp)
 200d2f8:	00808074 	movhi	r2,513
 200d2fc:	10b9a704 	addi	r2,r2,-6500
 200d300:	18bff62e 	bgeu	r3,r2,200d2dc <_do_dtors+0x28>
 200d304:	e037883a 	mov	sp,fp
 200d308:	dfc00117 	ldw	ra,4(sp)
 200d30c:	df000017 	ldw	fp,0(sp)
 200d310:	dec00204 	addi	sp,sp,8
 200d314:	f800283a 	ret

0200d318 <alt_flash_open_dev>:
 200d318:	defffb04 	addi	sp,sp,-20
 200d31c:	dfc00415 	stw	ra,16(sp)
 200d320:	df000315 	stw	fp,12(sp)
 200d324:	df000304 	addi	fp,sp,12
 200d328:	e13ffe15 	stw	r4,-8(fp)
 200d32c:	e13ffe17 	ldw	r4,-8(fp)
 200d330:	d1601704 	addi	r5,gp,-32676
 200d334:	200df100 	call	200df10 <alt_find_dev>
 200d338:	e0bffd15 	stw	r2,-12(fp)
 200d33c:	e0bffd17 	ldw	r2,-12(fp)
 200d340:	1005003a 	cmpeq	r2,r2,zero
 200d344:	10000b1e 	bne	r2,zero,200d374 <alt_flash_open_dev+0x5c>
 200d348:	e0bffd17 	ldw	r2,-12(fp)
 200d34c:	10800317 	ldw	r2,12(r2)
 200d350:	1005003a 	cmpeq	r2,r2,zero
 200d354:	1000071e 	bne	r2,zero,200d374 <alt_flash_open_dev+0x5c>
 200d358:	e0bffd17 	ldw	r2,-12(fp)
 200d35c:	10800317 	ldw	r2,12(r2)
 200d360:	e13ffd17 	ldw	r4,-12(fp)
 200d364:	e17ffe17 	ldw	r5,-8(fp)
 200d368:	103ee83a 	callr	r2
 200d36c:	e0bfff15 	stw	r2,-4(fp)
 200d370:	00000206 	br	200d37c <alt_flash_open_dev+0x64>
 200d374:	e0bffd17 	ldw	r2,-12(fp)
 200d378:	e0bfff15 	stw	r2,-4(fp)
 200d37c:	e0bfff17 	ldw	r2,-4(fp)
 200d380:	e037883a 	mov	sp,fp
 200d384:	dfc00117 	ldw	ra,4(sp)
 200d388:	df000017 	ldw	fp,0(sp)
 200d38c:	dec00204 	addi	sp,sp,8
 200d390:	f800283a 	ret

0200d394 <alt_flash_close_dev>:
 200d394:	defffd04 	addi	sp,sp,-12
 200d398:	dfc00215 	stw	ra,8(sp)
 200d39c:	df000115 	stw	fp,4(sp)
 200d3a0:	df000104 	addi	fp,sp,4
 200d3a4:	e13fff15 	stw	r4,-4(fp)
 200d3a8:	e0bfff17 	ldw	r2,-4(fp)
 200d3ac:	1005003a 	cmpeq	r2,r2,zero
 200d3b0:	1000081e 	bne	r2,zero,200d3d4 <alt_flash_close_dev+0x40>
 200d3b4:	e0bfff17 	ldw	r2,-4(fp)
 200d3b8:	10800417 	ldw	r2,16(r2)
 200d3bc:	1005003a 	cmpeq	r2,r2,zero
 200d3c0:	1000041e 	bne	r2,zero,200d3d4 <alt_flash_close_dev+0x40>
 200d3c4:	e0bfff17 	ldw	r2,-4(fp)
 200d3c8:	10800417 	ldw	r2,16(r2)
 200d3cc:	e13fff17 	ldw	r4,-4(fp)
 200d3d0:	103ee83a 	callr	r2
 200d3d4:	e037883a 	mov	sp,fp
 200d3d8:	dfc00117 	ldw	ra,4(sp)
 200d3dc:	df000017 	ldw	fp,0(sp)
 200d3e0:	dec00204 	addi	sp,sp,8
 200d3e4:	f800283a 	ret

0200d3e8 <alt_ic_isr_register>:
 200d3e8:	defff904 	addi	sp,sp,-28
 200d3ec:	dfc00615 	stw	ra,24(sp)
 200d3f0:	df000515 	stw	fp,20(sp)
 200d3f4:	df000504 	addi	fp,sp,20
 200d3f8:	e13ffc15 	stw	r4,-16(fp)
 200d3fc:	e17ffd15 	stw	r5,-12(fp)
 200d400:	e1bffe15 	stw	r6,-8(fp)
 200d404:	e1ffff15 	stw	r7,-4(fp)
 200d408:	e0800217 	ldw	r2,8(fp)
 200d40c:	d8800015 	stw	r2,0(sp)
 200d410:	e13ffc17 	ldw	r4,-16(fp)
 200d414:	e17ffd17 	ldw	r5,-12(fp)
 200d418:	e1bffe17 	ldw	r6,-8(fp)
 200d41c:	e1ffff17 	ldw	r7,-4(fp)
 200d420:	200d5bc0 	call	200d5bc <alt_iic_isr_register>
 200d424:	e037883a 	mov	sp,fp
 200d428:	dfc00117 	ldw	ra,4(sp)
 200d42c:	df000017 	ldw	fp,0(sp)
 200d430:	dec00204 	addi	sp,sp,8
 200d434:	f800283a 	ret

0200d438 <alt_ic_irq_enable>:
 200d438:	defff904 	addi	sp,sp,-28
 200d43c:	df000615 	stw	fp,24(sp)
 200d440:	df000604 	addi	fp,sp,24
 200d444:	e13ffe15 	stw	r4,-8(fp)
 200d448:	e17fff15 	stw	r5,-4(fp)
 200d44c:	e0bfff17 	ldw	r2,-4(fp)
 200d450:	e0bffc15 	stw	r2,-16(fp)
 200d454:	0005303a 	rdctl	r2,status
 200d458:	e0bffb15 	stw	r2,-20(fp)
 200d45c:	e0fffb17 	ldw	r3,-20(fp)
 200d460:	00bfff84 	movi	r2,-2
 200d464:	1884703a 	and	r2,r3,r2
 200d468:	1001703a 	wrctl	status,r2
 200d46c:	e0bffb17 	ldw	r2,-20(fp)
 200d470:	e0bffd15 	stw	r2,-12(fp)
 200d474:	e0fffc17 	ldw	r3,-16(fp)
 200d478:	00800044 	movi	r2,1
 200d47c:	10c4983a 	sll	r2,r2,r3
 200d480:	1007883a 	mov	r3,r2
 200d484:	00808074 	movhi	r2,513
 200d488:	10818a04 	addi	r2,r2,1576
 200d48c:	10800017 	ldw	r2,0(r2)
 200d490:	1886b03a 	or	r3,r3,r2
 200d494:	00808074 	movhi	r2,513
 200d498:	10818a04 	addi	r2,r2,1576
 200d49c:	10c00015 	stw	r3,0(r2)
 200d4a0:	00808074 	movhi	r2,513
 200d4a4:	10818a04 	addi	r2,r2,1576
 200d4a8:	10800017 	ldw	r2,0(r2)
 200d4ac:	100170fa 	wrctl	ienable,r2
 200d4b0:	e0bffd17 	ldw	r2,-12(fp)
 200d4b4:	e0bffa15 	stw	r2,-24(fp)
 200d4b8:	e0bffa17 	ldw	r2,-24(fp)
 200d4bc:	1001703a 	wrctl	status,r2
 200d4c0:	0005883a 	mov	r2,zero
 200d4c4:	e037883a 	mov	sp,fp
 200d4c8:	df000017 	ldw	fp,0(sp)
 200d4cc:	dec00104 	addi	sp,sp,4
 200d4d0:	f800283a 	ret

0200d4d4 <alt_ic_irq_disable>:
 200d4d4:	defff904 	addi	sp,sp,-28
 200d4d8:	df000615 	stw	fp,24(sp)
 200d4dc:	df000604 	addi	fp,sp,24
 200d4e0:	e13ffe15 	stw	r4,-8(fp)
 200d4e4:	e17fff15 	stw	r5,-4(fp)
 200d4e8:	e0bfff17 	ldw	r2,-4(fp)
 200d4ec:	e0bffc15 	stw	r2,-16(fp)
 200d4f0:	0005303a 	rdctl	r2,status
 200d4f4:	e0bffb15 	stw	r2,-20(fp)
 200d4f8:	e0fffb17 	ldw	r3,-20(fp)
 200d4fc:	00bfff84 	movi	r2,-2
 200d500:	1884703a 	and	r2,r3,r2
 200d504:	1001703a 	wrctl	status,r2
 200d508:	e0bffb17 	ldw	r2,-20(fp)
 200d50c:	e0bffd15 	stw	r2,-12(fp)
 200d510:	e0fffc17 	ldw	r3,-16(fp)
 200d514:	00800044 	movi	r2,1
 200d518:	10c4983a 	sll	r2,r2,r3
 200d51c:	0084303a 	nor	r2,zero,r2
 200d520:	1007883a 	mov	r3,r2
 200d524:	00808074 	movhi	r2,513
 200d528:	10818a04 	addi	r2,r2,1576
 200d52c:	10800017 	ldw	r2,0(r2)
 200d530:	1886703a 	and	r3,r3,r2
 200d534:	00808074 	movhi	r2,513
 200d538:	10818a04 	addi	r2,r2,1576
 200d53c:	10c00015 	stw	r3,0(r2)
 200d540:	00808074 	movhi	r2,513
 200d544:	10818a04 	addi	r2,r2,1576
 200d548:	10800017 	ldw	r2,0(r2)
 200d54c:	100170fa 	wrctl	ienable,r2
 200d550:	e0bffd17 	ldw	r2,-12(fp)
 200d554:	e0bffa15 	stw	r2,-24(fp)
 200d558:	e0bffa17 	ldw	r2,-24(fp)
 200d55c:	1001703a 	wrctl	status,r2
 200d560:	0005883a 	mov	r2,zero
 200d564:	e037883a 	mov	sp,fp
 200d568:	df000017 	ldw	fp,0(sp)
 200d56c:	dec00104 	addi	sp,sp,4
 200d570:	f800283a 	ret

0200d574 <alt_ic_irq_enabled>:
 200d574:	defffc04 	addi	sp,sp,-16
 200d578:	df000315 	stw	fp,12(sp)
 200d57c:	df000304 	addi	fp,sp,12
 200d580:	e13ffe15 	stw	r4,-8(fp)
 200d584:	e17fff15 	stw	r5,-4(fp)
 200d588:	000530fa 	rdctl	r2,ienable
 200d58c:	e0bffd15 	stw	r2,-12(fp)
 200d590:	e0ffff17 	ldw	r3,-4(fp)
 200d594:	00800044 	movi	r2,1
 200d598:	10c4983a 	sll	r2,r2,r3
 200d59c:	1007883a 	mov	r3,r2
 200d5a0:	e0bffd17 	ldw	r2,-12(fp)
 200d5a4:	1884703a 	and	r2,r3,r2
 200d5a8:	1004c03a 	cmpne	r2,r2,zero
 200d5ac:	e037883a 	mov	sp,fp
 200d5b0:	df000017 	ldw	fp,0(sp)
 200d5b4:	dec00104 	addi	sp,sp,4
 200d5b8:	f800283a 	ret

0200d5bc <alt_iic_isr_register>:
 200d5bc:	defff404 	addi	sp,sp,-48
 200d5c0:	dfc00b15 	stw	ra,44(sp)
 200d5c4:	df000a15 	stw	fp,40(sp)
 200d5c8:	df000a04 	addi	fp,sp,40
 200d5cc:	e13ffb15 	stw	r4,-20(fp)
 200d5d0:	e17ffc15 	stw	r5,-16(fp)
 200d5d4:	e1bffd15 	stw	r6,-12(fp)
 200d5d8:	e1fffe15 	stw	r7,-8(fp)
 200d5dc:	00bffa84 	movi	r2,-22
 200d5e0:	e0bffa15 	stw	r2,-24(fp)
 200d5e4:	e0bffc17 	ldw	r2,-16(fp)
 200d5e8:	e0bff915 	stw	r2,-28(fp)
 200d5ec:	e0bff917 	ldw	r2,-28(fp)
 200d5f0:	10800808 	cmpgei	r2,r2,32
 200d5f4:	1000291e 	bne	r2,zero,200d69c <alt_iic_isr_register+0xe0>
 200d5f8:	0005303a 	rdctl	r2,status
 200d5fc:	e0bff715 	stw	r2,-36(fp)
 200d600:	e0fff717 	ldw	r3,-36(fp)
 200d604:	00bfff84 	movi	r2,-2
 200d608:	1884703a 	and	r2,r3,r2
 200d60c:	1001703a 	wrctl	status,r2
 200d610:	e0bff717 	ldw	r2,-36(fp)
 200d614:	e0bff815 	stw	r2,-32(fp)
 200d618:	e0bff917 	ldw	r2,-28(fp)
 200d61c:	00c08074 	movhi	r3,513
 200d620:	18c3a504 	addi	r3,r3,3732
 200d624:	100490fa 	slli	r2,r2,3
 200d628:	10c7883a 	add	r3,r2,r3
 200d62c:	e0bffd17 	ldw	r2,-12(fp)
 200d630:	18800015 	stw	r2,0(r3)
 200d634:	e0bff917 	ldw	r2,-28(fp)
 200d638:	00c08074 	movhi	r3,513
 200d63c:	18c3a504 	addi	r3,r3,3732
 200d640:	100490fa 	slli	r2,r2,3
 200d644:	10c5883a 	add	r2,r2,r3
 200d648:	10c00104 	addi	r3,r2,4
 200d64c:	e0bffe17 	ldw	r2,-8(fp)
 200d650:	18800015 	stw	r2,0(r3)
 200d654:	e0bffd17 	ldw	r2,-12(fp)
 200d658:	1005003a 	cmpeq	r2,r2,zero
 200d65c:	1000051e 	bne	r2,zero,200d674 <alt_iic_isr_register+0xb8>
 200d660:	e17ff917 	ldw	r5,-28(fp)
 200d664:	e13ffb17 	ldw	r4,-20(fp)
 200d668:	200d4380 	call	200d438 <alt_ic_irq_enable>
 200d66c:	e0bfff15 	stw	r2,-4(fp)
 200d670:	00000406 	br	200d684 <alt_iic_isr_register+0xc8>
 200d674:	e17ff917 	ldw	r5,-28(fp)
 200d678:	e13ffb17 	ldw	r4,-20(fp)
 200d67c:	200d4d40 	call	200d4d4 <alt_ic_irq_disable>
 200d680:	e0bfff15 	stw	r2,-4(fp)
 200d684:	e0bfff17 	ldw	r2,-4(fp)
 200d688:	e0bffa15 	stw	r2,-24(fp)
 200d68c:	e0bff817 	ldw	r2,-32(fp)
 200d690:	e0bff615 	stw	r2,-40(fp)
 200d694:	e0bff617 	ldw	r2,-40(fp)
 200d698:	1001703a 	wrctl	status,r2
 200d69c:	e0bffa17 	ldw	r2,-24(fp)
 200d6a0:	e037883a 	mov	sp,fp
 200d6a4:	dfc00117 	ldw	ra,4(sp)
 200d6a8:	df000017 	ldw	fp,0(sp)
 200d6ac:	dec00204 	addi	sp,sp,8
 200d6b0:	f800283a 	ret

0200d6b4 <alt_open_fd>:
 200d6b4:	defff904 	addi	sp,sp,-28
 200d6b8:	dfc00615 	stw	ra,24(sp)
 200d6bc:	df000515 	stw	fp,20(sp)
 200d6c0:	df000504 	addi	fp,sp,20
 200d6c4:	e13ffc15 	stw	r4,-16(fp)
 200d6c8:	e17ffd15 	stw	r5,-12(fp)
 200d6cc:	e1bffe15 	stw	r6,-8(fp)
 200d6d0:	e1ffff15 	stw	r7,-4(fp)
 200d6d4:	e13ffd17 	ldw	r4,-12(fp)
 200d6d8:	e17ffe17 	ldw	r5,-8(fp)
 200d6dc:	e1bfff17 	ldw	r6,-4(fp)
 200d6e0:	200d8cc0 	call	200d8cc <open>
 200d6e4:	e0bffb15 	stw	r2,-20(fp)
 200d6e8:	e0bffb17 	ldw	r2,-20(fp)
 200d6ec:	1004803a 	cmplt	r2,r2,zero
 200d6f0:	10001c1e 	bne	r2,zero,200d764 <alt_open_fd+0xb0>
 200d6f4:	e0bffb17 	ldw	r2,-20(fp)
 200d6f8:	00c08074 	movhi	r3,513
 200d6fc:	18c08404 	addi	r3,r3,528
 200d700:	10800324 	muli	r2,r2,12
 200d704:	10c5883a 	add	r2,r2,r3
 200d708:	10c00017 	ldw	r3,0(r2)
 200d70c:	e0bffc17 	ldw	r2,-16(fp)
 200d710:	10c00015 	stw	r3,0(r2)
 200d714:	e0bffb17 	ldw	r2,-20(fp)
 200d718:	00c08074 	movhi	r3,513
 200d71c:	18c08404 	addi	r3,r3,528
 200d720:	10800324 	muli	r2,r2,12
 200d724:	10c5883a 	add	r2,r2,r3
 200d728:	10800104 	addi	r2,r2,4
 200d72c:	10c00017 	ldw	r3,0(r2)
 200d730:	e0bffc17 	ldw	r2,-16(fp)
 200d734:	10c00115 	stw	r3,4(r2)
 200d738:	e0bffb17 	ldw	r2,-20(fp)
 200d73c:	00c08074 	movhi	r3,513
 200d740:	18c08404 	addi	r3,r3,528
 200d744:	10800324 	muli	r2,r2,12
 200d748:	10c5883a 	add	r2,r2,r3
 200d74c:	10800204 	addi	r2,r2,8
 200d750:	10c00017 	ldw	r3,0(r2)
 200d754:	e0bffc17 	ldw	r2,-16(fp)
 200d758:	10c00215 	stw	r3,8(r2)
 200d75c:	e13ffb17 	ldw	r4,-20(fp)
 200d760:	200dab40 	call	200dab4 <alt_release_fd>
 200d764:	e037883a 	mov	sp,fp
 200d768:	dfc00117 	ldw	ra,4(sp)
 200d76c:	df000017 	ldw	fp,0(sp)
 200d770:	dec00204 	addi	sp,sp,8
 200d774:	f800283a 	ret

0200d778 <alt_io_redirect>:
 200d778:	defffb04 	addi	sp,sp,-20
 200d77c:	dfc00415 	stw	ra,16(sp)
 200d780:	df000315 	stw	fp,12(sp)
 200d784:	df000304 	addi	fp,sp,12
 200d788:	e13ffd15 	stw	r4,-12(fp)
 200d78c:	e17ffe15 	stw	r5,-8(fp)
 200d790:	e1bfff15 	stw	r6,-4(fp)
 200d794:	01008074 	movhi	r4,513
 200d798:	21008704 	addi	r4,r4,540
 200d79c:	e17ffd17 	ldw	r5,-12(fp)
 200d7a0:	01800044 	movi	r6,1
 200d7a4:	01c07fc4 	movi	r7,511
 200d7a8:	200d6b40 	call	200d6b4 <alt_open_fd>
 200d7ac:	01008074 	movhi	r4,513
 200d7b0:	21008404 	addi	r4,r4,528
 200d7b4:	e17ffe17 	ldw	r5,-8(fp)
 200d7b8:	000d883a 	mov	r6,zero
 200d7bc:	01c07fc4 	movi	r7,511
 200d7c0:	200d6b40 	call	200d6b4 <alt_open_fd>
 200d7c4:	01008074 	movhi	r4,513
 200d7c8:	21008a04 	addi	r4,r4,552
 200d7cc:	e17fff17 	ldw	r5,-4(fp)
 200d7d0:	01800044 	movi	r6,1
 200d7d4:	01c07fc4 	movi	r7,511
 200d7d8:	200d6b40 	call	200d6b4 <alt_open_fd>
 200d7dc:	e037883a 	mov	sp,fp
 200d7e0:	dfc00117 	ldw	ra,4(sp)
 200d7e4:	df000017 	ldw	fp,0(sp)
 200d7e8:	dec00204 	addi	sp,sp,8
 200d7ec:	f800283a 	ret

0200d7f0 <alt_file_locked>:
 200d7f0:	defffc04 	addi	sp,sp,-16
 200d7f4:	df000315 	stw	fp,12(sp)
 200d7f8:	df000304 	addi	fp,sp,12
 200d7fc:	e13ffe15 	stw	r4,-8(fp)
 200d800:	e0bffe17 	ldw	r2,-8(fp)
 200d804:	10800217 	ldw	r2,8(r2)
 200d808:	10d00034 	orhi	r3,r2,16384
 200d80c:	e0bffe17 	ldw	r2,-8(fp)
 200d810:	10c00215 	stw	r3,8(r2)
 200d814:	e03ffd15 	stw	zero,-12(fp)
 200d818:	00002006 	br	200d89c <alt_file_locked+0xac>
 200d81c:	e0bffd17 	ldw	r2,-12(fp)
 200d820:	00c08074 	movhi	r3,513
 200d824:	18c08404 	addi	r3,r3,528
 200d828:	10800324 	muli	r2,r2,12
 200d82c:	10c5883a 	add	r2,r2,r3
 200d830:	10c00017 	ldw	r3,0(r2)
 200d834:	e0bffe17 	ldw	r2,-8(fp)
 200d838:	10800017 	ldw	r2,0(r2)
 200d83c:	1880141e 	bne	r3,r2,200d890 <alt_file_locked+0xa0>
 200d840:	e0bffd17 	ldw	r2,-12(fp)
 200d844:	00c08074 	movhi	r3,513
 200d848:	18c08404 	addi	r3,r3,528
 200d84c:	10800324 	muli	r2,r2,12
 200d850:	10c5883a 	add	r2,r2,r3
 200d854:	10800204 	addi	r2,r2,8
 200d858:	10800017 	ldw	r2,0(r2)
 200d85c:	1004403a 	cmpge	r2,r2,zero
 200d860:	10000b1e 	bne	r2,zero,200d890 <alt_file_locked+0xa0>
 200d864:	e0bffd17 	ldw	r2,-12(fp)
 200d868:	10800324 	muli	r2,r2,12
 200d86c:	1007883a 	mov	r3,r2
 200d870:	00808074 	movhi	r2,513
 200d874:	10808404 	addi	r2,r2,528
 200d878:	1887883a 	add	r3,r3,r2
 200d87c:	e0bffe17 	ldw	r2,-8(fp)
 200d880:	18800326 	beq	r3,r2,200d890 <alt_file_locked+0xa0>
 200d884:	00bffcc4 	movi	r2,-13
 200d888:	e0bfff15 	stw	r2,-4(fp)
 200d88c:	00000a06 	br	200d8b8 <alt_file_locked+0xc8>
 200d890:	e0bffd17 	ldw	r2,-12(fp)
 200d894:	10800044 	addi	r2,r2,1
 200d898:	e0bffd15 	stw	r2,-12(fp)
 200d89c:	00808074 	movhi	r2,513
 200d8a0:	1080f904 	addi	r2,r2,996
 200d8a4:	10800017 	ldw	r2,0(r2)
 200d8a8:	1007883a 	mov	r3,r2
 200d8ac:	e0bffd17 	ldw	r2,-12(fp)
 200d8b0:	18bfda2e 	bgeu	r3,r2,200d81c <alt_file_locked+0x2c>
 200d8b4:	e03fff15 	stw	zero,-4(fp)
 200d8b8:	e0bfff17 	ldw	r2,-4(fp)
 200d8bc:	e037883a 	mov	sp,fp
 200d8c0:	df000017 	ldw	fp,0(sp)
 200d8c4:	dec00104 	addi	sp,sp,4
 200d8c8:	f800283a 	ret

0200d8cc <open>:
 200d8cc:	defff404 	addi	sp,sp,-48
 200d8d0:	dfc00b15 	stw	ra,44(sp)
 200d8d4:	df000a15 	stw	fp,40(sp)
 200d8d8:	df000a04 	addi	fp,sp,40
 200d8dc:	e13ffb15 	stw	r4,-20(fp)
 200d8e0:	e17ffc15 	stw	r5,-16(fp)
 200d8e4:	e1bffd15 	stw	r6,-12(fp)
 200d8e8:	00bfffc4 	movi	r2,-1
 200d8ec:	e0bff815 	stw	r2,-32(fp)
 200d8f0:	00bffb44 	movi	r2,-19
 200d8f4:	e0bff715 	stw	r2,-36(fp)
 200d8f8:	e03ff615 	stw	zero,-40(fp)
 200d8fc:	e13ffb17 	ldw	r4,-20(fp)
 200d900:	01408074 	movhi	r5,513
 200d904:	2940f704 	addi	r5,r5,988
 200d908:	200df100 	call	200df10 <alt_find_dev>
 200d90c:	e0bffa15 	stw	r2,-24(fp)
 200d910:	e0bffa17 	ldw	r2,-24(fp)
 200d914:	1004c03a 	cmpne	r2,r2,zero
 200d918:	1000051e 	bne	r2,zero,200d930 <open+0x64>
 200d91c:	e13ffb17 	ldw	r4,-20(fp)
 200d920:	200dfa40 	call	200dfa4 <alt_find_file>
 200d924:	e0bffa15 	stw	r2,-24(fp)
 200d928:	00800044 	movi	r2,1
 200d92c:	e0bff615 	stw	r2,-40(fp)
 200d930:	e0bffa17 	ldw	r2,-24(fp)
 200d934:	1005003a 	cmpeq	r2,r2,zero
 200d938:	1000301e 	bne	r2,zero,200d9fc <open+0x130>
 200d93c:	e13ffa17 	ldw	r4,-24(fp)
 200d940:	200e0c40 	call	200e0c4 <alt_get_fd>
 200d944:	e0bff815 	stw	r2,-32(fp)
 200d948:	e0bff817 	ldw	r2,-32(fp)
 200d94c:	1004403a 	cmpge	r2,r2,zero
 200d950:	1000031e 	bne	r2,zero,200d960 <open+0x94>
 200d954:	e0bff817 	ldw	r2,-32(fp)
 200d958:	e0bff715 	stw	r2,-36(fp)
 200d95c:	00002906 	br	200da04 <open+0x138>
 200d960:	e0bff817 	ldw	r2,-32(fp)
 200d964:	10800324 	muli	r2,r2,12
 200d968:	1007883a 	mov	r3,r2
 200d96c:	00808074 	movhi	r2,513
 200d970:	10808404 	addi	r2,r2,528
 200d974:	1885883a 	add	r2,r3,r2
 200d978:	e0bff915 	stw	r2,-28(fp)
 200d97c:	e0fffc17 	ldw	r3,-16(fp)
 200d980:	00900034 	movhi	r2,16384
 200d984:	10bfffc4 	addi	r2,r2,-1
 200d988:	1886703a 	and	r3,r3,r2
 200d98c:	e0bff917 	ldw	r2,-28(fp)
 200d990:	10c00215 	stw	r3,8(r2)
 200d994:	e0bff617 	ldw	r2,-40(fp)
 200d998:	1004c03a 	cmpne	r2,r2,zero
 200d99c:	1000061e 	bne	r2,zero,200d9b8 <open+0xec>
 200d9a0:	e13ff917 	ldw	r4,-28(fp)
 200d9a4:	200d7f00 	call	200d7f0 <alt_file_locked>
 200d9a8:	e0bff715 	stw	r2,-36(fp)
 200d9ac:	e0bff717 	ldw	r2,-36(fp)
 200d9b0:	1004803a 	cmplt	r2,r2,zero
 200d9b4:	1000131e 	bne	r2,zero,200da04 <open+0x138>
 200d9b8:	e0bffa17 	ldw	r2,-24(fp)
 200d9bc:	10800317 	ldw	r2,12(r2)
 200d9c0:	1005003a 	cmpeq	r2,r2,zero
 200d9c4:	1000091e 	bne	r2,zero,200d9ec <open+0x120>
 200d9c8:	e0bffa17 	ldw	r2,-24(fp)
 200d9cc:	10800317 	ldw	r2,12(r2)
 200d9d0:	e13ff917 	ldw	r4,-28(fp)
 200d9d4:	e17ffb17 	ldw	r5,-20(fp)
 200d9d8:	e1bffc17 	ldw	r6,-16(fp)
 200d9dc:	e1fffd17 	ldw	r7,-12(fp)
 200d9e0:	103ee83a 	callr	r2
 200d9e4:	e0bfff15 	stw	r2,-4(fp)
 200d9e8:	00000106 	br	200d9f0 <open+0x124>
 200d9ec:	e03fff15 	stw	zero,-4(fp)
 200d9f0:	e0bfff17 	ldw	r2,-4(fp)
 200d9f4:	e0bff715 	stw	r2,-36(fp)
 200d9f8:	00000206 	br	200da04 <open+0x138>
 200d9fc:	00bffb44 	movi	r2,-19
 200da00:	e0bff715 	stw	r2,-36(fp)
 200da04:	e0bff717 	ldw	r2,-36(fp)
 200da08:	1004403a 	cmpge	r2,r2,zero
 200da0c:	1000091e 	bne	r2,zero,200da34 <open+0x168>
 200da10:	e13ff817 	ldw	r4,-32(fp)
 200da14:	200dab40 	call	200dab4 <alt_release_fd>
 200da18:	200da540 	call	200da54 <alt_get_errno>
 200da1c:	e0fff717 	ldw	r3,-36(fp)
 200da20:	00c7c83a 	sub	r3,zero,r3
 200da24:	10c00015 	stw	r3,0(r2)
 200da28:	00bfffc4 	movi	r2,-1
 200da2c:	e0bffe15 	stw	r2,-8(fp)
 200da30:	00000206 	br	200da3c <open+0x170>
 200da34:	e0bff817 	ldw	r2,-32(fp)
 200da38:	e0bffe15 	stw	r2,-8(fp)
 200da3c:	e0bffe17 	ldw	r2,-8(fp)
 200da40:	e037883a 	mov	sp,fp
 200da44:	dfc00117 	ldw	ra,4(sp)
 200da48:	df000017 	ldw	fp,0(sp)
 200da4c:	dec00204 	addi	sp,sp,8
 200da50:	f800283a 	ret

0200da54 <alt_get_errno>:
 200da54:	defffd04 	addi	sp,sp,-12
 200da58:	dfc00215 	stw	ra,8(sp)
 200da5c:	df000115 	stw	fp,4(sp)
 200da60:	df000104 	addi	fp,sp,4
 200da64:	00808074 	movhi	r2,513
 200da68:	1080fa04 	addi	r2,r2,1000
 200da6c:	10800017 	ldw	r2,0(r2)
 200da70:	1005003a 	cmpeq	r2,r2,zero
 200da74:	1000061e 	bne	r2,zero,200da90 <alt_get_errno+0x3c>
 200da78:	00808074 	movhi	r2,513
 200da7c:	1080fa04 	addi	r2,r2,1000
 200da80:	10800017 	ldw	r2,0(r2)
 200da84:	103ee83a 	callr	r2
 200da88:	e0bfff15 	stw	r2,-4(fp)
 200da8c:	00000306 	br	200da9c <alt_get_errno+0x48>
 200da90:	00808074 	movhi	r2,513
 200da94:	10819004 	addi	r2,r2,1600
 200da98:	e0bfff15 	stw	r2,-4(fp)
 200da9c:	e0bfff17 	ldw	r2,-4(fp)
 200daa0:	e037883a 	mov	sp,fp
 200daa4:	dfc00117 	ldw	ra,4(sp)
 200daa8:	df000017 	ldw	fp,0(sp)
 200daac:	dec00204 	addi	sp,sp,8
 200dab0:	f800283a 	ret

0200dab4 <alt_release_fd>:
 200dab4:	defffe04 	addi	sp,sp,-8
 200dab8:	df000115 	stw	fp,4(sp)
 200dabc:	df000104 	addi	fp,sp,4
 200dac0:	e13fff15 	stw	r4,-4(fp)
 200dac4:	e0bfff17 	ldw	r2,-4(fp)
 200dac8:	108000d0 	cmplti	r2,r2,3
 200dacc:	10000d1e 	bne	r2,zero,200db04 <alt_release_fd+0x50>
 200dad0:	e0bfff17 	ldw	r2,-4(fp)
 200dad4:	00c08074 	movhi	r3,513
 200dad8:	18c08404 	addi	r3,r3,528
 200dadc:	10800324 	muli	r2,r2,12
 200dae0:	10c5883a 	add	r2,r2,r3
 200dae4:	10800204 	addi	r2,r2,8
 200dae8:	10000015 	stw	zero,0(r2)
 200daec:	e0bfff17 	ldw	r2,-4(fp)
 200daf0:	00c08074 	movhi	r3,513
 200daf4:	18c08404 	addi	r3,r3,528
 200daf8:	10800324 	muli	r2,r2,12
 200dafc:	10c5883a 	add	r2,r2,r3
 200db00:	10000015 	stw	zero,0(r2)
 200db04:	e037883a 	mov	sp,fp
 200db08:	df000017 	ldw	fp,0(sp)
 200db0c:	dec00104 	addi	sp,sp,4
 200db10:	f800283a 	ret

0200db14 <alt_alarm_stop>:
 200db14:	defffa04 	addi	sp,sp,-24
 200db18:	df000515 	stw	fp,20(sp)
 200db1c:	df000504 	addi	fp,sp,20
 200db20:	e13fff15 	stw	r4,-4(fp)
 200db24:	0005303a 	rdctl	r2,status
 200db28:	e0bffd15 	stw	r2,-12(fp)
 200db2c:	e0fffd17 	ldw	r3,-12(fp)
 200db30:	00bfff84 	movi	r2,-2
 200db34:	1884703a 	and	r2,r3,r2
 200db38:	1001703a 	wrctl	status,r2
 200db3c:	e0bffd17 	ldw	r2,-12(fp)
 200db40:	e0bffe15 	stw	r2,-8(fp)
 200db44:	e0bfff17 	ldw	r2,-4(fp)
 200db48:	e0bffc15 	stw	r2,-16(fp)
 200db4c:	e0bffc17 	ldw	r2,-16(fp)
 200db50:	10c00017 	ldw	r3,0(r2)
 200db54:	e0bffc17 	ldw	r2,-16(fp)
 200db58:	10800117 	ldw	r2,4(r2)
 200db5c:	18800115 	stw	r2,4(r3)
 200db60:	e0bffc17 	ldw	r2,-16(fp)
 200db64:	10c00117 	ldw	r3,4(r2)
 200db68:	e0bffc17 	ldw	r2,-16(fp)
 200db6c:	10800017 	ldw	r2,0(r2)
 200db70:	18800015 	stw	r2,0(r3)
 200db74:	e0fffc17 	ldw	r3,-16(fp)
 200db78:	e0bffc17 	ldw	r2,-16(fp)
 200db7c:	18800115 	stw	r2,4(r3)
 200db80:	e0fffc17 	ldw	r3,-16(fp)
 200db84:	e0bffc17 	ldw	r2,-16(fp)
 200db88:	18800015 	stw	r2,0(r3)
 200db8c:	e0bffe17 	ldw	r2,-8(fp)
 200db90:	e0bffb15 	stw	r2,-20(fp)
 200db94:	e0bffb17 	ldw	r2,-20(fp)
 200db98:	1001703a 	wrctl	status,r2
 200db9c:	e037883a 	mov	sp,fp
 200dba0:	df000017 	ldw	fp,0(sp)
 200dba4:	dec00104 	addi	sp,sp,4
 200dba8:	f800283a 	ret

0200dbac <alt_tick>:
 200dbac:	defffb04 	addi	sp,sp,-20
 200dbb0:	dfc00415 	stw	ra,16(sp)
 200dbb4:	df000315 	stw	fp,12(sp)
 200dbb8:	df000304 	addi	fp,sp,12
 200dbbc:	d0a01917 	ldw	r2,-32668(gp)
 200dbc0:	e0bffe15 	stw	r2,-8(fp)
 200dbc4:	d0a0ab17 	ldw	r2,-32084(gp)
 200dbc8:	10800044 	addi	r2,r2,1
 200dbcc:	d0a0ab15 	stw	r2,-32084(gp)
 200dbd0:	00003106 	br	200dc98 <alt_tick+0xec>
 200dbd4:	e0bffe17 	ldw	r2,-8(fp)
 200dbd8:	10800017 	ldw	r2,0(r2)
 200dbdc:	e0bfff15 	stw	r2,-4(fp)
 200dbe0:	e0bffe17 	ldw	r2,-8(fp)
 200dbe4:	10800403 	ldbu	r2,16(r2)
 200dbe8:	10803fcc 	andi	r2,r2,255
 200dbec:	1005003a 	cmpeq	r2,r2,zero
 200dbf0:	1000051e 	bne	r2,zero,200dc08 <alt_tick+0x5c>
 200dbf4:	d0a0ab17 	ldw	r2,-32084(gp)
 200dbf8:	1004c03a 	cmpne	r2,r2,zero
 200dbfc:	1000021e 	bne	r2,zero,200dc08 <alt_tick+0x5c>
 200dc00:	e0bffe17 	ldw	r2,-8(fp)
 200dc04:	10000405 	stb	zero,16(r2)
 200dc08:	e0bffe17 	ldw	r2,-8(fp)
 200dc0c:	10c00217 	ldw	r3,8(r2)
 200dc10:	d0a0ab17 	ldw	r2,-32084(gp)
 200dc14:	10c01e36 	bltu	r2,r3,200dc90 <alt_tick+0xe4>
 200dc18:	e0bffe17 	ldw	r2,-8(fp)
 200dc1c:	10800403 	ldbu	r2,16(r2)
 200dc20:	10803fcc 	andi	r2,r2,255
 200dc24:	1004c03a 	cmpne	r2,r2,zero
 200dc28:	1000191e 	bne	r2,zero,200dc90 <alt_tick+0xe4>
 200dc2c:	e0bffe17 	ldw	r2,-8(fp)
 200dc30:	10c00317 	ldw	r3,12(r2)
 200dc34:	e0bffe17 	ldw	r2,-8(fp)
 200dc38:	11000517 	ldw	r4,20(r2)
 200dc3c:	183ee83a 	callr	r3
 200dc40:	e0bffd15 	stw	r2,-12(fp)
 200dc44:	e0bffd17 	ldw	r2,-12(fp)
 200dc48:	1004c03a 	cmpne	r2,r2,zero
 200dc4c:	1000031e 	bne	r2,zero,200dc5c <alt_tick+0xb0>
 200dc50:	e13ffe17 	ldw	r4,-8(fp)
 200dc54:	200db140 	call	200db14 <alt_alarm_stop>
 200dc58:	00000d06 	br	200dc90 <alt_tick+0xe4>
 200dc5c:	e0bffe17 	ldw	r2,-8(fp)
 200dc60:	10c00217 	ldw	r3,8(r2)
 200dc64:	e0bffd17 	ldw	r2,-12(fp)
 200dc68:	1887883a 	add	r3,r3,r2
 200dc6c:	e0bffe17 	ldw	r2,-8(fp)
 200dc70:	10c00215 	stw	r3,8(r2)
 200dc74:	e0bffe17 	ldw	r2,-8(fp)
 200dc78:	10c00217 	ldw	r3,8(r2)
 200dc7c:	d0a0ab17 	ldw	r2,-32084(gp)
 200dc80:	1880032e 	bgeu	r3,r2,200dc90 <alt_tick+0xe4>
 200dc84:	e0fffe17 	ldw	r3,-8(fp)
 200dc88:	00800044 	movi	r2,1
 200dc8c:	18800405 	stb	r2,16(r3)
 200dc90:	e0bfff17 	ldw	r2,-4(fp)
 200dc94:	e0bffe15 	stw	r2,-8(fp)
 200dc98:	d0e01904 	addi	r3,gp,-32668
 200dc9c:	e0bffe17 	ldw	r2,-8(fp)
 200dca0:	10ffcc1e 	bne	r2,r3,200dbd4 <alt_tick+0x28>
 200dca4:	e037883a 	mov	sp,fp
 200dca8:	dfc00117 	ldw	ra,4(sp)
 200dcac:	df000017 	ldw	fp,0(sp)
 200dcb0:	dec00204 	addi	sp,sp,8
 200dcb4:	f800283a 	ret

0200dcb8 <altera_nios2_irq_init>:
 200dcb8:	deffff04 	addi	sp,sp,-4
 200dcbc:	df000015 	stw	fp,0(sp)
 200dcc0:	d839883a 	mov	fp,sp
 200dcc4:	000170fa 	wrctl	ienable,zero
 200dcc8:	e037883a 	mov	sp,fp
 200dccc:	df000017 	ldw	fp,0(sp)
 200dcd0:	dec00104 	addi	sp,sp,4
 200dcd4:	f800283a 	ret

0200dcd8 <alt_avalon_spi_command>:
 200dcd8:	defff404 	addi	sp,sp,-48
 200dcdc:	df000b15 	stw	fp,44(sp)
 200dce0:	df000b04 	addi	fp,sp,44
 200dce4:	e13ffc15 	stw	r4,-16(fp)
 200dce8:	e17ffd15 	stw	r5,-12(fp)
 200dcec:	e1bffe15 	stw	r6,-8(fp)
 200dcf0:	e1ffff15 	stw	r7,-4(fp)
 200dcf4:	e0fffe17 	ldw	r3,-8(fp)
 200dcf8:	e0bfff17 	ldw	r2,-4(fp)
 200dcfc:	10c5883a 	add	r2,r2,r3
 200dd00:	e0bffb15 	stw	r2,-20(fp)
 200dd04:	e0c00117 	ldw	r3,4(fp)
 200dd08:	e0800217 	ldw	r2,8(fp)
 200dd0c:	10c5883a 	add	r2,r2,r3
 200dd10:	e0bffa15 	stw	r2,-24(fp)
 200dd14:	e0800117 	ldw	r2,4(fp)
 200dd18:	e0bff915 	stw	r2,-28(fp)
 200dd1c:	e0bffe17 	ldw	r2,-8(fp)
 200dd20:	e0bff815 	stw	r2,-32(fp)
 200dd24:	00800044 	movi	r2,1
 200dd28:	e0bff615 	stw	r2,-40(fp)
 200dd2c:	e0bffc17 	ldw	r2,-16(fp)
 200dd30:	11000504 	addi	r4,r2,20
 200dd34:	e0fffd17 	ldw	r3,-12(fp)
 200dd38:	00800044 	movi	r2,1
 200dd3c:	10c6983a 	sll	r3,r2,r3
 200dd40:	2005883a 	mov	r2,r4
 200dd44:	10c00035 	stwio	r3,0(r2)
 200dd48:	e0800317 	ldw	r2,12(fp)
 200dd4c:	1080008c 	andi	r2,r2,2
 200dd50:	1004c03a 	cmpne	r2,r2,zero
 200dd54:	1000051e 	bne	r2,zero,200dd6c <alt_avalon_spi_command+0x94>
 200dd58:	e0bffc17 	ldw	r2,-16(fp)
 200dd5c:	10800304 	addi	r2,r2,12
 200dd60:	1007883a 	mov	r3,r2
 200dd64:	00810004 	movi	r2,1024
 200dd68:	18800035 	stwio	r2,0(r3)
 200dd6c:	e0bffc17 	ldw	r2,-16(fp)
 200dd70:	10800037 	ldwio	r2,0(r2)
 200dd74:	00000006 	br	200dd78 <alt_avalon_spi_command+0xa0>
 200dd78:	e0bffc17 	ldw	r2,-16(fp)
 200dd7c:	10800204 	addi	r2,r2,8
 200dd80:	10800037 	ldwio	r2,0(r2)
 200dd84:	e0bff715 	stw	r2,-36(fp)
 200dd88:	e0bff717 	ldw	r2,-36(fp)
 200dd8c:	1080100c 	andi	r2,r2,64
 200dd90:	1005003a 	cmpeq	r2,r2,zero
 200dd94:	1000031e 	bne	r2,zero,200dda4 <alt_avalon_spi_command+0xcc>
 200dd98:	e0bff617 	ldw	r2,-40(fp)
 200dd9c:	1004c03a 	cmpne	r2,r2,zero
 200dda0:	1000041e 	bne	r2,zero,200ddb4 <alt_avalon_spi_command+0xdc>
 200dda4:	e0bff717 	ldw	r2,-36(fp)
 200dda8:	1080200c 	andi	r2,r2,128
 200ddac:	1005003a 	cmpeq	r2,r2,zero
 200ddb0:	103ff11e 	bne	r2,zero,200dd78 <alt_avalon_spi_command+0xa0>
 200ddb4:	e0bff717 	ldw	r2,-36(fp)
 200ddb8:	1080100c 	andi	r2,r2,64
 200ddbc:	1005003a 	cmpeq	r2,r2,zero
 200ddc0:	1000201e 	bne	r2,zero,200de44 <alt_avalon_spi_command+0x16c>
 200ddc4:	e0bff617 	ldw	r2,-40(fp)
 200ddc8:	10800050 	cmplti	r2,r2,1
 200ddcc:	10001d1e 	bne	r2,zero,200de44 <alt_avalon_spi_command+0x16c>
 200ddd0:	e0bff617 	ldw	r2,-40(fp)
 200ddd4:	10bfffc4 	addi	r2,r2,-1
 200ddd8:	e0bff615 	stw	r2,-40(fp)
 200dddc:	e0ffff17 	ldw	r3,-4(fp)
 200dde0:	e0bffb17 	ldw	r2,-20(fp)
 200dde4:	18800b2e 	bgeu	r3,r2,200de14 <alt_avalon_spi_command+0x13c>
 200dde8:	e0bffc17 	ldw	r2,-16(fp)
 200ddec:	11000104 	addi	r4,r2,4
 200ddf0:	e0bfff17 	ldw	r2,-4(fp)
 200ddf4:	10800003 	ldbu	r2,0(r2)
 200ddf8:	10c03fcc 	andi	r3,r2,255
 200ddfc:	e0bfff17 	ldw	r2,-4(fp)
 200de00:	10800044 	addi	r2,r2,1
 200de04:	e0bfff15 	stw	r2,-4(fp)
 200de08:	2005883a 	mov	r2,r4
 200de0c:	10c00035 	stwio	r3,0(r2)
 200de10:	00000c06 	br	200de44 <alt_avalon_spi_command+0x16c>
 200de14:	e0bff917 	ldw	r2,-28(fp)
 200de18:	1005003a 	cmpeq	r2,r2,zero
 200de1c:	1000071e 	bne	r2,zero,200de3c <alt_avalon_spi_command+0x164>
 200de20:	e0bff917 	ldw	r2,-28(fp)
 200de24:	10bfffc4 	addi	r2,r2,-1
 200de28:	e0bff915 	stw	r2,-28(fp)
 200de2c:	e0bffc17 	ldw	r2,-16(fp)
 200de30:	10800104 	addi	r2,r2,4
 200de34:	10000035 	stwio	zero,0(r2)
 200de38:	00000206 	br	200de44 <alt_avalon_spi_command+0x16c>
 200de3c:	00bf0004 	movi	r2,-1024
 200de40:	e0bff615 	stw	r2,-40(fp)
 200de44:	e0bff717 	ldw	r2,-36(fp)
 200de48:	1080200c 	andi	r2,r2,128
 200de4c:	1005003a 	cmpeq	r2,r2,zero
 200de50:	103fc91e 	bne	r2,zero,200dd78 <alt_avalon_spi_command+0xa0>
 200de54:	e0bffc17 	ldw	r2,-16(fp)
 200de58:	10800037 	ldwio	r2,0(r2)
 200de5c:	e0bff515 	stw	r2,-44(fp)
 200de60:	e0bff817 	ldw	r2,-32(fp)
 200de64:	1005003a 	cmpeq	r2,r2,zero
 200de68:	1000041e 	bne	r2,zero,200de7c <alt_avalon_spi_command+0x1a4>
 200de6c:	e0bff817 	ldw	r2,-32(fp)
 200de70:	10bfffc4 	addi	r2,r2,-1
 200de74:	e0bff815 	stw	r2,-32(fp)
 200de78:	00000706 	br	200de98 <alt_avalon_spi_command+0x1c0>
 200de7c:	e0bff517 	ldw	r2,-44(fp)
 200de80:	1007883a 	mov	r3,r2
 200de84:	e0800217 	ldw	r2,8(fp)
 200de88:	10c00005 	stb	r3,0(r2)
 200de8c:	e0800217 	ldw	r2,8(fp)
 200de90:	10800044 	addi	r2,r2,1
 200de94:	e0800215 	stw	r2,8(fp)
 200de98:	e0bff617 	ldw	r2,-40(fp)
 200de9c:	10800044 	addi	r2,r2,1
 200dea0:	e0bff615 	stw	r2,-40(fp)
 200dea4:	e0bff817 	ldw	r2,-32(fp)
 200dea8:	1004c03a 	cmpne	r2,r2,zero
 200deac:	103fb21e 	bne	r2,zero,200dd78 <alt_avalon_spi_command+0xa0>
 200deb0:	e0c00217 	ldw	r3,8(fp)
 200deb4:	e0bffa17 	ldw	r2,-24(fp)
 200deb8:	18800126 	beq	r3,r2,200dec0 <alt_avalon_spi_command+0x1e8>
 200debc:	003fae06 	br	200dd78 <alt_avalon_spi_command+0xa0>
 200dec0:	e0bffc17 	ldw	r2,-16(fp)
 200dec4:	10800204 	addi	r2,r2,8
 200dec8:	10800037 	ldwio	r2,0(r2)
 200decc:	e0bff715 	stw	r2,-36(fp)
 200ded0:	e0bff717 	ldw	r2,-36(fp)
 200ded4:	1080080c 	andi	r2,r2,32
 200ded8:	1005003a 	cmpeq	r2,r2,zero
 200dedc:	103ff81e 	bne	r2,zero,200dec0 <alt_avalon_spi_command+0x1e8>
 200dee0:	e0800317 	ldw	r2,12(fp)
 200dee4:	1080004c 	andi	r2,r2,1
 200dee8:	1004c03a 	cmpne	r2,r2,zero
 200deec:	1000031e 	bne	r2,zero,200defc <alt_avalon_spi_command+0x224>
 200def0:	e0bffc17 	ldw	r2,-16(fp)
 200def4:	10800304 	addi	r2,r2,12
 200def8:	10000035 	stwio	zero,0(r2)
 200defc:	e0800117 	ldw	r2,4(fp)
 200df00:	e037883a 	mov	sp,fp
 200df04:	df000017 	ldw	fp,0(sp)
 200df08:	dec00104 	addi	sp,sp,4
 200df0c:	f800283a 	ret

0200df10 <alt_find_dev>:
 200df10:	defff904 	addi	sp,sp,-28
 200df14:	dfc00615 	stw	ra,24(sp)
 200df18:	df000515 	stw	fp,20(sp)
 200df1c:	df000504 	addi	fp,sp,20
 200df20:	e13ffd15 	stw	r4,-12(fp)
 200df24:	e17ffe15 	stw	r5,-8(fp)
 200df28:	e0bffe17 	ldw	r2,-8(fp)
 200df2c:	10800017 	ldw	r2,0(r2)
 200df30:	e0bffc15 	stw	r2,-16(fp)
 200df34:	e13ffd17 	ldw	r4,-12(fp)
 200df38:	200e2dc0 	call	200e2dc <strlen>
 200df3c:	10800044 	addi	r2,r2,1
 200df40:	e0bffb15 	stw	r2,-20(fp)
 200df44:	00000d06 	br	200df7c <alt_find_dev+0x6c>
 200df48:	e0bffc17 	ldw	r2,-16(fp)
 200df4c:	11000217 	ldw	r4,8(r2)
 200df50:	e1bffb17 	ldw	r6,-20(fp)
 200df54:	e17ffd17 	ldw	r5,-12(fp)
 200df58:	200e1c80 	call	200e1c8 <memcmp>
 200df5c:	1004c03a 	cmpne	r2,r2,zero
 200df60:	1000031e 	bne	r2,zero,200df70 <alt_find_dev+0x60>
 200df64:	e0bffc17 	ldw	r2,-16(fp)
 200df68:	e0bfff15 	stw	r2,-4(fp)
 200df6c:	00000706 	br	200df8c <alt_find_dev+0x7c>
 200df70:	e0bffc17 	ldw	r2,-16(fp)
 200df74:	10800017 	ldw	r2,0(r2)
 200df78:	e0bffc15 	stw	r2,-16(fp)
 200df7c:	e0fffe17 	ldw	r3,-8(fp)
 200df80:	e0bffc17 	ldw	r2,-16(fp)
 200df84:	10fff01e 	bne	r2,r3,200df48 <alt_find_dev+0x38>
 200df88:	e03fff15 	stw	zero,-4(fp)
 200df8c:	e0bfff17 	ldw	r2,-4(fp)
 200df90:	e037883a 	mov	sp,fp
 200df94:	dfc00117 	ldw	ra,4(sp)
 200df98:	df000017 	ldw	fp,0(sp)
 200df9c:	dec00204 	addi	sp,sp,8
 200dfa0:	f800283a 	ret

0200dfa4 <alt_find_file>:
 200dfa4:	defffa04 	addi	sp,sp,-24
 200dfa8:	dfc00515 	stw	ra,20(sp)
 200dfac:	df000415 	stw	fp,16(sp)
 200dfb0:	df000404 	addi	fp,sp,16
 200dfb4:	e13ffe15 	stw	r4,-8(fp)
 200dfb8:	00808074 	movhi	r2,513
 200dfbc:	1080f504 	addi	r2,r2,980
 200dfc0:	10800017 	ldw	r2,0(r2)
 200dfc4:	e0bffd15 	stw	r2,-12(fp)
 200dfc8:	00003306 	br	200e098 <alt_find_file+0xf4>
 200dfcc:	e0bffd17 	ldw	r2,-12(fp)
 200dfd0:	11000217 	ldw	r4,8(r2)
 200dfd4:	200e2dc0 	call	200e2dc <strlen>
 200dfd8:	e0bffc15 	stw	r2,-16(fp)
 200dfdc:	e0bffd17 	ldw	r2,-12(fp)
 200dfe0:	10c00217 	ldw	r3,8(r2)
 200dfe4:	e0bffc17 	ldw	r2,-16(fp)
 200dfe8:	1885883a 	add	r2,r3,r2
 200dfec:	10bfffc4 	addi	r2,r2,-1
 200dff0:	10800003 	ldbu	r2,0(r2)
 200dff4:	10803fcc 	andi	r2,r2,255
 200dff8:	1080201c 	xori	r2,r2,128
 200dffc:	10bfe004 	addi	r2,r2,-128
 200e000:	10800bd8 	cmpnei	r2,r2,47
 200e004:	1000031e 	bne	r2,zero,200e014 <alt_find_file+0x70>
 200e008:	e0bffc17 	ldw	r2,-16(fp)
 200e00c:	10bfffc4 	addi	r2,r2,-1
 200e010:	e0bffc15 	stw	r2,-16(fp)
 200e014:	e0bffc17 	ldw	r2,-16(fp)
 200e018:	1007883a 	mov	r3,r2
 200e01c:	e0bffe17 	ldw	r2,-8(fp)
 200e020:	1885883a 	add	r2,r3,r2
 200e024:	10800003 	ldbu	r2,0(r2)
 200e028:	10803fcc 	andi	r2,r2,255
 200e02c:	1080201c 	xori	r2,r2,128
 200e030:	10bfe004 	addi	r2,r2,-128
 200e034:	10800be0 	cmpeqi	r2,r2,47
 200e038:	10000a1e 	bne	r2,zero,200e064 <alt_find_file+0xc0>
 200e03c:	e0bffc17 	ldw	r2,-16(fp)
 200e040:	1007883a 	mov	r3,r2
 200e044:	e0bffe17 	ldw	r2,-8(fp)
 200e048:	1885883a 	add	r2,r3,r2
 200e04c:	10800003 	ldbu	r2,0(r2)
 200e050:	10803fcc 	andi	r2,r2,255
 200e054:	1080201c 	xori	r2,r2,128
 200e058:	10bfe004 	addi	r2,r2,-128
 200e05c:	1004c03a 	cmpne	r2,r2,zero
 200e060:	10000a1e 	bne	r2,zero,200e08c <alt_find_file+0xe8>
 200e064:	e0bffd17 	ldw	r2,-12(fp)
 200e068:	11000217 	ldw	r4,8(r2)
 200e06c:	e1bffc17 	ldw	r6,-16(fp)
 200e070:	e17ffe17 	ldw	r5,-8(fp)
 200e074:	200e1c80 	call	200e1c8 <memcmp>
 200e078:	1004c03a 	cmpne	r2,r2,zero
 200e07c:	1000031e 	bne	r2,zero,200e08c <alt_find_file+0xe8>
 200e080:	e0bffd17 	ldw	r2,-12(fp)
 200e084:	e0bfff15 	stw	r2,-4(fp)
 200e088:	00000806 	br	200e0ac <alt_find_file+0x108>
 200e08c:	e0bffd17 	ldw	r2,-12(fp)
 200e090:	10800017 	ldw	r2,0(r2)
 200e094:	e0bffd15 	stw	r2,-12(fp)
 200e098:	00c08074 	movhi	r3,513
 200e09c:	18c0f504 	addi	r3,r3,980
 200e0a0:	e0bffd17 	ldw	r2,-12(fp)
 200e0a4:	10ffc91e 	bne	r2,r3,200dfcc <alt_find_file+0x28>
 200e0a8:	e03fff15 	stw	zero,-4(fp)
 200e0ac:	e0bfff17 	ldw	r2,-4(fp)
 200e0b0:	e037883a 	mov	sp,fp
 200e0b4:	dfc00117 	ldw	ra,4(sp)
 200e0b8:	df000017 	ldw	fp,0(sp)
 200e0bc:	dec00204 	addi	sp,sp,8
 200e0c0:	f800283a 	ret

0200e0c4 <alt_get_fd>:
 200e0c4:	defffc04 	addi	sp,sp,-16
 200e0c8:	df000315 	stw	fp,12(sp)
 200e0cc:	df000304 	addi	fp,sp,12
 200e0d0:	e13fff15 	stw	r4,-4(fp)
 200e0d4:	00bffa04 	movi	r2,-24
 200e0d8:	e0bffd15 	stw	r2,-12(fp)
 200e0dc:	e03ffe15 	stw	zero,-8(fp)
 200e0e0:	00001e06 	br	200e15c <alt_get_fd+0x98>
 200e0e4:	e0bffe17 	ldw	r2,-8(fp)
 200e0e8:	00c08074 	movhi	r3,513
 200e0ec:	18c08404 	addi	r3,r3,528
 200e0f0:	10800324 	muli	r2,r2,12
 200e0f4:	10c5883a 	add	r2,r2,r3
 200e0f8:	10800017 	ldw	r2,0(r2)
 200e0fc:	1004c03a 	cmpne	r2,r2,zero
 200e100:	1000131e 	bne	r2,zero,200e150 <alt_get_fd+0x8c>
 200e104:	e0bffe17 	ldw	r2,-8(fp)
 200e108:	00c08074 	movhi	r3,513
 200e10c:	18c08404 	addi	r3,r3,528
 200e110:	10800324 	muli	r2,r2,12
 200e114:	10c7883a 	add	r3,r2,r3
 200e118:	e0bfff17 	ldw	r2,-4(fp)
 200e11c:	18800015 	stw	r2,0(r3)
 200e120:	00808074 	movhi	r2,513
 200e124:	1080f904 	addi	r2,r2,996
 200e128:	10c00017 	ldw	r3,0(r2)
 200e12c:	e0bffe17 	ldw	r2,-8(fp)
 200e130:	1880040e 	bge	r3,r2,200e144 <alt_get_fd+0x80>
 200e134:	00c08074 	movhi	r3,513
 200e138:	18c0f904 	addi	r3,r3,996
 200e13c:	e0bffe17 	ldw	r2,-8(fp)
 200e140:	18800015 	stw	r2,0(r3)
 200e144:	e0bffe17 	ldw	r2,-8(fp)
 200e148:	e0bffd15 	stw	r2,-12(fp)
 200e14c:	00000606 	br	200e168 <alt_get_fd+0xa4>
 200e150:	e0bffe17 	ldw	r2,-8(fp)
 200e154:	10800044 	addi	r2,r2,1
 200e158:	e0bffe15 	stw	r2,-8(fp)
 200e15c:	e0bffe17 	ldw	r2,-8(fp)
 200e160:	10800810 	cmplti	r2,r2,32
 200e164:	103fdf1e 	bne	r2,zero,200e0e4 <alt_get_fd+0x20>
 200e168:	e0bffd17 	ldw	r2,-12(fp)
 200e16c:	e037883a 	mov	sp,fp
 200e170:	df000017 	ldw	fp,0(sp)
 200e174:	dec00104 	addi	sp,sp,4
 200e178:	f800283a 	ret

0200e17c <atexit>:
 200e17c:	200b883a 	mov	r5,r4
 200e180:	000d883a 	mov	r6,zero
 200e184:	0009883a 	mov	r4,zero
 200e188:	000f883a 	mov	r7,zero
 200e18c:	200e3501 	jmpi	200e350 <__register_exitproc>

0200e190 <exit>:
 200e190:	defffe04 	addi	sp,sp,-8
 200e194:	000b883a 	mov	r5,zero
 200e198:	dc000015 	stw	r16,0(sp)
 200e19c:	dfc00115 	stw	ra,4(sp)
 200e1a0:	2021883a 	mov	r16,r4
 200e1a4:	200e4880 	call	200e488 <__call_exitprocs>
 200e1a8:	00808074 	movhi	r2,513
 200e1ac:	1080f304 	addi	r2,r2,972
 200e1b0:	11000017 	ldw	r4,0(r2)
 200e1b4:	20800f17 	ldw	r2,60(r4)
 200e1b8:	10000126 	beq	r2,zero,200e1c0 <exit+0x30>
 200e1bc:	103ee83a 	callr	r2
 200e1c0:	8009883a 	mov	r4,r16
 200e1c4:	200e6780 	call	200e678 <_exit>

0200e1c8 <memcmp>:
 200e1c8:	00c000c4 	movi	r3,3
 200e1cc:	1980032e 	bgeu	r3,r6,200e1dc <memcmp+0x14>
 200e1d0:	2144b03a 	or	r2,r4,r5
 200e1d4:	10c4703a 	and	r2,r2,r3
 200e1d8:	10000f26 	beq	r2,zero,200e218 <memcmp+0x50>
 200e1dc:	31ffffc4 	addi	r7,r6,-1
 200e1e0:	3000061e 	bne	r6,zero,200e1fc <memcmp+0x34>
 200e1e4:	00000a06 	br	200e210 <memcmp+0x48>
 200e1e8:	39ffffc4 	addi	r7,r7,-1
 200e1ec:	00bfffc4 	movi	r2,-1
 200e1f0:	21000044 	addi	r4,r4,1
 200e1f4:	29400044 	addi	r5,r5,1
 200e1f8:	38800526 	beq	r7,r2,200e210 <memcmp+0x48>
 200e1fc:	20c00003 	ldbu	r3,0(r4)
 200e200:	28800003 	ldbu	r2,0(r5)
 200e204:	18bff826 	beq	r3,r2,200e1e8 <memcmp+0x20>
 200e208:	1885c83a 	sub	r2,r3,r2
 200e20c:	f800283a 	ret
 200e210:	0005883a 	mov	r2,zero
 200e214:	f800283a 	ret
 200e218:	180f883a 	mov	r7,r3
 200e21c:	20c00017 	ldw	r3,0(r4)
 200e220:	28800017 	ldw	r2,0(r5)
 200e224:	18bfed1e 	bne	r3,r2,200e1dc <memcmp+0x14>
 200e228:	31bfff04 	addi	r6,r6,-4
 200e22c:	21000104 	addi	r4,r4,4
 200e230:	29400104 	addi	r5,r5,4
 200e234:	39bff936 	bltu	r7,r6,200e21c <memcmp+0x54>
 200e238:	003fe806 	br	200e1dc <memcmp+0x14>

0200e23c <memcpy>:
 200e23c:	01c003c4 	movi	r7,15
 200e240:	2007883a 	mov	r3,r4
 200e244:	3980032e 	bgeu	r7,r6,200e254 <memcpy+0x18>
 200e248:	2904b03a 	or	r2,r5,r4
 200e24c:	108000cc 	andi	r2,r2,3
 200e250:	10000926 	beq	r2,zero,200e278 <memcpy+0x3c>
 200e254:	30000626 	beq	r6,zero,200e270 <memcpy+0x34>
 200e258:	30cd883a 	add	r6,r6,r3
 200e25c:	28800003 	ldbu	r2,0(r5)
 200e260:	29400044 	addi	r5,r5,1
 200e264:	18800005 	stb	r2,0(r3)
 200e268:	18c00044 	addi	r3,r3,1
 200e26c:	30fffb1e 	bne	r6,r3,200e25c <memcpy+0x20>
 200e270:	2005883a 	mov	r2,r4
 200e274:	f800283a 	ret
 200e278:	3811883a 	mov	r8,r7
 200e27c:	200f883a 	mov	r7,r4
 200e280:	28c00017 	ldw	r3,0(r5)
 200e284:	31bffc04 	addi	r6,r6,-16
 200e288:	38c00015 	stw	r3,0(r7)
 200e28c:	28800117 	ldw	r2,4(r5)
 200e290:	38800115 	stw	r2,4(r7)
 200e294:	28c00217 	ldw	r3,8(r5)
 200e298:	38c00215 	stw	r3,8(r7)
 200e29c:	28800317 	ldw	r2,12(r5)
 200e2a0:	29400404 	addi	r5,r5,16
 200e2a4:	38800315 	stw	r2,12(r7)
 200e2a8:	39c00404 	addi	r7,r7,16
 200e2ac:	41bff436 	bltu	r8,r6,200e280 <memcpy+0x44>
 200e2b0:	008000c4 	movi	r2,3
 200e2b4:	1180072e 	bgeu	r2,r6,200e2d4 <memcpy+0x98>
 200e2b8:	1007883a 	mov	r3,r2
 200e2bc:	28800017 	ldw	r2,0(r5)
 200e2c0:	31bfff04 	addi	r6,r6,-4
 200e2c4:	29400104 	addi	r5,r5,4
 200e2c8:	38800015 	stw	r2,0(r7)
 200e2cc:	39c00104 	addi	r7,r7,4
 200e2d0:	19bffa36 	bltu	r3,r6,200e2bc <memcpy+0x80>
 200e2d4:	3807883a 	mov	r3,r7
 200e2d8:	003fde06 	br	200e254 <memcpy+0x18>

0200e2dc <strlen>:
 200e2dc:	208000cc 	andi	r2,r4,3
 200e2e0:	2011883a 	mov	r8,r4
 200e2e4:	1000161e 	bne	r2,zero,200e340 <strlen+0x64>
 200e2e8:	20c00017 	ldw	r3,0(r4)
 200e2ec:	017fbff4 	movhi	r5,65279
 200e2f0:	297fbfc4 	addi	r5,r5,-257
 200e2f4:	01e02074 	movhi	r7,32897
 200e2f8:	39e02004 	addi	r7,r7,-32640
 200e2fc:	1945883a 	add	r2,r3,r5
 200e300:	11c4703a 	and	r2,r2,r7
 200e304:	00c6303a 	nor	r3,zero,r3
 200e308:	1886703a 	and	r3,r3,r2
 200e30c:	18000c1e 	bne	r3,zero,200e340 <strlen+0x64>
 200e310:	280d883a 	mov	r6,r5
 200e314:	380b883a 	mov	r5,r7
 200e318:	21000104 	addi	r4,r4,4
 200e31c:	20800017 	ldw	r2,0(r4)
 200e320:	1187883a 	add	r3,r2,r6
 200e324:	1946703a 	and	r3,r3,r5
 200e328:	0084303a 	nor	r2,zero,r2
 200e32c:	10c4703a 	and	r2,r2,r3
 200e330:	103ff926 	beq	r2,zero,200e318 <strlen+0x3c>
 200e334:	20800007 	ldb	r2,0(r4)
 200e338:	10000326 	beq	r2,zero,200e348 <strlen+0x6c>
 200e33c:	21000044 	addi	r4,r4,1
 200e340:	20800007 	ldb	r2,0(r4)
 200e344:	103ffd1e 	bne	r2,zero,200e33c <strlen+0x60>
 200e348:	2205c83a 	sub	r2,r4,r8
 200e34c:	f800283a 	ret

0200e350 <__register_exitproc>:
 200e350:	defffa04 	addi	sp,sp,-24
 200e354:	00808074 	movhi	r2,513
 200e358:	1080f304 	addi	r2,r2,972
 200e35c:	dc000015 	stw	r16,0(sp)
 200e360:	14000017 	ldw	r16,0(r2)
 200e364:	dd000415 	stw	r20,16(sp)
 200e368:	2829883a 	mov	r20,r5
 200e36c:	81405217 	ldw	r5,328(r16)
 200e370:	dcc00315 	stw	r19,12(sp)
 200e374:	dc800215 	stw	r18,8(sp)
 200e378:	dc400115 	stw	r17,4(sp)
 200e37c:	dfc00515 	stw	ra,20(sp)
 200e380:	2023883a 	mov	r17,r4
 200e384:	3027883a 	mov	r19,r6
 200e388:	3825883a 	mov	r18,r7
 200e38c:	28002526 	beq	r5,zero,200e424 <__register_exitproc+0xd4>
 200e390:	29000117 	ldw	r4,4(r5)
 200e394:	008007c4 	movi	r2,31
 200e398:	11002716 	blt	r2,r4,200e438 <__register_exitproc+0xe8>
 200e39c:	8800101e 	bne	r17,zero,200e3e0 <__register_exitproc+0x90>
 200e3a0:	2105883a 	add	r2,r4,r4
 200e3a4:	1085883a 	add	r2,r2,r2
 200e3a8:	20c00044 	addi	r3,r4,1
 200e3ac:	1145883a 	add	r2,r2,r5
 200e3b0:	0009883a 	mov	r4,zero
 200e3b4:	15000215 	stw	r20,8(r2)
 200e3b8:	28c00115 	stw	r3,4(r5)
 200e3bc:	2005883a 	mov	r2,r4
 200e3c0:	dfc00517 	ldw	ra,20(sp)
 200e3c4:	dd000417 	ldw	r20,16(sp)
 200e3c8:	dcc00317 	ldw	r19,12(sp)
 200e3cc:	dc800217 	ldw	r18,8(sp)
 200e3d0:	dc400117 	ldw	r17,4(sp)
 200e3d4:	dc000017 	ldw	r16,0(sp)
 200e3d8:	dec00604 	addi	sp,sp,24
 200e3dc:	f800283a 	ret
 200e3e0:	29802204 	addi	r6,r5,136
 200e3e4:	00800044 	movi	r2,1
 200e3e8:	110e983a 	sll	r7,r2,r4
 200e3ec:	30c04017 	ldw	r3,256(r6)
 200e3f0:	2105883a 	add	r2,r4,r4
 200e3f4:	1085883a 	add	r2,r2,r2
 200e3f8:	1185883a 	add	r2,r2,r6
 200e3fc:	19c6b03a 	or	r3,r3,r7
 200e400:	14802015 	stw	r18,128(r2)
 200e404:	14c00015 	stw	r19,0(r2)
 200e408:	00800084 	movi	r2,2
 200e40c:	30c04015 	stw	r3,256(r6)
 200e410:	88bfe31e 	bne	r17,r2,200e3a0 <__register_exitproc+0x50>
 200e414:	30804117 	ldw	r2,260(r6)
 200e418:	11c4b03a 	or	r2,r2,r7
 200e41c:	30804115 	stw	r2,260(r6)
 200e420:	003fdf06 	br	200e3a0 <__register_exitproc+0x50>
 200e424:	00808074 	movhi	r2,513
 200e428:	1083e504 	addi	r2,r2,3988
 200e42c:	100b883a 	mov	r5,r2
 200e430:	80805215 	stw	r2,328(r16)
 200e434:	003fd606 	br	200e390 <__register_exitproc+0x40>
 200e438:	00800034 	movhi	r2,0
 200e43c:	10800004 	addi	r2,r2,0
 200e440:	1000021e 	bne	r2,zero,200e44c <__register_exitproc+0xfc>
 200e444:	013fffc4 	movi	r4,-1
 200e448:	003fdc06 	br	200e3bc <__register_exitproc+0x6c>
 200e44c:	01006404 	movi	r4,400
 200e450:	103ee83a 	callr	r2
 200e454:	1007883a 	mov	r3,r2
 200e458:	103ffa26 	beq	r2,zero,200e444 <__register_exitproc+0xf4>
 200e45c:	80805217 	ldw	r2,328(r16)
 200e460:	180b883a 	mov	r5,r3
 200e464:	18000115 	stw	zero,4(r3)
 200e468:	18800015 	stw	r2,0(r3)
 200e46c:	80c05215 	stw	r3,328(r16)
 200e470:	18006215 	stw	zero,392(r3)
 200e474:	18006315 	stw	zero,396(r3)
 200e478:	0009883a 	mov	r4,zero
 200e47c:	883fc826 	beq	r17,zero,200e3a0 <__register_exitproc+0x50>
 200e480:	003fd706 	br	200e3e0 <__register_exitproc+0x90>

0200e484 <register_fini>:
 200e484:	f800283a 	ret

0200e488 <__call_exitprocs>:
 200e488:	00808074 	movhi	r2,513
 200e48c:	1080f304 	addi	r2,r2,972
 200e490:	10800017 	ldw	r2,0(r2)
 200e494:	defff304 	addi	sp,sp,-52
 200e498:	df000b15 	stw	fp,44(sp)
 200e49c:	d8800115 	stw	r2,4(sp)
 200e4a0:	00800034 	movhi	r2,0
 200e4a4:	10800004 	addi	r2,r2,0
 200e4a8:	1005003a 	cmpeq	r2,r2,zero
 200e4ac:	d8800215 	stw	r2,8(sp)
 200e4b0:	d8800117 	ldw	r2,4(sp)
 200e4b4:	dd400815 	stw	r21,32(sp)
 200e4b8:	dd000715 	stw	r20,28(sp)
 200e4bc:	10805204 	addi	r2,r2,328
 200e4c0:	dfc00c15 	stw	ra,48(sp)
 200e4c4:	ddc00a15 	stw	r23,40(sp)
 200e4c8:	dd800915 	stw	r22,36(sp)
 200e4cc:	dcc00615 	stw	r19,24(sp)
 200e4d0:	dc800515 	stw	r18,20(sp)
 200e4d4:	dc400415 	stw	r17,16(sp)
 200e4d8:	dc000315 	stw	r16,12(sp)
 200e4dc:	282b883a 	mov	r21,r5
 200e4e0:	2039883a 	mov	fp,r4
 200e4e4:	d8800015 	stw	r2,0(sp)
 200e4e8:	2829003a 	cmpeq	r20,r5,zero
 200e4ec:	d8800117 	ldw	r2,4(sp)
 200e4f0:	14405217 	ldw	r17,328(r2)
 200e4f4:	88001026 	beq	r17,zero,200e538 <__call_exitprocs+0xb0>
 200e4f8:	ddc00017 	ldw	r23,0(sp)
 200e4fc:	88800117 	ldw	r2,4(r17)
 200e500:	8c802204 	addi	r18,r17,136
 200e504:	143fffc4 	addi	r16,r2,-1
 200e508:	80000916 	blt	r16,zero,200e530 <__call_exitprocs+0xa8>
 200e50c:	05bfffc4 	movi	r22,-1
 200e510:	a000151e 	bne	r20,zero,200e568 <__call_exitprocs+0xe0>
 200e514:	8409883a 	add	r4,r16,r16
 200e518:	2105883a 	add	r2,r4,r4
 200e51c:	1485883a 	add	r2,r2,r18
 200e520:	10c02017 	ldw	r3,128(r2)
 200e524:	a8c01126 	beq	r21,r3,200e56c <__call_exitprocs+0xe4>
 200e528:	843fffc4 	addi	r16,r16,-1
 200e52c:	85bff81e 	bne	r16,r22,200e510 <__call_exitprocs+0x88>
 200e530:	d8800217 	ldw	r2,8(sp)
 200e534:	10003126 	beq	r2,zero,200e5fc <__call_exitprocs+0x174>
 200e538:	dfc00c17 	ldw	ra,48(sp)
 200e53c:	df000b17 	ldw	fp,44(sp)
 200e540:	ddc00a17 	ldw	r23,40(sp)
 200e544:	dd800917 	ldw	r22,36(sp)
 200e548:	dd400817 	ldw	r21,32(sp)
 200e54c:	dd000717 	ldw	r20,28(sp)
 200e550:	dcc00617 	ldw	r19,24(sp)
 200e554:	dc800517 	ldw	r18,20(sp)
 200e558:	dc400417 	ldw	r17,16(sp)
 200e55c:	dc000317 	ldw	r16,12(sp)
 200e560:	dec00d04 	addi	sp,sp,52
 200e564:	f800283a 	ret
 200e568:	8409883a 	add	r4,r16,r16
 200e56c:	88c00117 	ldw	r3,4(r17)
 200e570:	2105883a 	add	r2,r4,r4
 200e574:	1445883a 	add	r2,r2,r17
 200e578:	18ffffc4 	addi	r3,r3,-1
 200e57c:	11800217 	ldw	r6,8(r2)
 200e580:	1c001526 	beq	r3,r16,200e5d8 <__call_exitprocs+0x150>
 200e584:	10000215 	stw	zero,8(r2)
 200e588:	303fe726 	beq	r6,zero,200e528 <__call_exitprocs+0xa0>
 200e58c:	00c00044 	movi	r3,1
 200e590:	1c06983a 	sll	r3,r3,r16
 200e594:	90804017 	ldw	r2,256(r18)
 200e598:	8cc00117 	ldw	r19,4(r17)
 200e59c:	1884703a 	and	r2,r3,r2
 200e5a0:	10001426 	beq	r2,zero,200e5f4 <__call_exitprocs+0x16c>
 200e5a4:	90804117 	ldw	r2,260(r18)
 200e5a8:	1884703a 	and	r2,r3,r2
 200e5ac:	10000c1e 	bne	r2,zero,200e5e0 <__call_exitprocs+0x158>
 200e5b0:	2105883a 	add	r2,r4,r4
 200e5b4:	1485883a 	add	r2,r2,r18
 200e5b8:	11400017 	ldw	r5,0(r2)
 200e5bc:	e009883a 	mov	r4,fp
 200e5c0:	303ee83a 	callr	r6
 200e5c4:	88800117 	ldw	r2,4(r17)
 200e5c8:	98bfc81e 	bne	r19,r2,200e4ec <__call_exitprocs+0x64>
 200e5cc:	b8800017 	ldw	r2,0(r23)
 200e5d0:	147fd526 	beq	r2,r17,200e528 <__call_exitprocs+0xa0>
 200e5d4:	003fc506 	br	200e4ec <__call_exitprocs+0x64>
 200e5d8:	8c000115 	stw	r16,4(r17)
 200e5dc:	003fea06 	br	200e588 <__call_exitprocs+0x100>
 200e5e0:	2105883a 	add	r2,r4,r4
 200e5e4:	1485883a 	add	r2,r2,r18
 200e5e8:	11000017 	ldw	r4,0(r2)
 200e5ec:	303ee83a 	callr	r6
 200e5f0:	003ff406 	br	200e5c4 <__call_exitprocs+0x13c>
 200e5f4:	303ee83a 	callr	r6
 200e5f8:	003ff206 	br	200e5c4 <__call_exitprocs+0x13c>
 200e5fc:	88800117 	ldw	r2,4(r17)
 200e600:	1000081e 	bne	r2,zero,200e624 <__call_exitprocs+0x19c>
 200e604:	89000017 	ldw	r4,0(r17)
 200e608:	20000726 	beq	r4,zero,200e628 <__call_exitprocs+0x1a0>
 200e60c:	b9000015 	stw	r4,0(r23)
 200e610:	8809883a 	mov	r4,r17
 200e614:	00000000 	call	0 <__alt_mem_sdram-0x2000000>
 200e618:	bc400017 	ldw	r17,0(r23)
 200e61c:	883fb71e 	bne	r17,zero,200e4fc <__call_exitprocs+0x74>
 200e620:	003fc506 	br	200e538 <__call_exitprocs+0xb0>
 200e624:	89000017 	ldw	r4,0(r17)
 200e628:	882f883a 	mov	r23,r17
 200e62c:	2023883a 	mov	r17,r4
 200e630:	883fb21e 	bne	r17,zero,200e4fc <__call_exitprocs+0x74>
 200e634:	003fc006 	br	200e538 <__call_exitprocs+0xb0>

0200e638 <alt_sim_halt>:
 200e638:	defffd04 	addi	sp,sp,-12
 200e63c:	df000215 	stw	fp,8(sp)
 200e640:	df000204 	addi	fp,sp,8
 200e644:	e13fff15 	stw	r4,-4(fp)
 200e648:	e0bfff17 	ldw	r2,-4(fp)
 200e64c:	e0bffe15 	stw	r2,-8(fp)
 200e650:	e0bffe17 	ldw	r2,-8(fp)
 200e654:	1005003a 	cmpeq	r2,r2,zero
 200e658:	1000021e 	bne	r2,zero,200e664 <alt_sim_halt+0x2c>
 200e65c:	002af070 	cmpltui	zero,zero,43969
 200e660:	00000106 	br	200e668 <alt_sim_halt+0x30>
 200e664:	002af0b0 	cmpltui	zero,zero,43970
 200e668:	e037883a 	mov	sp,fp
 200e66c:	df000017 	ldw	fp,0(sp)
 200e670:	dec00104 	addi	sp,sp,4
 200e674:	f800283a 	ret

0200e678 <_exit>:
 200e678:	defffd04 	addi	sp,sp,-12
 200e67c:	dfc00215 	stw	ra,8(sp)
 200e680:	df000115 	stw	fp,4(sp)
 200e684:	df000104 	addi	fp,sp,4
 200e688:	e13fff15 	stw	r4,-4(fp)
 200e68c:	e13fff17 	ldw	r4,-4(fp)
 200e690:	200e6380 	call	200e638 <alt_sim_halt>
 200e694:	003fff06 	br	200e694 <_exit+0x1c>
 200e698:	0200e484 	movi	r8,914
